ARM GAS  /tmp/cc1oM6Yq.s 			page 1


   1              		.cpu cortex-m4
   2              		.eabi_attribute 27, 1
   3              		.eabi_attribute 28, 1
   4              		.eabi_attribute 20, 1
   5              		.eabi_attribute 21, 1
   6              		.eabi_attribute 23, 3
   7              		.eabi_attribute 24, 1
   8              		.eabi_attribute 25, 1
   9              		.eabi_attribute 26, 1
  10              		.eabi_attribute 30, 4
  11              		.eabi_attribute 34, 1
  12              		.eabi_attribute 18, 4
  13              		.file	"lexer.c"
  14              		.text
  15              	.Ltext0:
  16              		.cfi_sections	.debug_frame
  17              		.section	.text.iseos,"ax",%progbits
  18              		.align	1
  19              		.arch armv7e-m
  20              		.syntax unified
  21              		.thumb
  22              		.thumb_func
  23              		.fpu fpv4-sp-d16
  25              	iseos:
  26              	.LVL0:
  27              	.LFB6:
  28              		.file 1 "libscpi/src/lexer.c"
   1:libscpi/src/lexer.c **** /*-
   2:libscpi/src/lexer.c ****  * BSD 2-Clause License
   3:libscpi/src/lexer.c ****  *
   4:libscpi/src/lexer.c ****  * Copyright (c) 2012-2018, Jan Breuer
   5:libscpi/src/lexer.c ****  * All rights reserved.
   6:libscpi/src/lexer.c ****  *
   7:libscpi/src/lexer.c ****  * Redistribution and use in source and binary forms, with or without
   8:libscpi/src/lexer.c ****  * modification, are permitted provided that the following conditions are met:
   9:libscpi/src/lexer.c ****  *
  10:libscpi/src/lexer.c ****  * * Redistributions of source code must retain the above copyright notice, this
  11:libscpi/src/lexer.c ****  *   list of conditions and the following disclaimer.
  12:libscpi/src/lexer.c ****  *
  13:libscpi/src/lexer.c ****  * * Redistributions in binary form must reproduce the above copyright notice,
  14:libscpi/src/lexer.c ****  *   this list of conditions and the following disclaimer in the documentation
  15:libscpi/src/lexer.c ****  *   and/or other materials provided with the distribution.
  16:libscpi/src/lexer.c ****  *
  17:libscpi/src/lexer.c ****  * THIS SOFTWARE IS PROVIDED BY THE COPYRIGHT HOLDERS AND CONTRIBUTORS "AS IS"
  18:libscpi/src/lexer.c ****  * AND ANY EXPRESS OR IMPLIED WARRANTIES, INCLUDING, BUT NOT LIMITED TO, THE
  19:libscpi/src/lexer.c ****  * IMPLIED WARRANTIES OF MERCHANTABILITY AND FITNESS FOR A PARTICULAR PURPOSE ARE
  20:libscpi/src/lexer.c ****  * DISCLAIMED. IN NO EVENT SHALL THE COPYRIGHT HOLDER OR CONTRIBUTORS BE LIABLE
  21:libscpi/src/lexer.c ****  * FOR ANY DIRECT, INDIRECT, INCIDENTAL, SPECIAL, EXEMPLARY, OR CONSEQUENTIAL
  22:libscpi/src/lexer.c ****  * DAMAGES (INCLUDING, BUT NOT LIMITED TO, PROCUREMENT OF SUBSTITUTE GOODS OR
  23:libscpi/src/lexer.c ****  * SERVICES; LOSS OF USE, DATA, OR PROFITS; OR BUSINESS INTERRUPTION) HOWEVER
  24:libscpi/src/lexer.c ****  * CAUSED AND ON ANY THEORY OF LIABILITY, WHETHER IN CONTRACT, STRICT LIABILITY,
  25:libscpi/src/lexer.c ****  * OR TORT (INCLUDING NEGLIGENCE OR OTHERWISE) ARISING IN ANY WAY OUT OF THE USE
  26:libscpi/src/lexer.c ****  * OF THIS SOFTWARE, EVEN IF ADVISED OF THE POSSIBILITY OF SUCH DAMAGE.
  27:libscpi/src/lexer.c ****  */
  28:libscpi/src/lexer.c **** 
  29:libscpi/src/lexer.c **** /**
  30:libscpi/src/lexer.c ****  * @file   lexer.c
ARM GAS  /tmp/cc1oM6Yq.s 			page 2


  31:libscpi/src/lexer.c ****  * @date   Wed Mar 20 19:35:19 UTC 2013
  32:libscpi/src/lexer.c ****  * 
  33:libscpi/src/lexer.c ****  * @brief  SCPI Lexer
  34:libscpi/src/lexer.c ****  * 
  35:libscpi/src/lexer.c ****  * 
  36:libscpi/src/lexer.c ****  */
  37:libscpi/src/lexer.c **** 
  38:libscpi/src/lexer.c **** #include <ctype.h>
  39:libscpi/src/lexer.c **** #include <stdio.h>
  40:libscpi/src/lexer.c **** #include <string.h>
  41:libscpi/src/lexer.c **** 
  42:libscpi/src/lexer.c **** #include "lexer_private.h"
  43:libscpi/src/lexer.c **** #include "scpi/error.h"
  44:libscpi/src/lexer.c **** 
  45:libscpi/src/lexer.c **** /**
  46:libscpi/src/lexer.c ****  * Is white space
  47:libscpi/src/lexer.c ****  * @param c
  48:libscpi/src/lexer.c ****  * @return 
  49:libscpi/src/lexer.c ****  */
  50:libscpi/src/lexer.c **** static int isws(int c) {
  51:libscpi/src/lexer.c ****     if ((c == ' ') || (c == '\t')) {
  52:libscpi/src/lexer.c ****         return 1;
  53:libscpi/src/lexer.c ****     }
  54:libscpi/src/lexer.c ****     return 0;
  55:libscpi/src/lexer.c **** }
  56:libscpi/src/lexer.c **** 
  57:libscpi/src/lexer.c **** /**
  58:libscpi/src/lexer.c ****  * Is binary digit
  59:libscpi/src/lexer.c ****  * @param c
  60:libscpi/src/lexer.c ****  * @return 
  61:libscpi/src/lexer.c ****  */
  62:libscpi/src/lexer.c **** static int isbdigit(int c) {
  63:libscpi/src/lexer.c ****     if ((c == '0') || (c == '1')) {
  64:libscpi/src/lexer.c ****         return 1;
  65:libscpi/src/lexer.c ****     }
  66:libscpi/src/lexer.c ****     return 0;
  67:libscpi/src/lexer.c **** }
  68:libscpi/src/lexer.c **** 
  69:libscpi/src/lexer.c **** /**
  70:libscpi/src/lexer.c ****  * Is hexadecimal digit
  71:libscpi/src/lexer.c ****  * @param c
  72:libscpi/src/lexer.c ****  * @return 
  73:libscpi/src/lexer.c ****  */
  74:libscpi/src/lexer.c **** static int isqdigit(int c) {
  75:libscpi/src/lexer.c ****     if ((c == '0') || (c == '1') || (c == '2') || (c == '3') || (c == '4') || (c == '5') || (c == '
  76:libscpi/src/lexer.c ****         return 1;
  77:libscpi/src/lexer.c ****     }
  78:libscpi/src/lexer.c ****     return 0;
  79:libscpi/src/lexer.c **** }
  80:libscpi/src/lexer.c **** 
  81:libscpi/src/lexer.c **** /**
  82:libscpi/src/lexer.c ****  * Is end of string
  83:libscpi/src/lexer.c ****  * @param state
  84:libscpi/src/lexer.c ****  * @return 
  85:libscpi/src/lexer.c ****  */
  86:libscpi/src/lexer.c **** static int iseos(lex_state_t * state) {
  29              		.loc 1 86 39 view -0
ARM GAS  /tmp/cc1oM6Yq.s 			page 3


  30              		.cfi_startproc
  31              		@ args = 0, pretend = 0, frame = 0
  32              		@ frame_needed = 0, uses_anonymous_args = 0
  33              		@ link register save eliminated.
  87:libscpi/src/lexer.c ****     if ((state->buffer + state->len) <= (state->pos)) {
  34              		.loc 1 87 5 view .LVU1
  35              		.loc 1 87 24 is_stmt 0 view .LVU2
  36 0000 0368     		ldr	r3, [r0]
  37 0002 8268     		ldr	r2, [r0, #8]
  38              		.loc 1 87 8 view .LVU3
  39 0004 4068     		ldr	r0, [r0, #4]
  40              	.LVL1:
  41              		.loc 1 87 24 view .LVU4
  42 0006 1344     		add	r3, r3, r2
  88:libscpi/src/lexer.c ****         return 1;
  89:libscpi/src/lexer.c ****     } else {
  90:libscpi/src/lexer.c ****         return 0;
  91:libscpi/src/lexer.c ****     }
  92:libscpi/src/lexer.c **** }
  43              		.loc 1 92 1 view .LVU5
  44 0008 9842     		cmp	r0, r3
  45 000a 34BF     		ite	cc
  46 000c 0020     		movcc	r0, #0
  47 000e 0120     		movcs	r0, #1
  48 0010 7047     		bx	lr
  49              		.cfi_endproc
  50              	.LFE6:
  52              		.section	.text.skipWs,"ax",%progbits
  53              		.align	1
  54              		.syntax unified
  55              		.thumb
  56              		.thumb_func
  57              		.fpu fpv4-sp-d16
  59              	skipWs:
  60              	.LVL2:
  61              	.LFB14:
  93:libscpi/src/lexer.c **** 
  94:libscpi/src/lexer.c **** /**
  95:libscpi/src/lexer.c ****  * Private export of iseos
  96:libscpi/src/lexer.c ****  * @param state
  97:libscpi/src/lexer.c ****  * @return 
  98:libscpi/src/lexer.c ****  */
  99:libscpi/src/lexer.c **** int scpiLex_IsEos(lex_state_t * state) {
 100:libscpi/src/lexer.c ****     return iseos(state);
 101:libscpi/src/lexer.c **** }
 102:libscpi/src/lexer.c **** 
 103:libscpi/src/lexer.c **** /**
 104:libscpi/src/lexer.c ****  * Test current character
 105:libscpi/src/lexer.c ****  * @param state
 106:libscpi/src/lexer.c ****  * @param chr
 107:libscpi/src/lexer.c ****  * @return 
 108:libscpi/src/lexer.c ****  */
 109:libscpi/src/lexer.c **** static int ischr(lex_state_t * state, char chr) {
 110:libscpi/src/lexer.c ****     return (state->pos[0] == chr);
 111:libscpi/src/lexer.c **** }
 112:libscpi/src/lexer.c **** 
 113:libscpi/src/lexer.c **** /**
ARM GAS  /tmp/cc1oM6Yq.s 			page 4


 114:libscpi/src/lexer.c ****  * Is plus or minus
 115:libscpi/src/lexer.c ****  * @param c
 116:libscpi/src/lexer.c ****  * @return 
 117:libscpi/src/lexer.c ****  */
 118:libscpi/src/lexer.c **** static int isplusmn(int c) {
 119:libscpi/src/lexer.c ****     return c == '+' || c == '-';
 120:libscpi/src/lexer.c **** }
 121:libscpi/src/lexer.c **** 
 122:libscpi/src/lexer.c **** /**
 123:libscpi/src/lexer.c ****  * Is letter H
 124:libscpi/src/lexer.c ****  * @param c
 125:libscpi/src/lexer.c ****  * @return 
 126:libscpi/src/lexer.c ****  */
 127:libscpi/src/lexer.c **** static int isH(int c) {
 128:libscpi/src/lexer.c ****     return c == 'h' || c == 'H';
 129:libscpi/src/lexer.c **** }
 130:libscpi/src/lexer.c **** 
 131:libscpi/src/lexer.c **** /**
 132:libscpi/src/lexer.c ****  * Is letter B
 133:libscpi/src/lexer.c ****  * @param c
 134:libscpi/src/lexer.c ****  * @return 
 135:libscpi/src/lexer.c ****  */
 136:libscpi/src/lexer.c **** static int isB(int c) {
 137:libscpi/src/lexer.c ****     return c == 'b' || c == 'B';
 138:libscpi/src/lexer.c **** }
 139:libscpi/src/lexer.c **** 
 140:libscpi/src/lexer.c **** /**
 141:libscpi/src/lexer.c ****  * Is letter Q
 142:libscpi/src/lexer.c ****  * @param c
 143:libscpi/src/lexer.c ****  * @return 
 144:libscpi/src/lexer.c ****  */
 145:libscpi/src/lexer.c **** static int isQ(int c) {
 146:libscpi/src/lexer.c ****     return c == 'q' || c == 'Q';
 147:libscpi/src/lexer.c **** }
 148:libscpi/src/lexer.c **** 
 149:libscpi/src/lexer.c **** /**
 150:libscpi/src/lexer.c ****  * Is letter E
 151:libscpi/src/lexer.c ****  * @param c
 152:libscpi/src/lexer.c ****  * @return 
 153:libscpi/src/lexer.c ****  */
 154:libscpi/src/lexer.c **** static int isE(int c) {
 155:libscpi/src/lexer.c ****     return c == 'e' || c == 'E';
 156:libscpi/src/lexer.c **** }
 157:libscpi/src/lexer.c **** 
 158:libscpi/src/lexer.c **** #define SKIP_NONE       0
 159:libscpi/src/lexer.c **** #define SKIP_OK         1
 160:libscpi/src/lexer.c **** #define SKIP_INCOMPLETE -1
 161:libscpi/src/lexer.c **** 
 162:libscpi/src/lexer.c **** /* skip characters */
 163:libscpi/src/lexer.c **** /* 7.4.1 <PROGRAM MESSAGE UNIT SEPARATOR>*/
 164:libscpi/src/lexer.c **** /* TODO: static int skipProgramMessageUnitSeparator(lex_state_t * state) */
 165:libscpi/src/lexer.c **** 
 166:libscpi/src/lexer.c **** /**
 167:libscpi/src/lexer.c ****  * Skip all whitespaces
 168:libscpi/src/lexer.c ****  * @param state
 169:libscpi/src/lexer.c ****  * @return 
 170:libscpi/src/lexer.c ****  */
ARM GAS  /tmp/cc1oM6Yq.s 			page 5


 171:libscpi/src/lexer.c **** static int skipWs(lex_state_t * state) {
  62              		.loc 1 171 40 is_stmt 1 view -0
  63              		.cfi_startproc
  64              		@ args = 0, pretend = 0, frame = 0
  65              		@ frame_needed = 0, uses_anonymous_args = 0
 172:libscpi/src/lexer.c ****     int someSpace = 0;
  66              		.loc 1 172 5 view .LVU7
 173:libscpi/src/lexer.c ****     while (!iseos(state) && isws(state->pos[0])) {
  67              		.loc 1 173 5 view .LVU8
 171:libscpi/src/lexer.c ****     int someSpace = 0;
  68              		.loc 1 171 40 is_stmt 0 view .LVU9
  69 0000 10B5     		push	{r4, lr}
  70              	.LCFI0:
  71              		.cfi_def_cfa_offset 8
  72              		.cfi_offset 4, -8
  73              		.cfi_offset 14, -4
 171:libscpi/src/lexer.c ****     int someSpace = 0;
  74              		.loc 1 171 40 view .LVU10
  75 0002 0146     		mov	r1, r0
 172:libscpi/src/lexer.c ****     int someSpace = 0;
  76              		.loc 1 172 9 view .LVU11
  77 0004 0024     		movs	r4, #0
  78              	.LVL3:
  79              	.L5:
  80              		.loc 1 173 11 is_stmt 1 view .LVU12
  81              		.loc 1 173 13 is_stmt 0 view .LVU13
  82 0006 0846     		mov	r0, r1
  83 0008 FFF7FEFF 		bl	iseos
  84              	.LVL4:
  85              		.loc 1 173 11 view .LVU14
  86 000c 48B9     		cbnz	r0, .L2
  87              		.loc 1 173 39 discriminator 1 view .LVU15
  88 000e 4B68     		ldr	r3, [r1, #4]
  89              		.loc 1 173 29 discriminator 1 view .LVU16
  90 0010 1A78     		ldrb	r2, [r3]	@ zero_extendqisi2
  91              	.LVL5:
  92              	.LBB42:
  93              	.LBI42:
  50:libscpi/src/lexer.c ****     if ((c == ' ') || (c == '\t')) {
  94              		.loc 1 50 12 is_stmt 1 discriminator 1 view .LVU17
  95              	.LBB43:
  51:libscpi/src/lexer.c ****         return 1;
  96              		.loc 1 51 5 discriminator 1 view .LVU18
  51:libscpi/src/lexer.c ****         return 1;
  97              		.loc 1 51 8 is_stmt 0 discriminator 1 view .LVU19
  98 0012 202A     		cmp	r2, #32
  99 0014 01D0     		beq	.L4
  51:libscpi/src/lexer.c ****         return 1;
 100              		.loc 1 51 20 view .LVU20
 101 0016 092A     		cmp	r2, #9
 102 0018 03D1     		bne	.L2
 103              	.L4:
  52:libscpi/src/lexer.c ****     }
 104              		.loc 1 52 9 is_stmt 1 view .LVU21
 105              	.LVL6:
  52:libscpi/src/lexer.c ****     }
 106              		.loc 1 52 9 is_stmt 0 view .LVU22
ARM GAS  /tmp/cc1oM6Yq.s 			page 6


 107              	.LBE43:
 108              	.LBE42:
 174:libscpi/src/lexer.c ****         state->pos++;
 109              		.loc 1 174 9 is_stmt 1 view .LVU23
 110              		.loc 1 174 19 is_stmt 0 view .LVU24
 111 001a 0133     		adds	r3, r3, #1
 112 001c 4B60     		str	r3, [r1, #4]
 175:libscpi/src/lexer.c ****         someSpace++;
 113              		.loc 1 175 9 is_stmt 1 view .LVU25
 114              		.loc 1 175 18 is_stmt 0 view .LVU26
 115 001e 0134     		adds	r4, r4, #1
 116              	.LVL7:
 117              		.loc 1 175 18 view .LVU27
 118 0020 F1E7     		b	.L5
 119              	.L2:
 176:libscpi/src/lexer.c ****     }
 177:libscpi/src/lexer.c **** 
 178:libscpi/src/lexer.c ****     return someSpace;
 179:libscpi/src/lexer.c **** }
 120              		.loc 1 179 1 view .LVU28
 121 0022 2046     		mov	r0, r4
 122 0024 10BD     		pop	{r4, pc}
 123              		.loc 1 179 1 view .LVU29
 124              		.cfi_endproc
 125              	.LFE14:
 127              		.section	.text.skipDigit,"ax",%progbits
 128              		.align	1
 129              		.syntax unified
 130              		.thumb
 131              		.thumb_func
 132              		.fpu fpv4-sp-d16
 134              	skipDigit:
 135              	.LVL8:
 136              	.LFB15:
 180:libscpi/src/lexer.c **** 
 181:libscpi/src/lexer.c **** /* 7.4.2 <PROGRAM DATA SEPARATOR> */
 182:libscpi/src/lexer.c **** /* static int skipProgramDataSeparator(lex_state_t * state) */
 183:libscpi/src/lexer.c **** 
 184:libscpi/src/lexer.c **** /* 7.5.2 <PROGRAM MESSAGE TERMINATOR> */
 185:libscpi/src/lexer.c **** /* static int skipProgramMessageTerminator(lex_state_t * state) */
 186:libscpi/src/lexer.c **** 
 187:libscpi/src/lexer.c **** /**
 188:libscpi/src/lexer.c ****  * Skip decimal digit
 189:libscpi/src/lexer.c ****  * @param state
 190:libscpi/src/lexer.c ****  * @return 
 191:libscpi/src/lexer.c ****  */
 192:libscpi/src/lexer.c **** static int skipDigit(lex_state_t * state) {
 137              		.loc 1 192 43 is_stmt 1 view -0
 138              		.cfi_startproc
 139              		@ args = 0, pretend = 0, frame = 0
 140              		@ frame_needed = 0, uses_anonymous_args = 0
 193:libscpi/src/lexer.c ****     if (!iseos(state) && isdigit((uint8_t)(state->pos[0]))) {
 141              		.loc 1 193 5 view .LVU31
 192:libscpi/src/lexer.c ****     if (!iseos(state) && isdigit((uint8_t)(state->pos[0]))) {
 142              		.loc 1 192 43 is_stmt 0 view .LVU32
 143 0000 10B5     		push	{r4, lr}
 144              	.LCFI1:
ARM GAS  /tmp/cc1oM6Yq.s 			page 7


 145              		.cfi_def_cfa_offset 8
 146              		.cfi_offset 4, -8
 147              		.cfi_offset 14, -4
 192:libscpi/src/lexer.c ****     if (!iseos(state) && isdigit((uint8_t)(state->pos[0]))) {
 148              		.loc 1 192 43 view .LVU33
 149 0002 0146     		mov	r1, r0
 150              		.loc 1 193 10 view .LVU34
 151 0004 FFF7FEFF 		bl	iseos
 152              	.LVL9:
 153              		.loc 1 193 8 view .LVU35
 154 0008 48B9     		cbnz	r0, .L11
 155              		.loc 1 193 26 discriminator 1 view .LVU36
 156 000a 4B68     		ldr	r3, [r1, #4]
 157 000c 054A     		ldr	r2, .L15
 158 000e 1C78     		ldrb	r4, [r3]	@ zero_extendqisi2
 159              		.loc 1 193 23 discriminator 1 view .LVU37
 160 0010 A25C     		ldrb	r2, [r4, r2]	@ zero_extendqisi2
 161 0012 5207     		lsls	r2, r2, #29
 162 0014 02D5     		bpl	.L9
 194:libscpi/src/lexer.c ****         state->pos++;
 163              		.loc 1 194 9 is_stmt 1 view .LVU38
 164              		.loc 1 194 19 is_stmt 0 view .LVU39
 165 0016 0133     		adds	r3, r3, #1
 166 0018 4B60     		str	r3, [r1, #4]
 195:libscpi/src/lexer.c ****         return SKIP_OK;
 167              		.loc 1 195 9 is_stmt 1 view .LVU40
 168              		.loc 1 195 16 is_stmt 0 view .LVU41
 169 001a 0120     		movs	r0, #1
 170              	.L9:
 196:libscpi/src/lexer.c ****     } else {
 197:libscpi/src/lexer.c ****         return SKIP_NONE;
 198:libscpi/src/lexer.c ****     }
 199:libscpi/src/lexer.c **** }
 171              		.loc 1 199 1 view .LVU42
 172 001c 10BD     		pop	{r4, pc}
 173              	.L11:
 197:libscpi/src/lexer.c ****     }
 174              		.loc 1 197 16 view .LVU43
 175 001e 0020     		movs	r0, #0
 176 0020 FCE7     		b	.L9
 177              	.L16:
 178 0022 00BF     		.align	2
 179              	.L15:
 180 0024 01000000 		.word	_ctype_+1
 181              		.cfi_endproc
 182              	.LFE15:
 184              		.section	.text.skipNumbers,"ax",%progbits
 185              		.align	1
 186              		.syntax unified
 187              		.thumb
 188              		.thumb_func
 189              		.fpu fpv4-sp-d16
 191              	skipNumbers:
 192              	.LVL10:
 193              	.LFB16:
 200:libscpi/src/lexer.c **** 
 201:libscpi/src/lexer.c **** /**
ARM GAS  /tmp/cc1oM6Yq.s 			page 8


 202:libscpi/src/lexer.c ****  * Skip multiple decimal digits
 203:libscpi/src/lexer.c ****  * @param state
 204:libscpi/src/lexer.c ****  * @return 
 205:libscpi/src/lexer.c ****  */
 206:libscpi/src/lexer.c **** static int skipNumbers(lex_state_t * state) {
 194              		.loc 1 206 45 is_stmt 1 view -0
 195              		.cfi_startproc
 196              		@ args = 0, pretend = 0, frame = 0
 197              		@ frame_needed = 0, uses_anonymous_args = 0
 207:libscpi/src/lexer.c ****     int someNumbers = 0;
 198              		.loc 1 207 5 view .LVU45
 208:libscpi/src/lexer.c ****     while (!iseos(state) && isdigit((uint8_t)(state->pos[0]))) {
 199              		.loc 1 208 5 view .LVU46
 206:libscpi/src/lexer.c ****     int someNumbers = 0;
 200              		.loc 1 206 45 is_stmt 0 view .LVU47
 201 0000 38B5     		push	{r3, r4, r5, lr}
 202              	.LCFI2:
 203              		.cfi_def_cfa_offset 16
 204              		.cfi_offset 3, -16
 205              		.cfi_offset 4, -12
 206              		.cfi_offset 5, -8
 207              		.cfi_offset 14, -4
 208              		.loc 1 208 29 view .LVU48
 209 0002 094D     		ldr	r5, .L22
 206:libscpi/src/lexer.c ****     int someNumbers = 0;
 210              		.loc 1 206 45 view .LVU49
 211 0004 0146     		mov	r1, r0
 207:libscpi/src/lexer.c ****     int someNumbers = 0;
 212              		.loc 1 207 9 view .LVU50
 213 0006 0024     		movs	r4, #0
 214              	.LVL11:
 215              	.L18:
 216              		.loc 1 208 11 is_stmt 1 view .LVU51
 217              		.loc 1 208 13 is_stmt 0 view .LVU52
 218 0008 0846     		mov	r0, r1
 219 000a FFF7FEFF 		bl	iseos
 220              	.LVL12:
 221              		.loc 1 208 11 view .LVU53
 222 000e 20B9     		cbnz	r0, .L17
 223              		.loc 1 208 29 discriminator 1 view .LVU54
 224 0010 4B68     		ldr	r3, [r1, #4]
 225 0012 1A78     		ldrb	r2, [r3]	@ zero_extendqisi2
 226              		.loc 1 208 26 discriminator 1 view .LVU55
 227 0014 525D     		ldrb	r2, [r2, r5]	@ zero_extendqisi2
 228 0016 5207     		lsls	r2, r2, #29
 229 0018 01D4     		bmi	.L20
 230              	.L17:
 209:libscpi/src/lexer.c ****         state->pos++;
 210:libscpi/src/lexer.c ****         someNumbers++;
 211:libscpi/src/lexer.c ****     }
 212:libscpi/src/lexer.c ****     return someNumbers;
 213:libscpi/src/lexer.c **** }
 231              		.loc 1 213 1 view .LVU56
 232 001a 2046     		mov	r0, r4
 233 001c 38BD     		pop	{r3, r4, r5, pc}
 234              	.LVL13:
 235              	.L20:
ARM GAS  /tmp/cc1oM6Yq.s 			page 9


 209:libscpi/src/lexer.c ****         state->pos++;
 236              		.loc 1 209 9 is_stmt 1 view .LVU57
 209:libscpi/src/lexer.c ****         state->pos++;
 237              		.loc 1 209 19 is_stmt 0 view .LVU58
 238 001e 0133     		adds	r3, r3, #1
 239 0020 4B60     		str	r3, [r1, #4]
 210:libscpi/src/lexer.c ****     }
 240              		.loc 1 210 9 is_stmt 1 view .LVU59
 210:libscpi/src/lexer.c ****     }
 241              		.loc 1 210 20 is_stmt 0 view .LVU60
 242 0022 0134     		adds	r4, r4, #1
 243              	.LVL14:
 210:libscpi/src/lexer.c ****     }
 244              		.loc 1 210 20 view .LVU61
 245 0024 F0E7     		b	.L18
 246              	.L23:
 247 0026 00BF     		.align	2
 248              	.L22:
 249 0028 01000000 		.word	_ctype_+1
 250              		.cfi_endproc
 251              	.LFE16:
 253              		.section	.text.skipPlusmn,"ax",%progbits
 254              		.align	1
 255              		.syntax unified
 256              		.thumb
 257              		.thumb_func
 258              		.fpu fpv4-sp-d16
 260              	skipPlusmn:
 261              	.LVL15:
 262              	.LFB17:
 214:libscpi/src/lexer.c **** 
 215:libscpi/src/lexer.c **** /**
 216:libscpi/src/lexer.c ****  * Skip plus or minus
 217:libscpi/src/lexer.c ****  * @param state
 218:libscpi/src/lexer.c ****  * @return 
 219:libscpi/src/lexer.c ****  */
 220:libscpi/src/lexer.c **** static int skipPlusmn(lex_state_t * state) {
 263              		.loc 1 220 44 is_stmt 1 view -0
 264              		.cfi_startproc
 265              		@ args = 0, pretend = 0, frame = 0
 266              		@ frame_needed = 0, uses_anonymous_args = 0
 221:libscpi/src/lexer.c ****     if (!iseos(state) && isplusmn(state->pos[0])) {
 267              		.loc 1 221 5 view .LVU63
 220:libscpi/src/lexer.c ****     if (!iseos(state) && isplusmn(state->pos[0])) {
 268              		.loc 1 220 44 is_stmt 0 view .LVU64
 269 0000 08B5     		push	{r3, lr}
 270              	.LCFI3:
 271              		.cfi_def_cfa_offset 8
 272              		.cfi_offset 3, -8
 273              		.cfi_offset 14, -4
 220:libscpi/src/lexer.c ****     if (!iseos(state) && isplusmn(state->pos[0])) {
 274              		.loc 1 220 44 view .LVU65
 275 0002 0146     		mov	r1, r0
 276              		.loc 1 221 10 view .LVU66
 277 0004 FFF7FEFF 		bl	iseos
 278              	.LVL16:
 279              		.loc 1 221 8 view .LVU67
ARM GAS  /tmp/cc1oM6Yq.s 			page 10


 280 0008 48B9     		cbnz	r0, .L27
 281              		.loc 1 221 40 discriminator 1 view .LVU68
 282 000a 4B68     		ldr	r3, [r1, #4]
 283              		.loc 1 221 26 discriminator 1 view .LVU69
 284 000c 1A78     		ldrb	r2, [r3]	@ zero_extendqisi2
 285              	.LVL17:
 286              	.LBB46:
 287              	.LBI46:
 118:libscpi/src/lexer.c ****     return c == '+' || c == '-';
 288              		.loc 1 118 12 is_stmt 1 discriminator 1 view .LVU70
 289              	.LBB47:
 119:libscpi/src/lexer.c **** }
 290              		.loc 1 119 5 discriminator 1 view .LVU71
 119:libscpi/src/lexer.c **** }
 291              		.loc 1 119 21 is_stmt 0 discriminator 1 view .LVU72
 292 000e 2B2A     		cmp	r2, #43
 293 0010 01D0     		beq	.L26
 119:libscpi/src/lexer.c **** }
 294              		.loc 1 119 21 view .LVU73
 295 0012 2D2A     		cmp	r2, #45
 296 0014 02D1     		bne	.L24
 297              	.L26:
 298              	.LVL18:
 119:libscpi/src/lexer.c **** }
 299              		.loc 1 119 21 view .LVU74
 300              	.LBE47:
 301              	.LBE46:
 222:libscpi/src/lexer.c ****         state->pos++;
 302              		.loc 1 222 9 is_stmt 1 view .LVU75
 303              		.loc 1 222 19 is_stmt 0 view .LVU76
 304 0016 0133     		adds	r3, r3, #1
 305 0018 4B60     		str	r3, [r1, #4]
 223:libscpi/src/lexer.c ****         return SKIP_OK;
 306              		.loc 1 223 9 is_stmt 1 view .LVU77
 307              		.loc 1 223 16 is_stmt 0 view .LVU78
 308 001a 0120     		movs	r0, #1
 309              	.L24:
 224:libscpi/src/lexer.c ****     } else {
 225:libscpi/src/lexer.c ****         return SKIP_NONE;
 226:libscpi/src/lexer.c ****     }
 227:libscpi/src/lexer.c **** }
 310              		.loc 1 227 1 view .LVU79
 311 001c 08BD     		pop	{r3, pc}
 312              	.L27:
 225:libscpi/src/lexer.c ****     }
 313              		.loc 1 225 16 view .LVU80
 314 001e 0020     		movs	r0, #0
 315 0020 FCE7     		b	.L24
 316              		.cfi_endproc
 317              	.LFE17:
 319              		.section	.text.skipAlpha,"ax",%progbits
 320              		.align	1
 321              		.syntax unified
 322              		.thumb
 323              		.thumb_func
 324              		.fpu fpv4-sp-d16
 326              	skipAlpha:
ARM GAS  /tmp/cc1oM6Yq.s 			page 11


 327              	.LVL19:
 328              	.LFB18:
 228:libscpi/src/lexer.c **** 
 229:libscpi/src/lexer.c **** /**
 230:libscpi/src/lexer.c ****  * Skip any character from 'a'-'Z'
 231:libscpi/src/lexer.c ****  * @param state
 232:libscpi/src/lexer.c ****  * @return 
 233:libscpi/src/lexer.c ****  */
 234:libscpi/src/lexer.c **** static int skipAlpha(lex_state_t * state) {
 329              		.loc 1 234 43 is_stmt 1 view -0
 330              		.cfi_startproc
 331              		@ args = 0, pretend = 0, frame = 0
 332              		@ frame_needed = 0, uses_anonymous_args = 0
 235:libscpi/src/lexer.c ****     int someLetters = 0;
 333              		.loc 1 235 5 view .LVU82
 236:libscpi/src/lexer.c ****     while (!iseos(state) && isalpha((uint8_t)(state->pos[0]))) {
 334              		.loc 1 236 5 view .LVU83
 234:libscpi/src/lexer.c ****     int someLetters = 0;
 335              		.loc 1 234 43 is_stmt 0 view .LVU84
 336 0000 38B5     		push	{r3, r4, r5, lr}
 337              	.LCFI4:
 338              		.cfi_def_cfa_offset 16
 339              		.cfi_offset 3, -16
 340              		.cfi_offset 4, -12
 341              		.cfi_offset 5, -8
 342              		.cfi_offset 14, -4
 343              		.loc 1 236 29 view .LVU85
 344 0002 094D     		ldr	r5, .L36
 234:libscpi/src/lexer.c ****     int someLetters = 0;
 345              		.loc 1 234 43 view .LVU86
 346 0004 0146     		mov	r1, r0
 235:libscpi/src/lexer.c ****     int someLetters = 0;
 347              		.loc 1 235 9 view .LVU87
 348 0006 0024     		movs	r4, #0
 349              	.LVL20:
 350              	.L32:
 351              		.loc 1 236 11 is_stmt 1 view .LVU88
 352              		.loc 1 236 13 is_stmt 0 view .LVU89
 353 0008 0846     		mov	r0, r1
 354 000a FFF7FEFF 		bl	iseos
 355              	.LVL21:
 356              		.loc 1 236 11 view .LVU90
 357 000e 20B9     		cbnz	r0, .L31
 358              		.loc 1 236 29 discriminator 1 view .LVU91
 359 0010 4B68     		ldr	r3, [r1, #4]
 360 0012 1A78     		ldrb	r2, [r3]	@ zero_extendqisi2
 361              		.loc 1 236 26 discriminator 1 view .LVU92
 362 0014 525D     		ldrb	r2, [r2, r5]	@ zero_extendqisi2
 363 0016 9207     		lsls	r2, r2, #30
 364 0018 01D1     		bne	.L34
 365              	.L31:
 237:libscpi/src/lexer.c ****         state->pos++;
 238:libscpi/src/lexer.c ****         someLetters++;
 239:libscpi/src/lexer.c ****     }
 240:libscpi/src/lexer.c ****     return someLetters;
 241:libscpi/src/lexer.c **** }
 366              		.loc 1 241 1 view .LVU93
ARM GAS  /tmp/cc1oM6Yq.s 			page 12


 367 001a 2046     		mov	r0, r4
 368 001c 38BD     		pop	{r3, r4, r5, pc}
 369              	.LVL22:
 370              	.L34:
 237:libscpi/src/lexer.c ****         state->pos++;
 371              		.loc 1 237 9 is_stmt 1 view .LVU94
 237:libscpi/src/lexer.c ****         state->pos++;
 372              		.loc 1 237 19 is_stmt 0 view .LVU95
 373 001e 0133     		adds	r3, r3, #1
 374 0020 4B60     		str	r3, [r1, #4]
 238:libscpi/src/lexer.c ****     }
 375              		.loc 1 238 9 is_stmt 1 view .LVU96
 238:libscpi/src/lexer.c ****     }
 376              		.loc 1 238 20 is_stmt 0 view .LVU97
 377 0022 0134     		adds	r4, r4, #1
 378              	.LVL23:
 238:libscpi/src/lexer.c ****     }
 379              		.loc 1 238 20 view .LVU98
 380 0024 F0E7     		b	.L32
 381              	.L37:
 382 0026 00BF     		.align	2
 383              	.L36:
 384 0028 01000000 		.word	_ctype_+1
 385              		.cfi_endproc
 386              	.LFE18:
 388              		.section	.text.skipChr,"ax",%progbits
 389              		.align	1
 390              		.syntax unified
 391              		.thumb
 392              		.thumb_func
 393              		.fpu fpv4-sp-d16
 395              	skipChr:
 396              	.LVL24:
 397              	.LFB19:
 242:libscpi/src/lexer.c **** 
 243:libscpi/src/lexer.c **** /**
 244:libscpi/src/lexer.c ****  * Skip exact character chr or nothing
 245:libscpi/src/lexer.c ****  * @param state
 246:libscpi/src/lexer.c ****  * @param chr
 247:libscpi/src/lexer.c ****  * @return 
 248:libscpi/src/lexer.c ****  */
 249:libscpi/src/lexer.c **** static int skipChr(lex_state_t * state, char chr) {
 398              		.loc 1 249 51 is_stmt 1 view -0
 399              		.cfi_startproc
 400              		@ args = 0, pretend = 0, frame = 0
 401              		@ frame_needed = 0, uses_anonymous_args = 0
 250:libscpi/src/lexer.c ****     if (!iseos(state) && ischr(state, chr)) {
 402              		.loc 1 250 5 view .LVU100
 249:libscpi/src/lexer.c ****     if (!iseos(state) && ischr(state, chr)) {
 403              		.loc 1 249 51 is_stmt 0 view .LVU101
 404 0000 10B5     		push	{r4, lr}
 405              	.LCFI5:
 406              		.cfi_def_cfa_offset 8
 407              		.cfi_offset 4, -8
 408              		.cfi_offset 14, -4
 249:libscpi/src/lexer.c ****     if (!iseos(state) && ischr(state, chr)) {
 409              		.loc 1 249 51 view .LVU102
ARM GAS  /tmp/cc1oM6Yq.s 			page 13


 410 0002 0446     		mov	r4, r0
 411              		.loc 1 250 10 view .LVU103
 412 0004 FFF7FEFF 		bl	iseos
 413              	.LVL25:
 414              		.loc 1 250 8 view .LVU104
 415 0008 38B9     		cbnz	r0, .L40
 416              		.loc 1 250 26 discriminator 1 view .LVU105
 417 000a 6368     		ldr	r3, [r4, #4]
 418              	.LVL26:
 419              	.LBB48:
 420              	.LBI48:
 109:libscpi/src/lexer.c ****     return (state->pos[0] == chr);
 421              		.loc 1 109 12 is_stmt 1 discriminator 1 view .LVU106
 422              	.LBB49:
 110:libscpi/src/lexer.c **** }
 423              		.loc 1 110 5 discriminator 1 view .LVU107
 110:libscpi/src/lexer.c **** }
 424              		.loc 1 110 5 is_stmt 0 discriminator 1 view .LVU108
 425              	.LBE49:
 426              	.LBE48:
 427              		.loc 1 250 23 discriminator 1 view .LVU109
 428 000c 1A78     		ldrb	r2, [r3]	@ zero_extendqisi2
 429 000e 8A42     		cmp	r2, r1
 430 0010 02D1     		bne	.L38
 251:libscpi/src/lexer.c ****         state->pos++;
 431              		.loc 1 251 9 is_stmt 1 view .LVU110
 432              		.loc 1 251 19 is_stmt 0 view .LVU111
 433 0012 0133     		adds	r3, r3, #1
 434 0014 6360     		str	r3, [r4, #4]
 252:libscpi/src/lexer.c ****         return SKIP_OK;
 435              		.loc 1 252 9 is_stmt 1 view .LVU112
 436              		.loc 1 252 16 is_stmt 0 view .LVU113
 437 0016 0120     		movs	r0, #1
 438              	.LVL27:
 439              	.L38:
 253:libscpi/src/lexer.c ****     } else {
 254:libscpi/src/lexer.c ****         return SKIP_NONE;
 255:libscpi/src/lexer.c ****     }
 256:libscpi/src/lexer.c **** }
 440              		.loc 1 256 1 view .LVU114
 441 0018 10BD     		pop	{r4, pc}
 442              	.LVL28:
 443              	.L40:
 254:libscpi/src/lexer.c ****     }
 444              		.loc 1 254 16 view .LVU115
 445 001a 0020     		movs	r0, #0
 446 001c FCE7     		b	.L38
 447              		.cfi_endproc
 448              	.LFE19:
 450              		.section	.text.skipProgramMnemonic,"ax",%progbits
 451              		.align	1
 452              		.syntax unified
 453              		.thumb
 454              		.thumb_func
 455              		.fpu fpv4-sp-d16
 457              	skipProgramMnemonic:
 458              	.LVL29:
ARM GAS  /tmp/cc1oM6Yq.s 			page 14


 459              	.LFB23:
 257:libscpi/src/lexer.c **** 
 258:libscpi/src/lexer.c **** /**
 259:libscpi/src/lexer.c ****  * Skip slash or dot
 260:libscpi/src/lexer.c ****  * @param state
 261:libscpi/src/lexer.c ****  * @return 
 262:libscpi/src/lexer.c ****  */
 263:libscpi/src/lexer.c **** static int skipSlashDot(lex_state_t * state) {
 264:libscpi/src/lexer.c ****     if (!iseos(state) && (ischr(state, '/') | ischr(state, '.'))) {
 265:libscpi/src/lexer.c ****         state->pos++;
 266:libscpi/src/lexer.c ****         return SKIP_OK;
 267:libscpi/src/lexer.c ****     } else {
 268:libscpi/src/lexer.c ****         return SKIP_NONE;
 269:libscpi/src/lexer.c ****     }
 270:libscpi/src/lexer.c **** }
 271:libscpi/src/lexer.c **** 
 272:libscpi/src/lexer.c **** /**
 273:libscpi/src/lexer.c ****  * Skip star
 274:libscpi/src/lexer.c ****  * @param state
 275:libscpi/src/lexer.c ****  * @return 
 276:libscpi/src/lexer.c ****  */
 277:libscpi/src/lexer.c **** static int skipStar(lex_state_t * state) {
 278:libscpi/src/lexer.c ****     if (!iseos(state) && ischr(state, '*')) {
 279:libscpi/src/lexer.c ****         state->pos++;
 280:libscpi/src/lexer.c ****         return SKIP_OK;
 281:libscpi/src/lexer.c ****     } else {
 282:libscpi/src/lexer.c ****         return SKIP_NONE;
 283:libscpi/src/lexer.c ****     }
 284:libscpi/src/lexer.c **** }
 285:libscpi/src/lexer.c **** 
 286:libscpi/src/lexer.c **** /**
 287:libscpi/src/lexer.c ****  * Skip colon
 288:libscpi/src/lexer.c ****  * @param state
 289:libscpi/src/lexer.c ****  * @return 
 290:libscpi/src/lexer.c ****  */
 291:libscpi/src/lexer.c **** static int skipColon(lex_state_t * state) {
 292:libscpi/src/lexer.c ****     if (!iseos(state) && ischr(state, ':')) {
 293:libscpi/src/lexer.c ****         state->pos++;
 294:libscpi/src/lexer.c ****         return SKIP_OK;
 295:libscpi/src/lexer.c ****     } else {
 296:libscpi/src/lexer.c ****         return SKIP_NONE;
 297:libscpi/src/lexer.c ****     }
 298:libscpi/src/lexer.c **** }
 299:libscpi/src/lexer.c **** 
 300:libscpi/src/lexer.c **** /* 7.6.1.2 <COMMAND PROGRAM HEADER> */
 301:libscpi/src/lexer.c **** 
 302:libscpi/src/lexer.c **** /**
 303:libscpi/src/lexer.c ****  * Skip program mnemonic [a-z][a-z0-9_]*
 304:libscpi/src/lexer.c ****  * @param state
 305:libscpi/src/lexer.c ****  * @return 
 306:libscpi/src/lexer.c ****  */
 307:libscpi/src/lexer.c **** static int skipProgramMnemonic(lex_state_t * state) {
 460              		.loc 1 307 53 is_stmt 1 view -0
 461              		.cfi_startproc
 462              		@ args = 0, pretend = 0, frame = 0
 463              		@ frame_needed = 0, uses_anonymous_args = 0
 308:libscpi/src/lexer.c ****     const char * startPos = state->pos;
ARM GAS  /tmp/cc1oM6Yq.s 			page 15


 464              		.loc 1 308 5 view .LVU117
 307:libscpi/src/lexer.c ****     const char * startPos = state->pos;
 465              		.loc 1 307 53 is_stmt 0 view .LVU118
 466 0000 38B5     		push	{r3, r4, r5, lr}
 467              	.LCFI6:
 468              		.cfi_def_cfa_offset 16
 469              		.cfi_offset 3, -16
 470              		.cfi_offset 4, -12
 471              		.cfi_offset 5, -8
 472              		.cfi_offset 14, -4
 307:libscpi/src/lexer.c ****     const char * startPos = state->pos;
 473              		.loc 1 307 53 view .LVU119
 474 0002 0146     		mov	r1, r0
 475              		.loc 1 308 18 view .LVU120
 476 0004 4468     		ldr	r4, [r0, #4]
 477              	.LVL30:
 309:libscpi/src/lexer.c ****     if (!iseos(state) && isalpha((uint8_t)(state->pos[0]))) {
 478              		.loc 1 309 5 is_stmt 1 view .LVU121
 479              		.loc 1 309 10 is_stmt 0 view .LVU122
 480 0006 FFF7FEFF 		bl	iseos
 481              	.LVL31:
 482              		.loc 1 309 8 view .LVU123
 483 000a B0B9     		cbnz	r0, .L42
 484              		.loc 1 309 26 discriminator 1 view .LVU124
 485 000c 2278     		ldrb	r2, [r4]	@ zero_extendqisi2
 486 000e 0C4D     		ldr	r5, .L54
 487              		.loc 1 309 23 discriminator 1 view .LVU125
 488 0010 525D     		ldrb	r2, [r2, r5]	@ zero_extendqisi2
 489 0012 9307     		lsls	r3, r2, #30
 490 0014 0CD0     		beq	.L43
 310:libscpi/src/lexer.c ****         state->pos++;
 491              		.loc 1 310 9 is_stmt 1 view .LVU126
 492              		.loc 1 310 19 is_stmt 0 view .LVU127
 493 0016 631C     		adds	r3, r4, #1
 494              	.L53:
 311:libscpi/src/lexer.c ****         while (!iseos(state) && (isalnum((uint8_t)(state->pos[0])) || ischr(state, '_'))) {
 312:libscpi/src/lexer.c ****             state->pos++;
 495              		.loc 1 312 23 view .LVU128
 496 0018 4B60     		str	r3, [r1, #4]
 311:libscpi/src/lexer.c ****         while (!iseos(state) && (isalnum((uint8_t)(state->pos[0])) || ischr(state, '_'))) {
 497              		.loc 1 311 15 is_stmt 1 view .LVU129
 311:libscpi/src/lexer.c ****         while (!iseos(state) && (isalnum((uint8_t)(state->pos[0])) || ischr(state, '_'))) {
 498              		.loc 1 311 17 is_stmt 0 view .LVU130
 499 001a 0846     		mov	r0, r1
 500 001c FFF7FEFF 		bl	iseos
 501              	.LVL32:
 502 0020 4B68     		ldr	r3, [r1, #4]
 311:libscpi/src/lexer.c ****         while (!iseos(state) && (isalnum((uint8_t)(state->pos[0])) || ischr(state, '_'))) {
 503              		.loc 1 311 15 view .LVU131
 504 0022 50B9     		cbnz	r0, .L42
 311:libscpi/src/lexer.c ****         while (!iseos(state) && (isalnum((uint8_t)(state->pos[0])) || ischr(state, '_'))) {
 505              		.loc 1 311 34 discriminator 1 view .LVU132
 506 0024 1A78     		ldrb	r2, [r3]	@ zero_extendqisi2
 311:libscpi/src/lexer.c ****         while (!iseos(state) && (isalnum((uint8_t)(state->pos[0])) || ischr(state, '_'))) {
 507              		.loc 1 311 30 discriminator 1 view .LVU133
 508 0026 A85C     		ldrb	r0, [r5, r2]	@ zero_extendqisi2
 509 0028 4007     		lsls	r0, r0, #29
ARM GAS  /tmp/cc1oM6Yq.s 			page 16


 510 002a 04D1     		bne	.L45
 511              	.LVL33:
 110:libscpi/src/lexer.c **** }
 512              		.loc 1 110 5 is_stmt 1 discriminator 2 view .LVU134
 311:libscpi/src/lexer.c ****         while (!iseos(state) && (isalnum((uint8_t)(state->pos[0])) || ischr(state, '_'))) {
 513              		.loc 1 311 68 is_stmt 0 discriminator 2 view .LVU135
 514 002c 5F2A     		cmp	r2, #95
 515 002e 02D0     		beq	.L45
 516              	.L43:
 313:libscpi/src/lexer.c ****         }
 314:libscpi/src/lexer.c ****     }
 315:libscpi/src/lexer.c **** 
 316:libscpi/src/lexer.c ****     if (iseos(state)) {
 517              		.loc 1 316 5 is_stmt 1 view .LVU136
 317:libscpi/src/lexer.c ****         return (state->pos - startPos) * SKIP_INCOMPLETE;
 318:libscpi/src/lexer.c ****     } else {
 319:libscpi/src/lexer.c ****         return (state->pos - startPos) * SKIP_OK;
 518              		.loc 1 319 9 view .LVU137
 519              		.loc 1 319 40 is_stmt 0 view .LVU138
 520 0030 4868     		ldr	r0, [r1, #4]
 521 0032 001B     		subs	r0, r0, r4
 522 0034 03E0     		b	.L41
 523              	.L45:
 312:libscpi/src/lexer.c ****         }
 524              		.loc 1 312 13 is_stmt 1 view .LVU139
 312:libscpi/src/lexer.c ****         }
 525              		.loc 1 312 23 is_stmt 0 view .LVU140
 526 0036 0133     		adds	r3, r3, #1
 527 0038 EEE7     		b	.L53
 528              	.L42:
 316:libscpi/src/lexer.c ****         return (state->pos - startPos) * SKIP_INCOMPLETE;
 529              		.loc 1 316 5 is_stmt 1 view .LVU141
 317:libscpi/src/lexer.c ****         return (state->pos - startPos) * SKIP_INCOMPLETE;
 530              		.loc 1 317 9 view .LVU142
 317:libscpi/src/lexer.c ****         return (state->pos - startPos) * SKIP_INCOMPLETE;
 531              		.loc 1 317 40 is_stmt 0 view .LVU143
 532 003a 4868     		ldr	r0, [r1, #4]
 533 003c 201A     		subs	r0, r4, r0
 534              	.L41:
 320:libscpi/src/lexer.c ****     }
 321:libscpi/src/lexer.c **** }
 535              		.loc 1 321 1 view .LVU144
 536 003e 38BD     		pop	{r3, r4, r5, pc}
 537              	.LVL34:
 538              	.L55:
 539              		.loc 1 321 1 view .LVU145
 540              		.align	2
 541              	.L54:
 542 0040 01000000 		.word	_ctype_+1
 543              		.cfi_endproc
 544              	.LFE23:
 546              		.section	.text.skipQuoteProgramData,"ax",%progbits
 547              		.align	1
 548              		.syntax unified
 549              		.thumb
 550              		.thumb_func
 551              		.fpu fpv4-sp-d16
ARM GAS  /tmp/cc1oM6Yq.s 			page 17


 553              	skipQuoteProgramData:
 554              	.LVL35:
 555              	.LFB38:
 322:libscpi/src/lexer.c **** 
 323:libscpi/src/lexer.c **** /* tokens */
 324:libscpi/src/lexer.c **** 
 325:libscpi/src/lexer.c **** /**
 326:libscpi/src/lexer.c ****  * Detect token white space
 327:libscpi/src/lexer.c ****  * @param state
 328:libscpi/src/lexer.c ****  * @param token
 329:libscpi/src/lexer.c ****  * @return 
 330:libscpi/src/lexer.c ****  */
 331:libscpi/src/lexer.c **** int scpiLex_WhiteSpace(lex_state_t * state, scpi_token_t * token) {
 332:libscpi/src/lexer.c ****     token->ptr = state->pos;
 333:libscpi/src/lexer.c **** 
 334:libscpi/src/lexer.c ****     skipWs(state);
 335:libscpi/src/lexer.c **** 
 336:libscpi/src/lexer.c ****     token->len = state->pos - token->ptr;
 337:libscpi/src/lexer.c **** 
 338:libscpi/src/lexer.c ****     if (token->len > 0) {
 339:libscpi/src/lexer.c ****         token->type = SCPI_TOKEN_WS;
 340:libscpi/src/lexer.c ****     } else {
 341:libscpi/src/lexer.c ****         token->type = SCPI_TOKEN_UNKNOWN;
 342:libscpi/src/lexer.c ****     }
 343:libscpi/src/lexer.c **** 
 344:libscpi/src/lexer.c ****     return token->len;
 345:libscpi/src/lexer.c **** }
 346:libscpi/src/lexer.c **** 
 347:libscpi/src/lexer.c **** /* 7.6.1 <COMMAND PROGRAM HEADER> */
 348:libscpi/src/lexer.c **** 
 349:libscpi/src/lexer.c **** /**
 350:libscpi/src/lexer.c ****  * Skip command program header \*<PROGRAM MNEMONIC>
 351:libscpi/src/lexer.c ****  * @param state
 352:libscpi/src/lexer.c ****  * @return 
 353:libscpi/src/lexer.c ****  */
 354:libscpi/src/lexer.c **** static int skipCommonProgramHeader(lex_state_t * state) {
 355:libscpi/src/lexer.c ****     int res;
 356:libscpi/src/lexer.c ****     if (skipStar(state)) {
 357:libscpi/src/lexer.c ****         res = skipProgramMnemonic(state);
 358:libscpi/src/lexer.c ****         if (res == SKIP_NONE && iseos(state)) {
 359:libscpi/src/lexer.c ****             return SKIP_INCOMPLETE;
 360:libscpi/src/lexer.c ****         } else if (res <= SKIP_INCOMPLETE) {
 361:libscpi/src/lexer.c ****             return SKIP_OK;
 362:libscpi/src/lexer.c ****         } else if (res >= SKIP_OK) {
 363:libscpi/src/lexer.c ****             return SKIP_OK;
 364:libscpi/src/lexer.c ****         } else {
 365:libscpi/src/lexer.c ****             return SKIP_INCOMPLETE;
 366:libscpi/src/lexer.c ****         }
 367:libscpi/src/lexer.c ****     }
 368:libscpi/src/lexer.c ****     return SKIP_NONE;
 369:libscpi/src/lexer.c **** }
 370:libscpi/src/lexer.c **** 
 371:libscpi/src/lexer.c **** /**
 372:libscpi/src/lexer.c ****  * Skip compound program header :<PROGRAM MNEMONIC>:<PROGRAM MNEMONIC>...
 373:libscpi/src/lexer.c ****  * @param state
 374:libscpi/src/lexer.c ****  * @return 
 375:libscpi/src/lexer.c ****  */
ARM GAS  /tmp/cc1oM6Yq.s 			page 18


 376:libscpi/src/lexer.c **** static int skipCompoundProgramHeader(lex_state_t * state) {
 377:libscpi/src/lexer.c ****     int res;
 378:libscpi/src/lexer.c ****     int firstColon = skipColon(state);
 379:libscpi/src/lexer.c **** 
 380:libscpi/src/lexer.c ****     res = skipProgramMnemonic(state);
 381:libscpi/src/lexer.c ****     if (res >= SKIP_OK) {
 382:libscpi/src/lexer.c ****         while (skipColon(state)) {
 383:libscpi/src/lexer.c ****             res = skipProgramMnemonic(state);
 384:libscpi/src/lexer.c ****             if (res <= SKIP_INCOMPLETE) {
 385:libscpi/src/lexer.c ****                 return SKIP_OK;
 386:libscpi/src/lexer.c ****             } else if (res == SKIP_NONE) {
 387:libscpi/src/lexer.c ****                 return SKIP_INCOMPLETE;
 388:libscpi/src/lexer.c ****             }
 389:libscpi/src/lexer.c ****         }
 390:libscpi/src/lexer.c ****         return SKIP_OK;
 391:libscpi/src/lexer.c ****     } else if (res <= SKIP_INCOMPLETE) {
 392:libscpi/src/lexer.c ****         return SKIP_OK;
 393:libscpi/src/lexer.c ****     } else if (firstColon) {
 394:libscpi/src/lexer.c ****         return SKIP_INCOMPLETE;
 395:libscpi/src/lexer.c ****     } else {
 396:libscpi/src/lexer.c ****         return SKIP_NONE;
 397:libscpi/src/lexer.c ****     }
 398:libscpi/src/lexer.c **** }
 399:libscpi/src/lexer.c **** 
 400:libscpi/src/lexer.c **** /**
 401:libscpi/src/lexer.c ****  * Detect token command or compound program header
 402:libscpi/src/lexer.c ****  * @param state
 403:libscpi/src/lexer.c ****  * @param token
 404:libscpi/src/lexer.c ****  * @return 
 405:libscpi/src/lexer.c ****  */
 406:libscpi/src/lexer.c **** int scpiLex_ProgramHeader(lex_state_t * state, scpi_token_t * token) {
 407:libscpi/src/lexer.c ****     int res;
 408:libscpi/src/lexer.c ****     token->ptr = state->pos;
 409:libscpi/src/lexer.c ****     token->type = SCPI_TOKEN_UNKNOWN;
 410:libscpi/src/lexer.c **** 
 411:libscpi/src/lexer.c ****     res = skipCommonProgramHeader(state);
 412:libscpi/src/lexer.c ****     if (res >= SKIP_OK) {
 413:libscpi/src/lexer.c ****         if (skipChr(state, '?') >= SKIP_OK) {
 414:libscpi/src/lexer.c ****             token->type = SCPI_TOKEN_COMMON_QUERY_PROGRAM_HEADER;
 415:libscpi/src/lexer.c ****         } else {
 416:libscpi/src/lexer.c ****             token->type = SCPI_TOKEN_COMMON_PROGRAM_HEADER;
 417:libscpi/src/lexer.c ****         }
 418:libscpi/src/lexer.c ****     } else if (res <= SKIP_INCOMPLETE) {
 419:libscpi/src/lexer.c ****         token->type = SCPI_TOKEN_INCOMPLETE_COMMON_PROGRAM_HEADER;
 420:libscpi/src/lexer.c ****     } else if (res == SKIP_NONE) {
 421:libscpi/src/lexer.c ****         res = skipCompoundProgramHeader(state);
 422:libscpi/src/lexer.c **** 
 423:libscpi/src/lexer.c ****         if (res >= SKIP_OK) {
 424:libscpi/src/lexer.c ****             if (skipChr(state, '?') >= SKIP_OK) {
 425:libscpi/src/lexer.c ****                 token->type = SCPI_TOKEN_COMPOUND_QUERY_PROGRAM_HEADER;
 426:libscpi/src/lexer.c ****             } else {
 427:libscpi/src/lexer.c ****                 token->type = SCPI_TOKEN_COMPOUND_PROGRAM_HEADER;
 428:libscpi/src/lexer.c ****             }
 429:libscpi/src/lexer.c ****         } else if (res <= SKIP_INCOMPLETE) {
 430:libscpi/src/lexer.c ****             token->type = SCPI_TOKEN_INCOMPLETE_COMPOUND_PROGRAM_HEADER;
 431:libscpi/src/lexer.c ****         }
 432:libscpi/src/lexer.c ****     }
ARM GAS  /tmp/cc1oM6Yq.s 			page 19


 433:libscpi/src/lexer.c **** 
 434:libscpi/src/lexer.c ****     if (token->type != SCPI_TOKEN_UNKNOWN) {
 435:libscpi/src/lexer.c ****         token->len = state->pos - token->ptr;
 436:libscpi/src/lexer.c ****     } else {
 437:libscpi/src/lexer.c ****         token->len = 0;
 438:libscpi/src/lexer.c ****         state->pos = token->ptr;
 439:libscpi/src/lexer.c ****     }
 440:libscpi/src/lexer.c **** 
 441:libscpi/src/lexer.c ****     return token->len;
 442:libscpi/src/lexer.c **** }
 443:libscpi/src/lexer.c **** 
 444:libscpi/src/lexer.c **** /* 7.7.1 <CHARACTER PROGRAM DATA> */
 445:libscpi/src/lexer.c **** 
 446:libscpi/src/lexer.c **** /**
 447:libscpi/src/lexer.c ****  * Detect token "Character program data"
 448:libscpi/src/lexer.c ****  * @param state
 449:libscpi/src/lexer.c ****  * @param token
 450:libscpi/src/lexer.c ****  * @return 
 451:libscpi/src/lexer.c ****  */
 452:libscpi/src/lexer.c **** int scpiLex_CharacterProgramData(lex_state_t * state, scpi_token_t * token) {
 453:libscpi/src/lexer.c ****     token->ptr = state->pos;
 454:libscpi/src/lexer.c **** 
 455:libscpi/src/lexer.c ****     if (!iseos(state) && isalpha((uint8_t)(state->pos[0]))) {
 456:libscpi/src/lexer.c ****         state->pos++;
 457:libscpi/src/lexer.c ****         while (!iseos(state) && (isalnum((uint8_t)(state->pos[0])) || ischr(state, '_'))) {
 458:libscpi/src/lexer.c ****             state->pos++;
 459:libscpi/src/lexer.c ****         }
 460:libscpi/src/lexer.c ****     }
 461:libscpi/src/lexer.c **** 
 462:libscpi/src/lexer.c ****     token->len = state->pos - token->ptr;
 463:libscpi/src/lexer.c ****     if (token->len > 0) {
 464:libscpi/src/lexer.c ****         token->type = SCPI_TOKEN_PROGRAM_MNEMONIC;
 465:libscpi/src/lexer.c ****     } else {
 466:libscpi/src/lexer.c ****         token->type = SCPI_TOKEN_UNKNOWN;
 467:libscpi/src/lexer.c ****     }
 468:libscpi/src/lexer.c **** 
 469:libscpi/src/lexer.c ****     return token->len;
 470:libscpi/src/lexer.c **** }
 471:libscpi/src/lexer.c **** 
 472:libscpi/src/lexer.c **** /* 7.7.2 <DECIMAL NUMERIC PROGRAM DATA> */
 473:libscpi/src/lexer.c **** static int skipMantisa(lex_state_t * state) {
 474:libscpi/src/lexer.c ****     int someNumbers = 0;
 475:libscpi/src/lexer.c **** 
 476:libscpi/src/lexer.c ****     skipPlusmn(state);
 477:libscpi/src/lexer.c **** 
 478:libscpi/src/lexer.c ****     someNumbers += skipNumbers(state);
 479:libscpi/src/lexer.c **** 
 480:libscpi/src/lexer.c ****     if (skipChr(state, '.')) {
 481:libscpi/src/lexer.c ****         someNumbers += skipNumbers(state);
 482:libscpi/src/lexer.c ****     }
 483:libscpi/src/lexer.c **** 
 484:libscpi/src/lexer.c ****     return someNumbers;
 485:libscpi/src/lexer.c **** }
 486:libscpi/src/lexer.c **** 
 487:libscpi/src/lexer.c **** static int skipExponent(lex_state_t * state) {
 488:libscpi/src/lexer.c ****     int someNumbers = 0;
 489:libscpi/src/lexer.c **** 
ARM GAS  /tmp/cc1oM6Yq.s 			page 20


 490:libscpi/src/lexer.c ****     if (!iseos(state) && isE(state->pos[0])) {
 491:libscpi/src/lexer.c ****         state->pos++;
 492:libscpi/src/lexer.c **** 
 493:libscpi/src/lexer.c ****         skipWs(state);
 494:libscpi/src/lexer.c **** 
 495:libscpi/src/lexer.c ****         skipPlusmn(state);
 496:libscpi/src/lexer.c **** 
 497:libscpi/src/lexer.c ****         someNumbers = skipNumbers(state);
 498:libscpi/src/lexer.c ****     }
 499:libscpi/src/lexer.c **** 
 500:libscpi/src/lexer.c ****     return someNumbers;
 501:libscpi/src/lexer.c **** }
 502:libscpi/src/lexer.c **** 
 503:libscpi/src/lexer.c **** /**
 504:libscpi/src/lexer.c ****  * Detect token Decimal number
 505:libscpi/src/lexer.c ****  * @param state
 506:libscpi/src/lexer.c ****  * @param token
 507:libscpi/src/lexer.c ****  * @return 
 508:libscpi/src/lexer.c ****  */
 509:libscpi/src/lexer.c **** int scpiLex_DecimalNumericProgramData(lex_state_t * state, scpi_token_t * token) {
 510:libscpi/src/lexer.c ****     char * rollback;
 511:libscpi/src/lexer.c ****     token->ptr = state->pos;
 512:libscpi/src/lexer.c **** 
 513:libscpi/src/lexer.c ****     if (skipMantisa(state)) {
 514:libscpi/src/lexer.c ****         rollback = state->pos;
 515:libscpi/src/lexer.c ****         skipWs(state);
 516:libscpi/src/lexer.c ****         if (!skipExponent(state)) {
 517:libscpi/src/lexer.c ****             state->pos = rollback;
 518:libscpi/src/lexer.c ****         }
 519:libscpi/src/lexer.c ****     } else {
 520:libscpi/src/lexer.c ****         state->pos = token->ptr;
 521:libscpi/src/lexer.c ****     }
 522:libscpi/src/lexer.c **** 
 523:libscpi/src/lexer.c ****     token->len = state->pos - token->ptr;
 524:libscpi/src/lexer.c ****     if (token->len > 0) {
 525:libscpi/src/lexer.c ****         token->type = SCPI_TOKEN_DECIMAL_NUMERIC_PROGRAM_DATA;
 526:libscpi/src/lexer.c ****     } else {
 527:libscpi/src/lexer.c ****         token->type = SCPI_TOKEN_UNKNOWN;
 528:libscpi/src/lexer.c ****     }
 529:libscpi/src/lexer.c **** 
 530:libscpi/src/lexer.c ****     return token->len;
 531:libscpi/src/lexer.c **** }
 532:libscpi/src/lexer.c **** 
 533:libscpi/src/lexer.c **** /* 7.7.3 <SUFFIX PROGRAM DATA> */
 534:libscpi/src/lexer.c **** int scpiLex_SuffixProgramData(lex_state_t * state, scpi_token_t * token) {
 535:libscpi/src/lexer.c ****     token->ptr = state->pos;
 536:libscpi/src/lexer.c **** 
 537:libscpi/src/lexer.c ****     skipChr(state, '/');
 538:libscpi/src/lexer.c **** 
 539:libscpi/src/lexer.c ****     /* TODO: strict parsing  : SLASH? (ALPHA+ (MINUS? DIGIT)?) ((SLASH | DOT) (ALPHA+ (MINUS? DIGIT
 540:libscpi/src/lexer.c ****     if (skipAlpha(state)) {
 541:libscpi/src/lexer.c ****         skipChr(state, '-');
 542:libscpi/src/lexer.c ****         skipDigit(state);
 543:libscpi/src/lexer.c **** 
 544:libscpi/src/lexer.c ****         while (skipSlashDot(state)) {
 545:libscpi/src/lexer.c ****             skipAlpha(state);
 546:libscpi/src/lexer.c ****             skipChr(state, '-');
ARM GAS  /tmp/cc1oM6Yq.s 			page 21


 547:libscpi/src/lexer.c ****             skipDigit(state);
 548:libscpi/src/lexer.c ****         }
 549:libscpi/src/lexer.c ****     }
 550:libscpi/src/lexer.c **** 
 551:libscpi/src/lexer.c ****     token->len = state->pos - token->ptr;
 552:libscpi/src/lexer.c ****     if ((token->len > 0)) {
 553:libscpi/src/lexer.c ****         token->type = SCPI_TOKEN_SUFFIX_PROGRAM_DATA;
 554:libscpi/src/lexer.c ****     } else {
 555:libscpi/src/lexer.c ****         token->type = SCPI_TOKEN_UNKNOWN;
 556:libscpi/src/lexer.c ****         state->pos = token->ptr;
 557:libscpi/src/lexer.c ****         token->len = 0;
 558:libscpi/src/lexer.c ****     }
 559:libscpi/src/lexer.c **** 
 560:libscpi/src/lexer.c ****     return token->len;
 561:libscpi/src/lexer.c **** }
 562:libscpi/src/lexer.c **** 
 563:libscpi/src/lexer.c **** /* 7.7.4 <NONDECIMAL NUMERIC PROGRAM DATA> */
 564:libscpi/src/lexer.c **** static int skipHexNum(lex_state_t * state) {
 565:libscpi/src/lexer.c ****     int someNumbers = 0;
 566:libscpi/src/lexer.c ****     while (!iseos(state) && isxdigit((uint8_t)(state->pos[0]))) {
 567:libscpi/src/lexer.c ****         state->pos++;
 568:libscpi/src/lexer.c ****         someNumbers++;
 569:libscpi/src/lexer.c ****     }
 570:libscpi/src/lexer.c ****     return someNumbers;
 571:libscpi/src/lexer.c **** }
 572:libscpi/src/lexer.c **** 
 573:libscpi/src/lexer.c **** static int skipOctNum(lex_state_t * state) {
 574:libscpi/src/lexer.c ****     int someNumbers = 0;
 575:libscpi/src/lexer.c ****     while (!iseos(state) && isqdigit(state->pos[0])) {
 576:libscpi/src/lexer.c ****         state->pos++;
 577:libscpi/src/lexer.c ****         someNumbers++;
 578:libscpi/src/lexer.c ****     }
 579:libscpi/src/lexer.c ****     return someNumbers;
 580:libscpi/src/lexer.c **** }
 581:libscpi/src/lexer.c **** 
 582:libscpi/src/lexer.c **** static int skipBinNum(lex_state_t * state) {
 583:libscpi/src/lexer.c ****     int someNumbers = 0;
 584:libscpi/src/lexer.c ****     while (!iseos(state) && isbdigit(state->pos[0])) {
 585:libscpi/src/lexer.c ****         state->pos++;
 586:libscpi/src/lexer.c ****         someNumbers++;
 587:libscpi/src/lexer.c ****     }
 588:libscpi/src/lexer.c ****     return someNumbers;
 589:libscpi/src/lexer.c **** }
 590:libscpi/src/lexer.c **** 
 591:libscpi/src/lexer.c **** /**
 592:libscpi/src/lexer.c ****  * Detect token nondecimal number
 593:libscpi/src/lexer.c ****  * @param state
 594:libscpi/src/lexer.c ****  * @param token
 595:libscpi/src/lexer.c ****  * @return 
 596:libscpi/src/lexer.c ****  */
 597:libscpi/src/lexer.c **** int scpiLex_NondecimalNumericData(lex_state_t * state, scpi_token_t * token) {
 598:libscpi/src/lexer.c ****     int someNumbers = 0;
 599:libscpi/src/lexer.c ****     token->ptr = state->pos;
 600:libscpi/src/lexer.c ****     if (skipChr(state, '#')) {
 601:libscpi/src/lexer.c ****         if (!iseos(state)) {
 602:libscpi/src/lexer.c ****             if (isH(state->pos[0])) {
 603:libscpi/src/lexer.c ****                 state->pos++;
ARM GAS  /tmp/cc1oM6Yq.s 			page 22


 604:libscpi/src/lexer.c ****                 someNumbers = skipHexNum(state);
 605:libscpi/src/lexer.c ****                 token->type = SCPI_TOKEN_HEXNUM;
 606:libscpi/src/lexer.c ****             } else if (isQ(state->pos[0])) {
 607:libscpi/src/lexer.c ****                 state->pos++;
 608:libscpi/src/lexer.c ****                 someNumbers = skipOctNum(state);
 609:libscpi/src/lexer.c ****                 token->type = SCPI_TOKEN_OCTNUM;
 610:libscpi/src/lexer.c ****             } else if (isB(state->pos[0])) {
 611:libscpi/src/lexer.c ****                 state->pos++;
 612:libscpi/src/lexer.c ****                 someNumbers = skipBinNum(state);
 613:libscpi/src/lexer.c ****                 token->type = SCPI_TOKEN_BINNUM;
 614:libscpi/src/lexer.c ****             }
 615:libscpi/src/lexer.c ****         }
 616:libscpi/src/lexer.c ****     }
 617:libscpi/src/lexer.c **** 
 618:libscpi/src/lexer.c ****     if (someNumbers) {
 619:libscpi/src/lexer.c ****         token->ptr += 2; /* ignore number prefix */
 620:libscpi/src/lexer.c ****         token->len = state->pos - token->ptr;
 621:libscpi/src/lexer.c ****     } else {
 622:libscpi/src/lexer.c ****         token->type = SCPI_TOKEN_UNKNOWN;
 623:libscpi/src/lexer.c ****         state->pos = token->ptr;
 624:libscpi/src/lexer.c ****         token->len = 0;
 625:libscpi/src/lexer.c ****     }
 626:libscpi/src/lexer.c ****     return token->len > 0 ? token->len + 2 : 0;
 627:libscpi/src/lexer.c **** }
 628:libscpi/src/lexer.c **** 
 629:libscpi/src/lexer.c **** /* 7.7.5 <STRING PROGRAM DATA> */
 630:libscpi/src/lexer.c **** static int isascii7bit(int c) {
 631:libscpi/src/lexer.c ****     return (c >= 0) && (c <= 0x7f);
 632:libscpi/src/lexer.c **** }
 633:libscpi/src/lexer.c **** 
 634:libscpi/src/lexer.c **** static void skipQuoteProgramData(lex_state_t * state, char quote) {
 556              		.loc 1 634 67 is_stmt 1 view -0
 557              		.cfi_startproc
 558              		@ args = 0, pretend = 0, frame = 0
 559              		@ frame_needed = 0, uses_anonymous_args = 0
 560              		.loc 1 634 67 is_stmt 0 view .LVU147
 561 0000 38B5     		push	{r3, r4, r5, lr}
 562              	.LCFI7:
 563              		.cfi_def_cfa_offset 16
 564              		.cfi_offset 3, -16
 565              		.cfi_offset 4, -12
 566              		.cfi_offset 5, -8
 567              		.cfi_offset 14, -4
 568 0002 0446     		mov	r4, r0
 635:libscpi/src/lexer.c ****     while (!iseos(state)) {
 569              		.loc 1 635 5 is_stmt 1 view .LVU148
 570              	.LVL36:
 571              	.L57:
 572              		.loc 1 635 11 view .LVU149
 573              		.loc 1 635 13 is_stmt 0 view .LVU150
 574 0004 2046     		mov	r0, r4
 575 0006 FFF7FEFF 		bl	iseos
 576              	.LVL37:
 577              		.loc 1 635 11 view .LVU151
 578 000a A0B9     		cbnz	r0, .L56
 636:libscpi/src/lexer.c ****         if (isascii7bit(state->pos[0]) && !ischr(state, quote)) {
 579              		.loc 1 636 9 is_stmt 1 view .LVU152
ARM GAS  /tmp/cc1oM6Yq.s 			page 23


 580              		.loc 1 636 30 is_stmt 0 view .LVU153
 581 000c 6568     		ldr	r5, [r4, #4]
 582              		.loc 1 636 12 view .LVU154
 583 000e 95F90030 		ldrsb	r3, [r5]
 584              		.loc 1 636 35 view .LVU155
 585 0012 2A78     		ldrb	r2, [r5]	@ zero_extendqisi2
 586              	.LVL38:
 631:libscpi/src/lexer.c **** }
 587              		.loc 1 631 5 is_stmt 1 view .LVU156
 588              		.loc 1 636 12 is_stmt 0 view .LVU157
 589 0014 002B     		cmp	r3, #0
 590 0016 0EDB     		blt	.L56
 591              	.LVL39:
 110:libscpi/src/lexer.c **** }
 592              		.loc 1 110 5 is_stmt 1 discriminator 1 view .LVU158
 110:libscpi/src/lexer.c **** }
 593              		.loc 1 110 5 is_stmt 0 discriminator 1 view .LVU159
 594 0018 6B1C     		adds	r3, r5, #1
 595              		.loc 1 636 40 discriminator 1 view .LVU160
 596 001a 8A42     		cmp	r2, r1
 637:libscpi/src/lexer.c ****             state->pos++;
 597              		.loc 1 637 23 discriminator 1 view .LVU161
 598 001c 6360     		str	r3, [r4, #4]
 636:libscpi/src/lexer.c ****             state->pos++;
 599              		.loc 1 636 40 discriminator 1 view .LVU162
 600 001e F1D1     		bne	.L57
 638:libscpi/src/lexer.c ****         } else if (ischr(state, quote)) {
 601              		.loc 1 638 16 is_stmt 1 view .LVU163
 602              	.LVL40:
 110:libscpi/src/lexer.c **** }
 603              		.loc 1 110 5 view .LVU164
 639:libscpi/src/lexer.c ****             state->pos++;
 604              		.loc 1 639 13 view .LVU165
 640:libscpi/src/lexer.c ****             if (!iseos(state) && ischr(state, quote)) {
 605              		.loc 1 640 13 view .LVU166
 606              		.loc 1 640 18 is_stmt 0 view .LVU167
 607 0020 2046     		mov	r0, r4
 608 0022 FFF7FEFF 		bl	iseos
 609              	.LVL41:
 610              		.loc 1 640 16 view .LVU168
 611 0026 28B9     		cbnz	r0, .L61
 612              	.LVL42:
 613              	.LBB50:
 614              	.LBI50:
 109:libscpi/src/lexer.c ****     return (state->pos[0] == chr);
 615              		.loc 1 109 12 is_stmt 1 discriminator 1 view .LVU169
 616              	.LBB51:
 110:libscpi/src/lexer.c **** }
 617              		.loc 1 110 5 discriminator 1 view .LVU170
 110:libscpi/src/lexer.c **** }
 618              		.loc 1 110 5 is_stmt 0 discriminator 1 view .LVU171
 619              	.LBE51:
 620              	.LBE50:
 621              		.loc 1 640 31 discriminator 1 view .LVU172
 622 0028 6B78     		ldrb	r3, [r5, #1]	@ zero_extendqisi2
 623 002a 8B42     		cmp	r3, r1
 624 002c 02D1     		bne	.L61
ARM GAS  /tmp/cc1oM6Yq.s 			page 24


 641:libscpi/src/lexer.c ****                 state->pos++;
 625              		.loc 1 641 17 is_stmt 1 view .LVU173
 626              		.loc 1 641 27 is_stmt 0 view .LVU174
 627 002e 0235     		adds	r5, r5, #2
 628 0030 6560     		str	r5, [r4, #4]
 629 0032 E7E7     		b	.L57
 630              	.L61:
 642:libscpi/src/lexer.c ****             } else {
 643:libscpi/src/lexer.c ****                 state->pos--;
 631              		.loc 1 643 17 is_stmt 1 view .LVU175
 632              		.loc 1 643 27 is_stmt 0 view .LVU176
 633 0034 6560     		str	r5, [r4, #4]
 644:libscpi/src/lexer.c ****                 break;
 634              		.loc 1 644 17 is_stmt 1 view .LVU177
 635              	.L56:
 645:libscpi/src/lexer.c ****             }
 646:libscpi/src/lexer.c ****         } else {
 647:libscpi/src/lexer.c ****             break;
 648:libscpi/src/lexer.c ****         }
 649:libscpi/src/lexer.c ****     }
 650:libscpi/src/lexer.c **** }
 636              		.loc 1 650 1 is_stmt 0 view .LVU178
 637 0036 38BD     		pop	{r3, r4, r5, pc}
 638              		.loc 1 650 1 view .LVU179
 639              		.cfi_endproc
 640              	.LFE38:
 642              		.section	.text.scpiLex_IsEos,"ax",%progbits
 643              		.align	1
 644              		.global	scpiLex_IsEos
 645              		.hidden	scpiLex_IsEos
 646              		.syntax unified
 647              		.thumb
 648              		.thumb_func
 649              		.fpu fpv4-sp-d16
 651              	scpiLex_IsEos:
 652              	.LVL43:
 653              	.LFB7:
  99:libscpi/src/lexer.c ****     return iseos(state);
 654              		.loc 1 99 40 is_stmt 1 view -0
 655              		.cfi_startproc
 656              		@ args = 0, pretend = 0, frame = 0
 657              		@ frame_needed = 0, uses_anonymous_args = 0
 658              		@ link register save eliminated.
 100:libscpi/src/lexer.c **** }
 659              		.loc 1 100 5 view .LVU181
 100:libscpi/src/lexer.c **** }
 660              		.loc 1 100 12 is_stmt 0 view .LVU182
 661 0000 FFF7FEBF 		b	iseos
 662              	.LVL44:
 100:libscpi/src/lexer.c **** }
 663              		.loc 1 100 12 view .LVU183
 664              		.cfi_endproc
 665              	.LFE7:
 667              		.section	.text.scpiLex_WhiteSpace,"ax",%progbits
 668              		.align	1
 669              		.global	scpiLex_WhiteSpace
 670              		.hidden	scpiLex_WhiteSpace
ARM GAS  /tmp/cc1oM6Yq.s 			page 25


 671              		.syntax unified
 672              		.thumb
 673              		.thumb_func
 674              		.fpu fpv4-sp-d16
 676              	scpiLex_WhiteSpace:
 677              	.LVL45:
 678              	.LFB24:
 331:libscpi/src/lexer.c ****     token->ptr = state->pos;
 679              		.loc 1 331 67 is_stmt 1 view -0
 680              		.cfi_startproc
 681              		@ args = 0, pretend = 0, frame = 0
 682              		@ frame_needed = 0, uses_anonymous_args = 0
 332:libscpi/src/lexer.c **** 
 683              		.loc 1 332 5 view .LVU185
 331:libscpi/src/lexer.c ****     token->ptr = state->pos;
 684              		.loc 1 331 67 is_stmt 0 view .LVU186
 685 0000 38B5     		push	{r3, r4, r5, lr}
 686              	.LCFI8:
 687              		.cfi_def_cfa_offset 16
 688              		.cfi_offset 3, -16
 689              		.cfi_offset 4, -12
 690              		.cfi_offset 5, -8
 691              		.cfi_offset 14, -4
 331:libscpi/src/lexer.c ****     token->ptr = state->pos;
 692              		.loc 1 331 67 view .LVU187
 693 0002 0C46     		mov	r4, r1
 332:libscpi/src/lexer.c **** 
 694              		.loc 1 332 16 view .LVU188
 695 0004 4368     		ldr	r3, [r0, #4]
 696 0006 4B60     		str	r3, [r1, #4]
 334:libscpi/src/lexer.c **** 
 697              		.loc 1 334 5 is_stmt 1 view .LVU189
 331:libscpi/src/lexer.c ****     token->ptr = state->pos;
 698              		.loc 1 331 67 is_stmt 0 view .LVU190
 699 0008 0546     		mov	r5, r0
 334:libscpi/src/lexer.c **** 
 700              		.loc 1 334 5 view .LVU191
 701 000a FFF7FEFF 		bl	skipWs
 702              	.LVL46:
 336:libscpi/src/lexer.c **** 
 703              		.loc 1 336 5 is_stmt 1 view .LVU192
 336:libscpi/src/lexer.c **** 
 704              		.loc 1 336 29 is_stmt 0 view .LVU193
 705 000e 6368     		ldr	r3, [r4, #4]
 706 0010 6868     		ldr	r0, [r5, #4]
 707 0012 C01A     		subs	r0, r0, r3
 338:libscpi/src/lexer.c ****         token->type = SCPI_TOKEN_WS;
 708              		.loc 1 338 8 view .LVU194
 709 0014 0028     		cmp	r0, #0
 339:libscpi/src/lexer.c ****     } else {
 710              		.loc 1 339 21 view .LVU195
 711 0016 D4BF     		ite	le
 712 0018 1A23     		movle	r3, #26
 713 001a 1723     		movgt	r3, #23
 336:libscpi/src/lexer.c **** 
 714              		.loc 1 336 16 view .LVU196
 715 001c A060     		str	r0, [r4, #8]
ARM GAS  /tmp/cc1oM6Yq.s 			page 26


 338:libscpi/src/lexer.c ****         token->type = SCPI_TOKEN_WS;
 716              		.loc 1 338 5 is_stmt 1 view .LVU197
 717 001e 2370     		strb	r3, [r4]
 344:libscpi/src/lexer.c **** }
 718              		.loc 1 344 5 view .LVU198
 345:libscpi/src/lexer.c **** 
 719              		.loc 1 345 1 is_stmt 0 view .LVU199
 720 0020 38BD     		pop	{r3, r4, r5, pc}
 345:libscpi/src/lexer.c **** 
 721              		.loc 1 345 1 view .LVU200
 722              		.cfi_endproc
 723              	.LFE24:
 725              		.section	.text.scpiLex_ProgramHeader,"ax",%progbits
 726              		.align	1
 727              		.global	scpiLex_ProgramHeader
 728              		.hidden	scpiLex_ProgramHeader
 729              		.syntax unified
 730              		.thumb
 731              		.thumb_func
 732              		.fpu fpv4-sp-d16
 734              	scpiLex_ProgramHeader:
 735              	.LVL47:
 736              	.LFB27:
 406:libscpi/src/lexer.c ****     int res;
 737              		.loc 1 406 70 is_stmt 1 view -0
 738              		.cfi_startproc
 739              		@ args = 0, pretend = 0, frame = 0
 740              		@ frame_needed = 0, uses_anonymous_args = 0
 407:libscpi/src/lexer.c ****     token->ptr = state->pos;
 741              		.loc 1 407 5 view .LVU202
 408:libscpi/src/lexer.c ****     token->type = SCPI_TOKEN_UNKNOWN;
 742              		.loc 1 408 5 view .LVU203
 408:libscpi/src/lexer.c ****     token->type = SCPI_TOKEN_UNKNOWN;
 743              		.loc 1 408 16 is_stmt 0 view .LVU204
 744 0000 4368     		ldr	r3, [r0, #4]
 406:libscpi/src/lexer.c ****     int res;
 745              		.loc 1 406 70 view .LVU205
 746 0002 70B5     		push	{r4, r5, r6, lr}
 747              	.LCFI9:
 748              		.cfi_def_cfa_offset 16
 749              		.cfi_offset 4, -16
 750              		.cfi_offset 5, -12
 751              		.cfi_offset 6, -8
 752              		.cfi_offset 14, -4
 408:libscpi/src/lexer.c ****     token->type = SCPI_TOKEN_UNKNOWN;
 753              		.loc 1 408 16 view .LVU206
 754 0004 4B60     		str	r3, [r1, #4]
 409:libscpi/src/lexer.c **** 
 755              		.loc 1 409 5 is_stmt 1 view .LVU207
 409:libscpi/src/lexer.c **** 
 756              		.loc 1 409 17 is_stmt 0 view .LVU208
 757 0006 1A23     		movs	r3, #26
 758 0008 0B70     		strb	r3, [r1]
 411:libscpi/src/lexer.c ****     if (res >= SKIP_OK) {
 759              		.loc 1 411 5 is_stmt 1 view .LVU209
 406:libscpi/src/lexer.c ****     int res;
 760              		.loc 1 406 70 is_stmt 0 view .LVU210
ARM GAS  /tmp/cc1oM6Yq.s 			page 27


 761 000a 0546     		mov	r5, r0
 762              	.LVL48:
 763              	.LBB68:
 764              	.LBI68:
 354:libscpi/src/lexer.c ****     int res;
 765              		.loc 1 354 12 is_stmt 1 view .LVU211
 766              	.LBB69:
 355:libscpi/src/lexer.c ****     if (skipStar(state)) {
 767              		.loc 1 355 5 view .LVU212
 356:libscpi/src/lexer.c ****         res = skipProgramMnemonic(state);
 768              		.loc 1 356 5 view .LVU213
 769              	.LBB70:
 770              	.LBI70:
 277:libscpi/src/lexer.c ****     if (!iseos(state) && ischr(state, '*')) {
 771              		.loc 1 277 12 view .LVU214
 772              	.LBB71:
 278:libscpi/src/lexer.c ****         state->pos++;
 773              		.loc 1 278 5 view .LVU215
 774              	.LBE71:
 775              	.LBE70:
 776              	.LBE69:
 777              	.LBE68:
 406:libscpi/src/lexer.c ****     int res;
 778              		.loc 1 406 70 is_stmt 0 view .LVU216
 779 000c 0C46     		mov	r4, r1
 780              	.LBB77:
 781              	.LBB76:
 782              	.LBB75:
 783              	.LBB74:
 278:libscpi/src/lexer.c ****         state->pos++;
 784              		.loc 1 278 10 view .LVU217
 785 000e FFF7FEFF 		bl	iseos
 786              	.LVL49:
 278:libscpi/src/lexer.c ****         state->pos++;
 787              		.loc 1 278 8 view .LVU218
 788 0012 0646     		mov	r6, r0
 789 0014 68BB     		cbnz	r0, .L81
 278:libscpi/src/lexer.c ****         state->pos++;
 790              		.loc 1 278 26 view .LVU219
 791 0016 6B68     		ldr	r3, [r5, #4]
 792              	.LVL50:
 793              	.LBB72:
 794              	.LBI72:
 109:libscpi/src/lexer.c ****     return (state->pos[0] == chr);
 795              		.loc 1 109 12 is_stmt 1 view .LVU220
 796              	.LBB73:
 110:libscpi/src/lexer.c **** }
 797              		.loc 1 110 5 view .LVU221
 110:libscpi/src/lexer.c **** }
 798              		.loc 1 110 5 is_stmt 0 view .LVU222
 799              	.LBE73:
 800              	.LBE72:
 278:libscpi/src/lexer.c ****         state->pos++;
 801              		.loc 1 278 23 view .LVU223
 802 0018 1A78     		ldrb	r2, [r3]	@ zero_extendqisi2
 803 001a 2A2A     		cmp	r2, #42
 804 001c 15D1     		bne	.L69
ARM GAS  /tmp/cc1oM6Yq.s 			page 28


 279:libscpi/src/lexer.c ****         return SKIP_OK;
 805              		.loc 1 279 9 is_stmt 1 view .LVU224
 279:libscpi/src/lexer.c ****         return SKIP_OK;
 806              		.loc 1 279 19 is_stmt 0 view .LVU225
 807 001e 0133     		adds	r3, r3, #1
 808 0020 6B60     		str	r3, [r5, #4]
 280:libscpi/src/lexer.c ****     } else {
 809              		.loc 1 280 9 is_stmt 1 view .LVU226
 810              	.LVL51:
 280:libscpi/src/lexer.c ****     } else {
 811              		.loc 1 280 9 is_stmt 0 view .LVU227
 812              	.LBE74:
 813              	.LBE75:
 357:libscpi/src/lexer.c ****         if (res == SKIP_NONE && iseos(state)) {
 814              		.loc 1 357 9 is_stmt 1 view .LVU228
 357:libscpi/src/lexer.c ****         if (res == SKIP_NONE && iseos(state)) {
 815              		.loc 1 357 15 is_stmt 0 view .LVU229
 816 0022 2846     		mov	r0, r5
 817 0024 FFF7FEFF 		bl	skipProgramMnemonic
 818              	.LVL52:
 358:libscpi/src/lexer.c ****             return SKIP_INCOMPLETE;
 819              		.loc 1 358 9 is_stmt 1 view .LVU230
 358:libscpi/src/lexer.c ****             return SKIP_INCOMPLETE;
 820              		.loc 1 358 12 is_stmt 0 view .LVU231
 821 0028 30B9     		cbnz	r0, .L70
 822              	.LVL53:
 358:libscpi/src/lexer.c ****             return SKIP_INCOMPLETE;
 823              		.loc 1 358 12 view .LVU232
 824              	.LBE76:
 825              	.LBE77:
 418:libscpi/src/lexer.c ****         token->type = SCPI_TOKEN_INCOMPLETE_COMMON_PROGRAM_HEADER;
 826              		.loc 1 418 12 is_stmt 1 view .LVU233
 419:libscpi/src/lexer.c ****     } else if (res == SKIP_NONE) {
 827              		.loc 1 419 9 view .LVU234
 419:libscpi/src/lexer.c ****     } else if (res == SKIP_NONE) {
 828              		.loc 1 419 21 is_stmt 0 view .LVU235
 829 002a 1423     		movs	r3, #20
 830              	.LVL54:
 831              	.L87:
 427:libscpi/src/lexer.c ****             }
 832              		.loc 1 427 29 view .LVU236
 833 002c 2370     		strb	r3, [r4]
 834              	.L71:
 434:libscpi/src/lexer.c ****         token->len = state->pos - token->ptr;
 835              		.loc 1 434 5 is_stmt 1 view .LVU237
 435:libscpi/src/lexer.c ****     } else {
 836              		.loc 1 435 9 view .LVU238
 435:libscpi/src/lexer.c ****     } else {
 837              		.loc 1 435 33 is_stmt 0 view .LVU239
 838 002e 6B68     		ldr	r3, [r5, #4]
 839 0030 6268     		ldr	r2, [r4, #4]
 840 0032 9B1A     		subs	r3, r3, r2
 435:libscpi/src/lexer.c ****     } else {
 841              		.loc 1 435 20 view .LVU240
 842 0034 A360     		str	r3, [r4, #8]
 843 0036 1AE0     		b	.L80
 844              	.LVL55:
ARM GAS  /tmp/cc1oM6Yq.s 			page 29


 845              	.L70:
 413:libscpi/src/lexer.c ****             token->type = SCPI_TOKEN_COMMON_QUERY_PROGRAM_HEADER;
 846              		.loc 1 413 9 is_stmt 1 view .LVU241
 413:libscpi/src/lexer.c ****             token->type = SCPI_TOKEN_COMMON_QUERY_PROGRAM_HEADER;
 847              		.loc 1 413 13 is_stmt 0 view .LVU242
 848 0038 3F21     		movs	r1, #63
 849 003a 2846     		mov	r0, r5
 850 003c FFF7FEFF 		bl	skipChr
 851              	.LVL56:
 413:libscpi/src/lexer.c ****             token->type = SCPI_TOKEN_COMMON_QUERY_PROGRAM_HEADER;
 852              		.loc 1 413 12 view .LVU243
 853 0040 0028     		cmp	r0, #0
 414:libscpi/src/lexer.c ****         } else {
 854              		.loc 1 414 13 is_stmt 1 view .LVU244
 414:libscpi/src/lexer.c ****         } else {
 855              		.loc 1 414 25 is_stmt 0 view .LVU245
 856 0042 CCBF     		ite	gt
 857 0044 1623     		movgt	r3, #22
 416:libscpi/src/lexer.c ****         }
 858              		.loc 1 416 13 is_stmt 1 view .LVU246
 416:libscpi/src/lexer.c ****         }
 859              		.loc 1 416 25 is_stmt 0 view .LVU247
 860 0046 1323     		movle	r3, #19
 861 0048 F0E7     		b	.L87
 862              	.LVL57:
 863              	.L69:
 418:libscpi/src/lexer.c ****         token->type = SCPI_TOKEN_INCOMPLETE_COMMON_PROGRAM_HEADER;
 864              		.loc 1 418 12 is_stmt 1 view .LVU248
 420:libscpi/src/lexer.c ****         res = skipCompoundProgramHeader(state);
 865              		.loc 1 420 12 view .LVU249
 421:libscpi/src/lexer.c **** 
 866              		.loc 1 421 9 view .LVU250
 867              	.LBB78:
 868              	.LBI78:
 376:libscpi/src/lexer.c ****     int res;
 869              		.loc 1 376 12 view .LVU251
 870              	.LBB79:
 377:libscpi/src/lexer.c ****     int firstColon = skipColon(state);
 871              		.loc 1 377 5 view .LVU252
 378:libscpi/src/lexer.c **** 
 872              		.loc 1 378 5 view .LVU253
 873              	.LBB80:
 874              	.LBI80:
 291:libscpi/src/lexer.c ****     if (!iseos(state) && ischr(state, ':')) {
 875              		.loc 1 291 12 view .LVU254
 876              	.LBB81:
 292:libscpi/src/lexer.c ****         state->pos++;
 877              		.loc 1 292 5 view .LVU255
 878              	.LBB82:
 879              	.LBI82:
 109:libscpi/src/lexer.c ****     return (state->pos[0] == chr);
 880              		.loc 1 109 12 view .LVU256
 881              	.LBB83:
 110:libscpi/src/lexer.c **** }
 882              		.loc 1 110 5 view .LVU257
 110:libscpi/src/lexer.c **** }
 883              		.loc 1 110 5 is_stmt 0 view .LVU258
ARM GAS  /tmp/cc1oM6Yq.s 			page 30


 884              	.LBE83:
 885              	.LBE82:
 292:libscpi/src/lexer.c ****         state->pos++;
 886              		.loc 1 292 23 view .LVU259
 887 004a 3A2A     		cmp	r2, #58
 888 004c 02D1     		bne	.L68
 293:libscpi/src/lexer.c ****         return SKIP_OK;
 889              		.loc 1 293 9 is_stmt 1 view .LVU260
 293:libscpi/src/lexer.c ****         return SKIP_OK;
 890              		.loc 1 293 19 is_stmt 0 view .LVU261
 891 004e 0133     		adds	r3, r3, #1
 892 0050 6B60     		str	r3, [r5, #4]
 294:libscpi/src/lexer.c ****     } else {
 893              		.loc 1 294 9 is_stmt 1 view .LVU262
 294:libscpi/src/lexer.c ****     } else {
 894              		.loc 1 294 16 is_stmt 0 view .LVU263
 895 0052 0126     		movs	r6, #1
 896              	.LVL58:
 897              	.L68:
 294:libscpi/src/lexer.c ****     } else {
 898              		.loc 1 294 16 view .LVU264
 899              	.LBE81:
 900              	.LBE80:
 380:libscpi/src/lexer.c ****     if (res >= SKIP_OK) {
 901              		.loc 1 380 5 is_stmt 1 view .LVU265
 380:libscpi/src/lexer.c ****     if (res >= SKIP_OK) {
 902              		.loc 1 380 11 is_stmt 0 view .LVU266
 903 0054 2846     		mov	r0, r5
 904 0056 FFF7FEFF 		bl	skipProgramMnemonic
 905              	.LVL59:
 381:libscpi/src/lexer.c ****         while (skipColon(state)) {
 906              		.loc 1 381 5 is_stmt 1 view .LVU267
 381:libscpi/src/lexer.c ****         while (skipColon(state)) {
 907              		.loc 1 381 8 is_stmt 0 view .LVU268
 908 005a 0028     		cmp	r0, #0
 909 005c 0CDC     		bgt	.L73
 391:libscpi/src/lexer.c ****         return SKIP_OK;
 910              		.loc 1 391 12 is_stmt 1 view .LVU269
 391:libscpi/src/lexer.c ****         return SKIP_OK;
 911              		.loc 1 391 15 is_stmt 0 view .LVU270
 912 005e 1AD1     		bne	.L76
 393:libscpi/src/lexer.c ****         return SKIP_INCOMPLETE;
 913              		.loc 1 393 12 is_stmt 1 view .LVU271
 914 0060 6368     		ldr	r3, [r4, #4]
 393:libscpi/src/lexer.c ****         return SKIP_INCOMPLETE;
 915              		.loc 1 393 15 is_stmt 0 view .LVU272
 916 0062 0EBB     		cbnz	r6, .L75
 917              	.LVL60:
 393:libscpi/src/lexer.c ****         return SKIP_INCOMPLETE;
 918              		.loc 1 393 15 view .LVU273
 919              	.LBE79:
 920              	.LBE78:
 434:libscpi/src/lexer.c ****         token->len = state->pos - token->ptr;
 921              		.loc 1 434 5 is_stmt 1 view .LVU274
 434:libscpi/src/lexer.c ****         token->len = state->pos - token->ptr;
 922              		.loc 1 434 8 is_stmt 0 view .LVU275
 923 0064 2278     		ldrb	r2, [r4]	@ zero_extendqisi2
ARM GAS  /tmp/cc1oM6Yq.s 			page 31


 924 0066 1A2A     		cmp	r2, #26
 925 0068 E1D1     		bne	.L71
 437:libscpi/src/lexer.c ****         state->pos = token->ptr;
 926              		.loc 1 437 9 is_stmt 1 view .LVU276
 437:libscpi/src/lexer.c ****         state->pos = token->ptr;
 927              		.loc 1 437 20 is_stmt 0 view .LVU277
 928 006a A660     		str	r6, [r4, #8]
 438:libscpi/src/lexer.c ****     }
 929              		.loc 1 438 9 is_stmt 1 view .LVU278
 438:libscpi/src/lexer.c ****     }
 930              		.loc 1 438 20 is_stmt 0 view .LVU279
 931 006c 6B60     		str	r3, [r5, #4]
 932              	.L80:
 441:libscpi/src/lexer.c **** }
 933              		.loc 1 441 5 is_stmt 1 view .LVU280
 441:libscpi/src/lexer.c **** }
 934              		.loc 1 441 17 is_stmt 0 view .LVU281
 935 006e A068     		ldr	r0, [r4, #8]
 442:libscpi/src/lexer.c **** 
 936              		.loc 1 442 1 view .LVU282
 937 0070 70BD     		pop	{r4, r5, r6, pc}
 938              	.LVL61:
 939              	.L81:
 940              	.LBB91:
 941              	.LBB90:
 942              	.LBB85:
 943              	.LBB84:
 296:libscpi/src/lexer.c ****     }
 944              		.loc 1 296 16 view .LVU283
 945 0072 0026     		movs	r6, #0
 946 0074 EEE7     		b	.L68
 947              	.LVL62:
 948              	.L84:
 296:libscpi/src/lexer.c ****     }
 949              		.loc 1 296 16 view .LVU284
 950              	.LBE84:
 951              	.LBE85:
 386:libscpi/src/lexer.c ****                 return SKIP_INCOMPLETE;
 952              		.loc 1 386 20 is_stmt 1 view .LVU285
 386:libscpi/src/lexer.c ****                 return SKIP_INCOMPLETE;
 953              		.loc 1 386 23 is_stmt 0 view .LVU286
 954 0076 17D0     		beq	.L75
 955              	.LVL63:
 956              	.L73:
 382:libscpi/src/lexer.c ****             res = skipProgramMnemonic(state);
 957              		.loc 1 382 15 is_stmt 1 view .LVU287
 958              	.LBB86:
 959              	.LBI86:
 291:libscpi/src/lexer.c ****     if (!iseos(state) && ischr(state, ':')) {
 960              		.loc 1 291 12 view .LVU288
 961              	.LBB87:
 292:libscpi/src/lexer.c ****         state->pos++;
 962              		.loc 1 292 5 view .LVU289
 292:libscpi/src/lexer.c ****         state->pos++;
 963              		.loc 1 292 10 is_stmt 0 view .LVU290
 964 0078 2846     		mov	r0, r5
 965              	.LVL64:
ARM GAS  /tmp/cc1oM6Yq.s 			page 32


 292:libscpi/src/lexer.c ****         state->pos++;
 966              		.loc 1 292 10 view .LVU291
 967 007a FFF7FEFF 		bl	iseos
 968              	.LVL65:
 292:libscpi/src/lexer.c ****         state->pos++;
 969              		.loc 1 292 8 view .LVU292
 970 007e 50B9     		cbnz	r0, .L76
 292:libscpi/src/lexer.c ****         state->pos++;
 971              		.loc 1 292 26 view .LVU293
 972 0080 6B68     		ldr	r3, [r5, #4]
 973              	.LVL66:
 974              	.LBB88:
 975              	.LBI88:
 109:libscpi/src/lexer.c ****     return (state->pos[0] == chr);
 976              		.loc 1 109 12 is_stmt 1 view .LVU294
 977              	.LBB89:
 110:libscpi/src/lexer.c **** }
 978              		.loc 1 110 5 view .LVU295
 110:libscpi/src/lexer.c **** }
 979              		.loc 1 110 5 is_stmt 0 view .LVU296
 980              	.LBE89:
 981              	.LBE88:
 292:libscpi/src/lexer.c ****         state->pos++;
 982              		.loc 1 292 23 view .LVU297
 983 0082 1A78     		ldrb	r2, [r3]	@ zero_extendqisi2
 984 0084 3A2A     		cmp	r2, #58
 985 0086 06D1     		bne	.L76
 293:libscpi/src/lexer.c ****         return SKIP_OK;
 986              		.loc 1 293 9 is_stmt 1 view .LVU298
 293:libscpi/src/lexer.c ****         return SKIP_OK;
 987              		.loc 1 293 19 is_stmt 0 view .LVU299
 988 0088 0133     		adds	r3, r3, #1
 989 008a 6B60     		str	r3, [r5, #4]
 294:libscpi/src/lexer.c ****     } else {
 990              		.loc 1 294 9 is_stmt 1 view .LVU300
 991              	.LVL67:
 294:libscpi/src/lexer.c ****     } else {
 992              		.loc 1 294 9 is_stmt 0 view .LVU301
 993              	.LBE87:
 994              	.LBE86:
 383:libscpi/src/lexer.c ****             if (res <= SKIP_INCOMPLETE) {
 995              		.loc 1 383 13 is_stmt 1 view .LVU302
 383:libscpi/src/lexer.c ****             if (res <= SKIP_INCOMPLETE) {
 996              		.loc 1 383 19 is_stmt 0 view .LVU303
 997 008c 2846     		mov	r0, r5
 998 008e FFF7FEFF 		bl	skipProgramMnemonic
 999              	.LVL68:
 384:libscpi/src/lexer.c ****                 return SKIP_OK;
 1000              		.loc 1 384 13 is_stmt 1 view .LVU304
 384:libscpi/src/lexer.c ****                 return SKIP_OK;
 1001              		.loc 1 384 16 is_stmt 0 view .LVU305
 1002 0092 0028     		cmp	r0, #0
 1003 0094 EFDA     		bge	.L84
 1004              	.LVL69:
 1005              	.L76:
 384:libscpi/src/lexer.c ****                 return SKIP_OK;
 1006              		.loc 1 384 16 view .LVU306
ARM GAS  /tmp/cc1oM6Yq.s 			page 33


 1007              	.LBE90:
 1008              	.LBE91:
 424:libscpi/src/lexer.c ****                 token->type = SCPI_TOKEN_COMPOUND_QUERY_PROGRAM_HEADER;
 1009              		.loc 1 424 13 is_stmt 1 view .LVU307
 424:libscpi/src/lexer.c ****                 token->type = SCPI_TOKEN_COMPOUND_QUERY_PROGRAM_HEADER;
 1010              		.loc 1 424 17 is_stmt 0 view .LVU308
 1011 0096 3F21     		movs	r1, #63
 1012 0098 2846     		mov	r0, r5
 1013 009a FFF7FEFF 		bl	skipChr
 1014              	.LVL70:
 424:libscpi/src/lexer.c ****                 token->type = SCPI_TOKEN_COMPOUND_QUERY_PROGRAM_HEADER;
 1015              		.loc 1 424 16 view .LVU309
 1016 009e 0028     		cmp	r0, #0
 425:libscpi/src/lexer.c ****             } else {
 1017              		.loc 1 425 17 is_stmt 1 view .LVU310
 425:libscpi/src/lexer.c ****             } else {
 1018              		.loc 1 425 29 is_stmt 0 view .LVU311
 1019 00a0 CCBF     		ite	gt
 1020 00a2 1523     		movgt	r3, #21
 427:libscpi/src/lexer.c ****             }
 1021              		.loc 1 427 17 is_stmt 1 view .LVU312
 427:libscpi/src/lexer.c ****             }
 1022              		.loc 1 427 29 is_stmt 0 view .LVU313
 1023 00a4 1123     		movle	r3, #17
 1024 00a6 C1E7     		b	.L87
 1025              	.LVL71:
 1026              	.L75:
 430:libscpi/src/lexer.c ****         }
 1027              		.loc 1 430 13 is_stmt 1 view .LVU314
 430:libscpi/src/lexer.c ****         }
 1028              		.loc 1 430 25 is_stmt 0 view .LVU315
 1029 00a8 1223     		movs	r3, #18
 1030 00aa BFE7     		b	.L87
 1031              		.cfi_endproc
 1032              	.LFE27:
 1034              		.section	.text.scpiLex_CharacterProgramData,"ax",%progbits
 1035              		.align	1
 1036              		.global	scpiLex_CharacterProgramData
 1037              		.hidden	scpiLex_CharacterProgramData
 1038              		.syntax unified
 1039              		.thumb
 1040              		.thumb_func
 1041              		.fpu fpv4-sp-d16
 1043              	scpiLex_CharacterProgramData:
 1044              	.LVL72:
 1045              	.LFB28:
 452:libscpi/src/lexer.c ****     token->ptr = state->pos;
 1046              		.loc 1 452 77 is_stmt 1 view -0
 1047              		.cfi_startproc
 1048              		@ args = 0, pretend = 0, frame = 0
 1049              		@ frame_needed = 0, uses_anonymous_args = 0
 453:libscpi/src/lexer.c **** 
 1050              		.loc 1 453 5 view .LVU317
 452:libscpi/src/lexer.c ****     token->ptr = state->pos;
 1051              		.loc 1 452 77 is_stmt 0 view .LVU318
 1052 0000 70B5     		push	{r4, r5, r6, lr}
 1053              	.LCFI10:
ARM GAS  /tmp/cc1oM6Yq.s 			page 34


 1054              		.cfi_def_cfa_offset 16
 1055              		.cfi_offset 4, -16
 1056              		.cfi_offset 5, -12
 1057              		.cfi_offset 6, -8
 1058              		.cfi_offset 14, -4
 453:libscpi/src/lexer.c **** 
 1059              		.loc 1 453 23 view .LVU319
 1060 0002 4568     		ldr	r5, [r0, #4]
 453:libscpi/src/lexer.c **** 
 1061              		.loc 1 453 16 view .LVU320
 1062 0004 4D60     		str	r5, [r1, #4]
 455:libscpi/src/lexer.c ****         state->pos++;
 1063              		.loc 1 455 5 is_stmt 1 view .LVU321
 452:libscpi/src/lexer.c ****     token->ptr = state->pos;
 1064              		.loc 1 452 77 is_stmt 0 view .LVU322
 1065 0006 0446     		mov	r4, r0
 455:libscpi/src/lexer.c ****         state->pos++;
 1066              		.loc 1 455 10 view .LVU323
 1067 0008 FFF7FEFF 		bl	iseos
 1068              	.LVL73:
 455:libscpi/src/lexer.c ****         state->pos++;
 1069              		.loc 1 455 8 view .LVU324
 1070 000c 88B9     		cbnz	r0, .L91
 455:libscpi/src/lexer.c ****         state->pos++;
 1071              		.loc 1 455 26 discriminator 1 view .LVU325
 1072 000e 2A78     		ldrb	r2, [r5]	@ zero_extendqisi2
 1073 0010 0D4E     		ldr	r6, .L103
 455:libscpi/src/lexer.c ****         state->pos++;
 1074              		.loc 1 455 23 discriminator 1 view .LVU326
 1075 0012 925D     		ldrb	r2, [r2, r6]	@ zero_extendqisi2
 1076 0014 9207     		lsls	r2, r2, #30
 1077 0016 0CD0     		beq	.L91
 456:libscpi/src/lexer.c ****         while (!iseos(state) && (isalnum((uint8_t)(state->pos[0])) || ischr(state, '_'))) {
 1078              		.loc 1 456 9 is_stmt 1 view .LVU327
 456:libscpi/src/lexer.c ****         while (!iseos(state) && (isalnum((uint8_t)(state->pos[0])) || ischr(state, '_'))) {
 1079              		.loc 1 456 19 is_stmt 0 view .LVU328
 1080 0018 6B1C     		adds	r3, r5, #1
 1081              	.L102:
 458:libscpi/src/lexer.c ****         }
 1082              		.loc 1 458 23 view .LVU329
 1083 001a 6360     		str	r3, [r4, #4]
 457:libscpi/src/lexer.c ****             state->pos++;
 1084              		.loc 1 457 15 is_stmt 1 view .LVU330
 457:libscpi/src/lexer.c ****             state->pos++;
 1085              		.loc 1 457 17 is_stmt 0 view .LVU331
 1086 001c 2046     		mov	r0, r4
 1087 001e FFF7FEFF 		bl	iseos
 1088              	.LVL74:
 1089 0022 6368     		ldr	r3, [r4, #4]
 457:libscpi/src/lexer.c ****             state->pos++;
 1090              		.loc 1 457 15 view .LVU332
 1091 0024 28B9     		cbnz	r0, .L91
 457:libscpi/src/lexer.c ****             state->pos++;
 1092              		.loc 1 457 34 discriminator 1 view .LVU333
 1093 0026 1A78     		ldrb	r2, [r3]	@ zero_extendqisi2
 457:libscpi/src/lexer.c ****             state->pos++;
 1094              		.loc 1 457 30 discriminator 1 view .LVU334
ARM GAS  /tmp/cc1oM6Yq.s 			page 35


 1095 0028 B05C     		ldrb	r0, [r6, r2]	@ zero_extendqisi2
 1096 002a 4007     		lsls	r0, r0, #29
 1097 002c 0AD1     		bne	.L93
 1098              	.LVL75:
 110:libscpi/src/lexer.c **** }
 1099              		.loc 1 110 5 is_stmt 1 discriminator 2 view .LVU335
 457:libscpi/src/lexer.c ****             state->pos++;
 1100              		.loc 1 457 68 is_stmt 0 discriminator 2 view .LVU336
 1101 002e 5F2A     		cmp	r2, #95
 1102 0030 08D0     		beq	.L93
 1103              	.L91:
 462:libscpi/src/lexer.c ****     if (token->len > 0) {
 1104              		.loc 1 462 5 is_stmt 1 view .LVU337
 462:libscpi/src/lexer.c ****     if (token->len > 0) {
 1105              		.loc 1 462 29 is_stmt 0 view .LVU338
 1106 0032 6068     		ldr	r0, [r4, #4]
 1107 0034 401B     		subs	r0, r0, r5
 464:libscpi/src/lexer.c ****     } else {
 1108              		.loc 1 464 21 view .LVU339
 1109 0036 0028     		cmp	r0, #0
 1110 0038 D4BF     		ite	le
 1111 003a 1A23     		movle	r3, #26
 1112 003c 0923     		movgt	r3, #9
 462:libscpi/src/lexer.c ****     if (token->len > 0) {
 1113              		.loc 1 462 16 view .LVU340
 1114 003e 8860     		str	r0, [r1, #8]
 463:libscpi/src/lexer.c ****         token->type = SCPI_TOKEN_PROGRAM_MNEMONIC;
 1115              		.loc 1 463 5 is_stmt 1 view .LVU341
 1116 0040 0B70     		strb	r3, [r1]
 469:libscpi/src/lexer.c **** }
 1117              		.loc 1 469 5 view .LVU342
 470:libscpi/src/lexer.c **** 
 1118              		.loc 1 470 1 is_stmt 0 view .LVU343
 1119 0042 70BD     		pop	{r4, r5, r6, pc}
 1120              	.LVL76:
 1121              	.L93:
 458:libscpi/src/lexer.c ****         }
 1122              		.loc 1 458 13 is_stmt 1 view .LVU344
 458:libscpi/src/lexer.c ****         }
 1123              		.loc 1 458 23 is_stmt 0 view .LVU345
 1124 0044 0133     		adds	r3, r3, #1
 1125 0046 E8E7     		b	.L102
 1126              	.L104:
 1127              		.align	2
 1128              	.L103:
 1129 0048 01000000 		.word	_ctype_+1
 1130              		.cfi_endproc
 1131              	.LFE28:
 1133              		.section	.text.scpiLex_DecimalNumericProgramData,"ax",%progbits
 1134              		.align	1
 1135              		.global	scpiLex_DecimalNumericProgramData
 1136              		.hidden	scpiLex_DecimalNumericProgramData
 1137              		.syntax unified
 1138              		.thumb
 1139              		.thumb_func
 1140              		.fpu fpv4-sp-d16
 1142              	scpiLex_DecimalNumericProgramData:
ARM GAS  /tmp/cc1oM6Yq.s 			page 36


 1143              	.LVL77:
 1144              	.LFB31:
 509:libscpi/src/lexer.c ****     char * rollback;
 1145              		.loc 1 509 82 is_stmt 1 view -0
 1146              		.cfi_startproc
 1147              		@ args = 0, pretend = 0, frame = 0
 1148              		@ frame_needed = 0, uses_anonymous_args = 0
 510:libscpi/src/lexer.c ****     token->ptr = state->pos;
 1149              		.loc 1 510 5 view .LVU347
 511:libscpi/src/lexer.c **** 
 1150              		.loc 1 511 5 view .LVU348
 511:libscpi/src/lexer.c **** 
 1151              		.loc 1 511 16 is_stmt 0 view .LVU349
 1152 0000 4368     		ldr	r3, [r0, #4]
 509:libscpi/src/lexer.c ****     char * rollback;
 1153              		.loc 1 509 82 view .LVU350
 1154 0002 70B5     		push	{r4, r5, r6, lr}
 1155              	.LCFI11:
 1156              		.cfi_def_cfa_offset 16
 1157              		.cfi_offset 4, -16
 1158              		.cfi_offset 5, -12
 1159              		.cfi_offset 6, -8
 1160              		.cfi_offset 14, -4
 509:libscpi/src/lexer.c ****     char * rollback;
 1161              		.loc 1 509 82 view .LVU351
 1162 0004 0446     		mov	r4, r0
 511:libscpi/src/lexer.c **** 
 1163              		.loc 1 511 16 view .LVU352
 1164 0006 4B60     		str	r3, [r1, #4]
 513:libscpi/src/lexer.c ****         rollback = state->pos;
 1165              		.loc 1 513 5 is_stmt 1 view .LVU353
 1166              	.LVL78:
 1167              	.LBB98:
 1168              	.LBI98:
 473:libscpi/src/lexer.c ****     int someNumbers = 0;
 1169              		.loc 1 473 12 view .LVU354
 1170              	.LBB99:
 474:libscpi/src/lexer.c **** 
 1171              		.loc 1 474 5 view .LVU355
 476:libscpi/src/lexer.c **** 
 1172              		.loc 1 476 5 view .LVU356
 1173              	.LBE99:
 1174              	.LBE98:
 509:libscpi/src/lexer.c ****     char * rollback;
 1175              		.loc 1 509 82 is_stmt 0 view .LVU357
 1176 0008 0D46     		mov	r5, r1
 1177              	.LBB101:
 1178              	.LBB100:
 476:libscpi/src/lexer.c **** 
 1179              		.loc 1 476 5 view .LVU358
 1180 000a FFF7FEFF 		bl	skipPlusmn
 1181              	.LVL79:
 478:libscpi/src/lexer.c **** 
 1182              		.loc 1 478 5 is_stmt 1 view .LVU359
 478:libscpi/src/lexer.c **** 
 1183              		.loc 1 478 20 is_stmt 0 view .LVU360
 1184 000e 2046     		mov	r0, r4
ARM GAS  /tmp/cc1oM6Yq.s 			page 37


 1185 0010 FFF7FEFF 		bl	skipNumbers
 1186              	.LVL80:
 480:libscpi/src/lexer.c ****         someNumbers += skipNumbers(state);
 1187              		.loc 1 480 9 view .LVU361
 1188 0014 2E21     		movs	r1, #46
 478:libscpi/src/lexer.c **** 
 1189              		.loc 1 478 20 view .LVU362
 1190 0016 0646     		mov	r6, r0
 1191              	.LVL81:
 480:libscpi/src/lexer.c ****         someNumbers += skipNumbers(state);
 1192              		.loc 1 480 5 is_stmt 1 view .LVU363
 480:libscpi/src/lexer.c ****         someNumbers += skipNumbers(state);
 1193              		.loc 1 480 9 is_stmt 0 view .LVU364
 1194 0018 2046     		mov	r0, r4
 1195              	.LVL82:
 480:libscpi/src/lexer.c ****         someNumbers += skipNumbers(state);
 1196              		.loc 1 480 9 view .LVU365
 1197 001a FFF7FEFF 		bl	skipChr
 1198              	.LVL83:
 480:libscpi/src/lexer.c ****         someNumbers += skipNumbers(state);
 1199              		.loc 1 480 8 view .LVU366
 1200 001e 18B1     		cbz	r0, .L106
 481:libscpi/src/lexer.c ****     }
 1201              		.loc 1 481 9 is_stmt 1 view .LVU367
 481:libscpi/src/lexer.c ****     }
 1202              		.loc 1 481 24 is_stmt 0 view .LVU368
 1203 0020 2046     		mov	r0, r4
 1204 0022 FFF7FEFF 		bl	skipNumbers
 1205              	.LVL84:
 481:libscpi/src/lexer.c ****     }
 1206              		.loc 1 481 21 view .LVU369
 1207 0026 0644     		add	r6, r6, r0
 1208              	.LVL85:
 1209              	.L106:
 484:libscpi/src/lexer.c **** }
 1210              		.loc 1 484 5 is_stmt 1 view .LVU370
 484:libscpi/src/lexer.c **** }
 1211              		.loc 1 484 5 is_stmt 0 view .LVU371
 1212              	.LBE100:
 1213              	.LBE101:
 513:libscpi/src/lexer.c ****         rollback = state->pos;
 1214              		.loc 1 513 8 view .LVU372
 1215 0028 36B3     		cbz	r6, .L107
 514:libscpi/src/lexer.c ****         skipWs(state);
 1216              		.loc 1 514 9 is_stmt 1 view .LVU373
 515:libscpi/src/lexer.c ****         if (!skipExponent(state)) {
 1217              		.loc 1 515 9 is_stmt 0 view .LVU374
 1218 002a 2046     		mov	r0, r4
 514:libscpi/src/lexer.c ****         skipWs(state);
 1219              		.loc 1 514 18 view .LVU375
 1220 002c 6668     		ldr	r6, [r4, #4]
 1221              	.LVL86:
 515:libscpi/src/lexer.c ****         if (!skipExponent(state)) {
 1222              		.loc 1 515 9 is_stmt 1 view .LVU376
 1223 002e FFF7FEFF 		bl	skipWs
 1224              	.LVL87:
 516:libscpi/src/lexer.c ****             state->pos = rollback;
ARM GAS  /tmp/cc1oM6Yq.s 			page 38


 1225              		.loc 1 516 9 view .LVU377
 1226              	.LBB102:
 1227              	.LBI102:
 487:libscpi/src/lexer.c ****     int someNumbers = 0;
 1228              		.loc 1 487 12 view .LVU378
 1229              	.LBB103:
 488:libscpi/src/lexer.c **** 
 1230              		.loc 1 488 5 view .LVU379
 490:libscpi/src/lexer.c ****         state->pos++;
 1231              		.loc 1 490 5 view .LVU380
 490:libscpi/src/lexer.c ****         state->pos++;
 1232              		.loc 1 490 10 is_stmt 0 view .LVU381
 1233 0032 2046     		mov	r0, r4
 1234 0034 FFF7FEFF 		bl	iseos
 1235              	.LVL88:
 490:libscpi/src/lexer.c ****         state->pos++;
 1236              		.loc 1 490 8 view .LVU382
 1237 0038 50B1     		cbz	r0, .L108
 1238              	.LVL89:
 1239              	.L110:
 490:libscpi/src/lexer.c ****         state->pos++;
 1240              		.loc 1 490 8 view .LVU383
 1241              	.LBE103:
 1242              	.LBE102:
 517:libscpi/src/lexer.c ****         }
 1243              		.loc 1 517 13 is_stmt 1 view .LVU384
 517:libscpi/src/lexer.c ****         }
 1244              		.loc 1 517 24 is_stmt 0 view .LVU385
 1245 003a 6660     		str	r6, [r4, #4]
 1246              	.LVL90:
 1247              	.L109:
 523:libscpi/src/lexer.c ****     if (token->len > 0) {
 1248              		.loc 1 523 5 is_stmt 1 view .LVU386
 523:libscpi/src/lexer.c ****     if (token->len > 0) {
 1249              		.loc 1 523 29 is_stmt 0 view .LVU387
 1250 003c 6B68     		ldr	r3, [r5, #4]
 1251 003e 6068     		ldr	r0, [r4, #4]
 1252 0040 C01A     		subs	r0, r0, r3
 525:libscpi/src/lexer.c ****     } else {
 1253              		.loc 1 525 21 view .LVU388
 1254 0042 0028     		cmp	r0, #0
 1255 0044 D4BF     		ite	le
 1256 0046 1A23     		movle	r3, #26
 1257 0048 0A23     		movgt	r3, #10
 523:libscpi/src/lexer.c ****     if (token->len > 0) {
 1258              		.loc 1 523 16 view .LVU389
 1259 004a A860     		str	r0, [r5, #8]
 524:libscpi/src/lexer.c ****         token->type = SCPI_TOKEN_DECIMAL_NUMERIC_PROGRAM_DATA;
 1260              		.loc 1 524 5 is_stmt 1 view .LVU390
 1261 004c 2B70     		strb	r3, [r5]
 530:libscpi/src/lexer.c **** }
 1262              		.loc 1 530 5 view .LVU391
 531:libscpi/src/lexer.c **** 
 1263              		.loc 1 531 1 is_stmt 0 view .LVU392
 1264 004e 70BD     		pop	{r4, r5, r6, pc}
 1265              	.LVL91:
 1266              	.L108:
ARM GAS  /tmp/cc1oM6Yq.s 			page 39


 1267              	.LBB107:
 1268              	.LBB106:
 490:libscpi/src/lexer.c ****         state->pos++;
 1269              		.loc 1 490 35 view .LVU393
 1270 0050 6368     		ldr	r3, [r4, #4]
 1271              	.LVL92:
 1272              	.LBB104:
 1273              	.LBI104:
 154:libscpi/src/lexer.c ****     return c == 'e' || c == 'E';
 1274              		.loc 1 154 12 is_stmt 1 view .LVU394
 1275              	.LBB105:
 155:libscpi/src/lexer.c **** }
 1276              		.loc 1 155 5 view .LVU395
 155:libscpi/src/lexer.c **** }
 1277              		.loc 1 155 21 is_stmt 0 view .LVU396
 1278 0052 1A78     		ldrb	r2, [r3]	@ zero_extendqisi2
 1279              	.LVL93:
 155:libscpi/src/lexer.c **** }
 1280              		.loc 1 155 21 view .LVU397
 1281 0054 02F0DF02 		and	r2, r2, #223
 1282              	.LVL94:
 155:libscpi/src/lexer.c **** }
 1283              		.loc 1 155 21 view .LVU398
 1284 0058 452A     		cmp	r2, #69
 1285 005a EED1     		bne	.L110
 1286              	.LVL95:
 155:libscpi/src/lexer.c **** }
 1287              		.loc 1 155 21 view .LVU399
 1288              	.LBE105:
 1289              	.LBE104:
 491:libscpi/src/lexer.c **** 
 1290              		.loc 1 491 9 is_stmt 1 view .LVU400
 491:libscpi/src/lexer.c **** 
 1291              		.loc 1 491 19 is_stmt 0 view .LVU401
 1292 005c 0133     		adds	r3, r3, #1
 1293 005e 6360     		str	r3, [r4, #4]
 493:libscpi/src/lexer.c **** 
 1294              		.loc 1 493 9 is_stmt 1 view .LVU402
 1295 0060 2046     		mov	r0, r4
 1296 0062 FFF7FEFF 		bl	skipWs
 1297              	.LVL96:
 495:libscpi/src/lexer.c **** 
 1298              		.loc 1 495 9 view .LVU403
 1299 0066 2046     		mov	r0, r4
 1300 0068 FFF7FEFF 		bl	skipPlusmn
 1301              	.LVL97:
 497:libscpi/src/lexer.c ****     }
 1302              		.loc 1 497 9 view .LVU404
 497:libscpi/src/lexer.c ****     }
 1303              		.loc 1 497 23 is_stmt 0 view .LVU405
 1304 006c 2046     		mov	r0, r4
 1305 006e FFF7FEFF 		bl	skipNumbers
 1306              	.LVL98:
 500:libscpi/src/lexer.c **** }
 1307              		.loc 1 500 5 is_stmt 1 view .LVU406
 500:libscpi/src/lexer.c **** }
 1308              		.loc 1 500 5 is_stmt 0 view .LVU407
ARM GAS  /tmp/cc1oM6Yq.s 			page 40


 1309              	.LBE106:
 1310              	.LBE107:
 516:libscpi/src/lexer.c ****             state->pos = rollback;
 1311              		.loc 1 516 12 view .LVU408
 1312 0072 0028     		cmp	r0, #0
 1313 0074 E2D1     		bne	.L109
 1314 0076 E0E7     		b	.L110
 1315              	.LVL99:
 1316              	.L107:
 520:libscpi/src/lexer.c ****     }
 1317              		.loc 1 520 9 is_stmt 1 view .LVU409
 520:libscpi/src/lexer.c ****     }
 1318              		.loc 1 520 20 is_stmt 0 view .LVU410
 1319 0078 6B68     		ldr	r3, [r5, #4]
 1320 007a 6360     		str	r3, [r4, #4]
 1321 007c DEE7     		b	.L109
 1322              		.cfi_endproc
 1323              	.LFE31:
 1325              		.section	.text.scpiLex_SuffixProgramData,"ax",%progbits
 1326              		.align	1
 1327              		.global	scpiLex_SuffixProgramData
 1328              		.hidden	scpiLex_SuffixProgramData
 1329              		.syntax unified
 1330              		.thumb
 1331              		.thumb_func
 1332              		.fpu fpv4-sp-d16
 1334              	scpiLex_SuffixProgramData:
 1335              	.LVL100:
 1336              	.LFB32:
 534:libscpi/src/lexer.c ****     token->ptr = state->pos;
 1337              		.loc 1 534 74 is_stmt 1 view -0
 1338              		.cfi_startproc
 1339              		@ args = 0, pretend = 0, frame = 0
 1340              		@ frame_needed = 0, uses_anonymous_args = 0
 535:libscpi/src/lexer.c **** 
 1341              		.loc 1 535 5 view .LVU412
 534:libscpi/src/lexer.c ****     token->ptr = state->pos;
 1342              		.loc 1 534 74 is_stmt 0 view .LVU413
 1343 0000 38B5     		push	{r3, r4, r5, lr}
 1344              	.LCFI12:
 1345              		.cfi_def_cfa_offset 16
 1346              		.cfi_offset 3, -16
 1347              		.cfi_offset 4, -12
 1348              		.cfi_offset 5, -8
 1349              		.cfi_offset 14, -4
 535:libscpi/src/lexer.c **** 
 1350              		.loc 1 535 16 view .LVU414
 1351 0002 4368     		ldr	r3, [r0, #4]
 1352 0004 4B60     		str	r3, [r1, #4]
 537:libscpi/src/lexer.c **** 
 1353              		.loc 1 537 5 is_stmt 1 view .LVU415
 534:libscpi/src/lexer.c ****     token->ptr = state->pos;
 1354              		.loc 1 534 74 is_stmt 0 view .LVU416
 1355 0006 0446     		mov	r4, r0
 1356 0008 0D46     		mov	r5, r1
 537:libscpi/src/lexer.c **** 
 1357              		.loc 1 537 5 view .LVU417
ARM GAS  /tmp/cc1oM6Yq.s 			page 41


 1358 000a 2F21     		movs	r1, #47
 1359              	.LVL101:
 537:libscpi/src/lexer.c **** 
 1360              		.loc 1 537 5 view .LVU418
 1361 000c FFF7FEFF 		bl	skipChr
 1362              	.LVL102:
 540:libscpi/src/lexer.c ****         skipChr(state, '-');
 1363              		.loc 1 540 5 is_stmt 1 view .LVU419
 540:libscpi/src/lexer.c ****         skipChr(state, '-');
 1364              		.loc 1 540 9 is_stmt 0 view .LVU420
 1365 0010 2046     		mov	r0, r4
 1366 0012 FFF7FEFF 		bl	skipAlpha
 1367              	.LVL103:
 540:libscpi/src/lexer.c ****         skipChr(state, '-');
 1368              		.loc 1 540 8 view .LVU421
 1369 0016 A8B1     		cbz	r0, .L120
 1370              	.L127:
 541:libscpi/src/lexer.c ****         skipDigit(state);
 1371              		.loc 1 541 9 is_stmt 1 view .LVU422
 1372 0018 2D21     		movs	r1, #45
 1373 001a 2046     		mov	r0, r4
 1374 001c FFF7FEFF 		bl	skipChr
 1375              	.LVL104:
 542:libscpi/src/lexer.c **** 
 1376              		.loc 1 542 9 view .LVU423
 1377 0020 2046     		mov	r0, r4
 1378 0022 FFF7FEFF 		bl	skipDigit
 1379              	.LVL105:
 544:libscpi/src/lexer.c ****             skipAlpha(state);
 1380              		.loc 1 544 9 view .LVU424
 544:libscpi/src/lexer.c ****             skipAlpha(state);
 1381              		.loc 1 544 15 view .LVU425
 1382              	.LBB114:
 1383              	.LBI114:
 263:libscpi/src/lexer.c ****     if (!iseos(state) && (ischr(state, '/') | ischr(state, '.'))) {
 1384              		.loc 1 263 12 view .LVU426
 1385              	.LBB115:
 264:libscpi/src/lexer.c ****         state->pos++;
 1386              		.loc 1 264 5 view .LVU427
 264:libscpi/src/lexer.c ****         state->pos++;
 1387              		.loc 1 264 10 is_stmt 0 view .LVU428
 1388 0026 2046     		mov	r0, r4
 1389 0028 FFF7FEFF 		bl	iseos
 1390              	.LVL106:
 264:libscpi/src/lexer.c ****         state->pos++;
 1391              		.loc 1 264 8 view .LVU429
 1392 002c 50B9     		cbnz	r0, .L120
 1393 002e 6368     		ldr	r3, [r4, #4]
 1394              	.LVL107:
 1395              	.LBB116:
 1396              	.LBI116:
 109:libscpi/src/lexer.c ****     return (state->pos[0] == chr);
 1397              		.loc 1 109 12 is_stmt 1 view .LVU430
 1398              	.LBB117:
 110:libscpi/src/lexer.c **** }
 1399              		.loc 1 110 5 view .LVU431
 110:libscpi/src/lexer.c **** }
ARM GAS  /tmp/cc1oM6Yq.s 			page 42


 1400              		.loc 1 110 5 is_stmt 0 view .LVU432
 1401              	.LBE117:
 1402              	.LBE116:
 1403              	.LBB118:
 1404              	.LBI118:
 109:libscpi/src/lexer.c ****     return (state->pos[0] == chr);
 1405              		.loc 1 109 12 is_stmt 1 view .LVU433
 1406              	.LBB119:
 110:libscpi/src/lexer.c **** }
 1407              		.loc 1 110 5 view .LVU434
 110:libscpi/src/lexer.c **** }
 1408              		.loc 1 110 27 is_stmt 0 view .LVU435
 1409 0030 1A78     		ldrb	r2, [r3]	@ zero_extendqisi2
 1410              	.LBE119:
 1411              	.LBE118:
 264:libscpi/src/lexer.c ****         state->pos++;
 1412              		.loc 1 264 23 view .LVU436
 1413 0032 2E3A     		subs	r2, r2, #46
 1414 0034 012A     		cmp	r2, #1
 1415 0036 05D8     		bhi	.L120
 265:libscpi/src/lexer.c ****         return SKIP_OK;
 1416              		.loc 1 265 9 is_stmt 1 view .LVU437
 265:libscpi/src/lexer.c ****         return SKIP_OK;
 1417              		.loc 1 265 19 is_stmt 0 view .LVU438
 1418 0038 0133     		adds	r3, r3, #1
 1419 003a 6360     		str	r3, [r4, #4]
 266:libscpi/src/lexer.c ****     } else {
 1420              		.loc 1 266 9 is_stmt 1 view .LVU439
 1421              	.LVL108:
 266:libscpi/src/lexer.c ****     } else {
 1422              		.loc 1 266 9 is_stmt 0 view .LVU440
 1423              	.LBE115:
 1424              	.LBE114:
 545:libscpi/src/lexer.c ****             skipChr(state, '-');
 1425              		.loc 1 545 13 is_stmt 1 view .LVU441
 1426 003c 2046     		mov	r0, r4
 1427 003e FFF7FEFF 		bl	skipAlpha
 1428              	.LVL109:
 546:libscpi/src/lexer.c ****             skipDigit(state);
 1429              		.loc 1 546 13 view .LVU442
 1430 0042 E9E7     		b	.L127
 1431              	.LVL110:
 1432              	.L120:
 551:libscpi/src/lexer.c ****     if ((token->len > 0)) {
 1433              		.loc 1 551 5 view .LVU443
 551:libscpi/src/lexer.c ****     if ((token->len > 0)) {
 1434              		.loc 1 551 29 is_stmt 0 view .LVU444
 1435 0044 6368     		ldr	r3, [r4, #4]
 551:libscpi/src/lexer.c ****     if ((token->len > 0)) {
 1436              		.loc 1 551 36 view .LVU445
 1437 0046 6A68     		ldr	r2, [r5, #4]
 551:libscpi/src/lexer.c ****     if ((token->len > 0)) {
 1438              		.loc 1 551 29 view .LVU446
 1439 0048 9B1A     		subs	r3, r3, r2
 552:libscpi/src/lexer.c ****         token->type = SCPI_TOKEN_SUFFIX_PROGRAM_DATA;
 1440              		.loc 1 552 8 view .LVU447
 1441 004a 002B     		cmp	r3, #0
ARM GAS  /tmp/cc1oM6Yq.s 			page 43


 551:libscpi/src/lexer.c ****     if ((token->len > 0)) {
 1442              		.loc 1 551 16 view .LVU448
 1443 004c AB60     		str	r3, [r5, #8]
 552:libscpi/src/lexer.c ****         token->type = SCPI_TOKEN_SUFFIX_PROGRAM_DATA;
 1444              		.loc 1 552 5 is_stmt 1 view .LVU449
 553:libscpi/src/lexer.c ****     } else {
 1445              		.loc 1 553 9 view .LVU450
 555:libscpi/src/lexer.c ****         state->pos = token->ptr;
 1446              		.loc 1 555 21 is_stmt 0 view .LVU451
 1447 004e DDBF     		ittte	le
 1448 0050 1A23     		movle	r3, #26
 1449 0052 2B70     		strble	r3, [r5]
 557:libscpi/src/lexer.c ****     }
 1450              		.loc 1 557 20 view .LVU452
 1451 0054 0023     		movle	r3, #0
 553:libscpi/src/lexer.c ****     } else {
 1452              		.loc 1 553 21 view .LVU453
 1453 0056 0C23     		movgt	r3, #12
 556:libscpi/src/lexer.c ****         token->len = 0;
 1454              		.loc 1 556 20 view .LVU454
 1455 0058 DCBF     		itt	le
 1456 005a 6260     		strle	r2, [r4, #4]
 557:libscpi/src/lexer.c ****     }
 1457              		.loc 1 557 20 view .LVU455
 1458 005c AB60     		strle	r3, [r5, #8]
 561:libscpi/src/lexer.c **** 
 1459              		.loc 1 561 1 view .LVU456
 1460 005e A868     		ldr	r0, [r5, #8]
 553:libscpi/src/lexer.c ****     } else {
 1461              		.loc 1 553 21 view .LVU457
 1462 0060 C8BF     		it	gt
 1463 0062 2B70     		strbgt	r3, [r5]
 555:libscpi/src/lexer.c ****         state->pos = token->ptr;
 1464              		.loc 1 555 9 is_stmt 1 view .LVU458
 556:libscpi/src/lexer.c ****         token->len = 0;
 1465              		.loc 1 556 9 view .LVU459
 557:libscpi/src/lexer.c ****     }
 1466              		.loc 1 557 9 view .LVU460
 560:libscpi/src/lexer.c **** }
 1467              		.loc 1 560 5 view .LVU461
 561:libscpi/src/lexer.c **** 
 1468              		.loc 1 561 1 is_stmt 0 view .LVU462
 1469 0064 38BD     		pop	{r3, r4, r5, pc}
 561:libscpi/src/lexer.c **** 
 1470              		.loc 1 561 1 view .LVU463
 1471              		.cfi_endproc
 1472              	.LFE32:
 1474              		.section	.text.scpiLex_NondecimalNumericData,"ax",%progbits
 1475              		.align	1
 1476              		.global	scpiLex_NondecimalNumericData
 1477              		.hidden	scpiLex_NondecimalNumericData
 1478              		.syntax unified
 1479              		.thumb
 1480              		.thumb_func
 1481              		.fpu fpv4-sp-d16
 1483              	scpiLex_NondecimalNumericData:
 1484              	.LVL111:
ARM GAS  /tmp/cc1oM6Yq.s 			page 44


 1485              	.LFB36:
 597:libscpi/src/lexer.c ****     int someNumbers = 0;
 1486              		.loc 1 597 78 is_stmt 1 view -0
 1487              		.cfi_startproc
 1488              		@ args = 0, pretend = 0, frame = 0
 1489              		@ frame_needed = 0, uses_anonymous_args = 0
 598:libscpi/src/lexer.c ****     token->ptr = state->pos;
 1490              		.loc 1 598 5 view .LVU465
 599:libscpi/src/lexer.c ****     if (skipChr(state, '#')) {
 1491              		.loc 1 599 5 view .LVU466
 599:libscpi/src/lexer.c ****     if (skipChr(state, '#')) {
 1492              		.loc 1 599 16 is_stmt 0 view .LVU467
 1493 0000 4368     		ldr	r3, [r0, #4]
 597:libscpi/src/lexer.c ****     int someNumbers = 0;
 1494              		.loc 1 597 78 view .LVU468
 1495 0002 70B5     		push	{r4, r5, r6, lr}
 1496              	.LCFI13:
 1497              		.cfi_def_cfa_offset 16
 1498              		.cfi_offset 4, -16
 1499              		.cfi_offset 5, -12
 1500              		.cfi_offset 6, -8
 1501              		.cfi_offset 14, -4
 597:libscpi/src/lexer.c ****     int someNumbers = 0;
 1502              		.loc 1 597 78 view .LVU469
 1503 0004 0D46     		mov	r5, r1
 599:libscpi/src/lexer.c ****     if (skipChr(state, '#')) {
 1504              		.loc 1 599 16 view .LVU470
 1505 0006 4B60     		str	r3, [r1, #4]
 600:libscpi/src/lexer.c ****         if (!iseos(state)) {
 1506              		.loc 1 600 5 is_stmt 1 view .LVU471
 600:libscpi/src/lexer.c ****         if (!iseos(state)) {
 1507              		.loc 1 600 9 is_stmt 0 view .LVU472
 1508 0008 2321     		movs	r1, #35
 1509              	.LVL112:
 597:libscpi/src/lexer.c ****     int someNumbers = 0;
 1510              		.loc 1 597 78 view .LVU473
 1511 000a 0446     		mov	r4, r0
 600:libscpi/src/lexer.c ****         if (!iseos(state)) {
 1512              		.loc 1 600 9 view .LVU474
 1513 000c FFF7FEFF 		bl	skipChr
 1514              	.LVL113:
 600:libscpi/src/lexer.c ****         if (!iseos(state)) {
 1515              		.loc 1 600 8 view .LVU475
 1516 0010 0028     		cmp	r0, #0
 1517 0012 52D0     		beq	.L129
 601:libscpi/src/lexer.c ****             if (isH(state->pos[0])) {
 1518              		.loc 1 601 9 is_stmt 1 view .LVU476
 601:libscpi/src/lexer.c ****             if (isH(state->pos[0])) {
 1519              		.loc 1 601 14 is_stmt 0 view .LVU477
 1520 0014 2046     		mov	r0, r4
 1521 0016 FFF7FEFF 		bl	iseos
 1522              	.LVL114:
 601:libscpi/src/lexer.c ****             if (isH(state->pos[0])) {
 1523              		.loc 1 601 12 view .LVU478
 1524 001a 0146     		mov	r1, r0
 1525 001c 0028     		cmp	r0, #0
 1526 001e 4CD1     		bne	.L129
ARM GAS  /tmp/cc1oM6Yq.s 			page 45


 602:libscpi/src/lexer.c ****                 state->pos++;
 1527              		.loc 1 602 13 is_stmt 1 view .LVU479
 602:libscpi/src/lexer.c ****                 state->pos++;
 1528              		.loc 1 602 26 is_stmt 0 view .LVU480
 1529 0020 6368     		ldr	r3, [r4, #4]
 1530              	.LVL115:
 1531              	.LBB136:
 1532              	.LBI136:
 127:libscpi/src/lexer.c ****     return c == 'h' || c == 'H';
 1533              		.loc 1 127 12 is_stmt 1 view .LVU481
 1534              	.LBB137:
 128:libscpi/src/lexer.c **** }
 1535              		.loc 1 128 5 view .LVU482
 128:libscpi/src/lexer.c **** }
 1536              		.loc 1 128 21 is_stmt 0 view .LVU483
 1537 0022 1A78     		ldrb	r2, [r3]	@ zero_extendqisi2
 1538              	.LVL116:
 128:libscpi/src/lexer.c **** }
 1539              		.loc 1 128 21 view .LVU484
 1540 0024 02F0DF02 		and	r2, r2, #223
 1541              	.LVL117:
 128:libscpi/src/lexer.c **** }
 1542              		.loc 1 128 21 view .LVU485
 1543 0028 482A     		cmp	r2, #72
 1544 002a 20D1     		bne	.L130
 1545              	.LVL118:
 128:libscpi/src/lexer.c **** }
 1546              		.loc 1 128 21 view .LVU486
 1547              	.LBE137:
 1548              	.LBE136:
 603:libscpi/src/lexer.c ****                 someNumbers = skipHexNum(state);
 1549              		.loc 1 603 17 is_stmt 1 view .LVU487
 603:libscpi/src/lexer.c ****                 someNumbers = skipHexNum(state);
 1550              		.loc 1 603 27 is_stmt 0 view .LVU488
 1551 002c 0133     		adds	r3, r3, #1
 1552              	.LBB138:
 1553              	.LBB139:
 566:libscpi/src/lexer.c ****         state->pos++;
 1554              		.loc 1 566 29 view .LVU489
 1555 002e 264E     		ldr	r6, .L151
 1556              	.LBE139:
 1557              	.LBE138:
 603:libscpi/src/lexer.c ****                 someNumbers = skipHexNum(state);
 1558              		.loc 1 603 27 view .LVU490
 1559 0030 6360     		str	r3, [r4, #4]
 604:libscpi/src/lexer.c ****                 token->type = SCPI_TOKEN_HEXNUM;
 1560              		.loc 1 604 17 is_stmt 1 view .LVU491
 1561              	.LVL119:
 1562              	.LBB142:
 1563              	.LBI138:
 564:libscpi/src/lexer.c ****     int someNumbers = 0;
 1564              		.loc 1 564 12 view .LVU492
 1565              	.LBB140:
 565:libscpi/src/lexer.c ****     while (!iseos(state) && isxdigit((uint8_t)(state->pos[0]))) {
 1566              		.loc 1 565 5 view .LVU493
 566:libscpi/src/lexer.c ****         state->pos++;
 1567              		.loc 1 566 5 view .LVU494
ARM GAS  /tmp/cc1oM6Yq.s 			page 46


 1568              	.L131:
 566:libscpi/src/lexer.c ****         state->pos++;
 1569              		.loc 1 566 11 view .LVU495
 566:libscpi/src/lexer.c ****         state->pos++;
 1570              		.loc 1 566 13 is_stmt 0 view .LVU496
 1571 0032 2046     		mov	r0, r4
 1572 0034 FFF7FEFF 		bl	iseos
 1573              	.LVL120:
 566:libscpi/src/lexer.c ****         state->pos++;
 1574              		.loc 1 566 11 view .LVU497
 1575 0038 28B9     		cbnz	r0, .L132
 566:libscpi/src/lexer.c ****         state->pos++;
 1576              		.loc 1 566 29 view .LVU498
 1577 003a 6368     		ldr	r3, [r4, #4]
 1578 003c 1A78     		ldrb	r2, [r3]	@ zero_extendqisi2
 566:libscpi/src/lexer.c ****         state->pos++;
 1579              		.loc 1 566 26 view .LVU499
 1580 003e 925D     		ldrb	r2, [r2, r6]	@ zero_extendqisi2
 1581 0040 12F0440F 		tst	r2, #68
 1582 0044 0FD1     		bne	.L133
 1583              	.L132:
 570:libscpi/src/lexer.c **** }
 1584              		.loc 1 570 5 is_stmt 1 view .LVU500
 1585              	.LVL121:
 570:libscpi/src/lexer.c **** }
 1586              		.loc 1 570 5 is_stmt 0 view .LVU501
 1587              	.LBE140:
 1588              	.LBE142:
 605:libscpi/src/lexer.c ****             } else if (isQ(state->pos[0])) {
 1589              		.loc 1 605 17 is_stmt 1 view .LVU502
 605:libscpi/src/lexer.c ****             } else if (isQ(state->pos[0])) {
 1590              		.loc 1 605 29 is_stmt 0 view .LVU503
 1591 0046 0623     		movs	r3, #6
 1592              	.L149:
 613:libscpi/src/lexer.c ****             }
 1593              		.loc 1 613 29 view .LVU504
 1594 0048 2B70     		strb	r3, [r5]
 618:libscpi/src/lexer.c ****         token->ptr += 2; /* ignore number prefix */
 1595              		.loc 1 618 5 is_stmt 1 view .LVU505
 618:libscpi/src/lexer.c ****         token->ptr += 2; /* ignore number prefix */
 1596              		.loc 1 618 8 is_stmt 0 view .LVU506
 1597 004a 0029     		cmp	r1, #0
 1598 004c 35D0     		beq	.L129
 619:libscpi/src/lexer.c ****         token->len = state->pos - token->ptr;
 1599              		.loc 1 619 9 is_stmt 1 view .LVU507
 619:libscpi/src/lexer.c ****         token->len = state->pos - token->ptr;
 1600              		.loc 1 619 20 is_stmt 0 view .LVU508
 1601 004e 6B68     		ldr	r3, [r5, #4]
 620:libscpi/src/lexer.c ****     } else {
 1602              		.loc 1 620 33 view .LVU509
 1603 0050 6268     		ldr	r2, [r4, #4]
 619:libscpi/src/lexer.c ****         token->len = state->pos - token->ptr;
 1604              		.loc 1 619 20 view .LVU510
 1605 0052 0233     		adds	r3, r3, #2
 1606 0054 6B60     		str	r3, [r5, #4]
 620:libscpi/src/lexer.c ****     } else {
 1607              		.loc 1 620 9 is_stmt 1 view .LVU511
ARM GAS  /tmp/cc1oM6Yq.s 			page 47


 620:libscpi/src/lexer.c ****     } else {
 1608              		.loc 1 620 33 is_stmt 0 view .LVU512
 1609 0056 D31A     		subs	r3, r2, r3
 1610              	.LVL122:
 1611              	.L150:
 624:libscpi/src/lexer.c ****     }
 1612              		.loc 1 624 20 view .LVU513
 1613 0058 AB60     		str	r3, [r5, #8]
 626:libscpi/src/lexer.c **** }
 1614              		.loc 1 626 5 is_stmt 1 view .LVU514
 626:libscpi/src/lexer.c **** }
 1615              		.loc 1 626 17 is_stmt 0 view .LVU515
 1616 005a A868     		ldr	r0, [r5, #8]
 626:libscpi/src/lexer.c **** }
 1617              		.loc 1 626 44 view .LVU516
 1618 005c 0028     		cmp	r0, #0
 1619 005e CCBF     		ite	gt
 1620 0060 0230     		addgt	r0, r0, #2
 1621 0062 0020     		movle	r0, #0
 627:libscpi/src/lexer.c **** 
 1622              		.loc 1 627 1 view .LVU517
 1623 0064 70BD     		pop	{r4, r5, r6, pc}
 1624              	.LVL123:
 1625              	.L133:
 1626              	.LBB143:
 1627              	.LBB141:
 567:libscpi/src/lexer.c ****         someNumbers++;
 1628              		.loc 1 567 9 is_stmt 1 view .LVU518
 567:libscpi/src/lexer.c ****         someNumbers++;
 1629              		.loc 1 567 19 is_stmt 0 view .LVU519
 1630 0066 0133     		adds	r3, r3, #1
 1631 0068 6360     		str	r3, [r4, #4]
 568:libscpi/src/lexer.c ****     }
 1632              		.loc 1 568 9 is_stmt 1 view .LVU520
 568:libscpi/src/lexer.c ****     }
 1633              		.loc 1 568 20 is_stmt 0 view .LVU521
 1634 006a 0131     		adds	r1, r1, #1
 1635              	.LVL124:
 568:libscpi/src/lexer.c ****     }
 1636              		.loc 1 568 20 view .LVU522
 1637 006c E1E7     		b	.L131
 1638              	.LVL125:
 1639              	.L130:
 568:libscpi/src/lexer.c ****     }
 1640              		.loc 1 568 20 view .LVU523
 1641              	.LBE141:
 1642              	.LBE143:
 606:libscpi/src/lexer.c ****                 state->pos++;
 1643              		.loc 1 606 20 is_stmt 1 view .LVU524
 1644              	.LBB144:
 1645              	.LBI144:
 145:libscpi/src/lexer.c ****     return c == 'q' || c == 'Q';
 1646              		.loc 1 145 12 view .LVU525
 1647              	.LBB145:
 146:libscpi/src/lexer.c **** }
 1648              		.loc 1 146 5 view .LVU526
 146:libscpi/src/lexer.c **** }
ARM GAS  /tmp/cc1oM6Yq.s 			page 48


 1649              		.loc 1 146 21 is_stmt 0 view .LVU527
 1650 006e 512A     		cmp	r2, #81
 1651 0070 10D1     		bne	.L135
 1652              	.LVL126:
 146:libscpi/src/lexer.c **** }
 1653              		.loc 1 146 21 view .LVU528
 1654              	.LBE145:
 1655              	.LBE144:
 607:libscpi/src/lexer.c ****                 someNumbers = skipOctNum(state);
 1656              		.loc 1 607 17 is_stmt 1 view .LVU529
 607:libscpi/src/lexer.c ****                 someNumbers = skipOctNum(state);
 1657              		.loc 1 607 27 is_stmt 0 view .LVU530
 1658 0072 0133     		adds	r3, r3, #1
 1659 0074 6360     		str	r3, [r4, #4]
 608:libscpi/src/lexer.c ****                 token->type = SCPI_TOKEN_OCTNUM;
 1660              		.loc 1 608 17 is_stmt 1 view .LVU531
 1661              	.LVL127:
 1662              	.LBB146:
 1663              	.LBI146:
 573:libscpi/src/lexer.c ****     int someNumbers = 0;
 1664              		.loc 1 573 12 view .LVU532
 1665              	.LBB147:
 574:libscpi/src/lexer.c ****     while (!iseos(state) && isqdigit(state->pos[0])) {
 1666              		.loc 1 574 5 view .LVU533
 575:libscpi/src/lexer.c ****         state->pos++;
 1667              		.loc 1 575 5 view .LVU534
 1668              	.L137:
 575:libscpi/src/lexer.c ****         state->pos++;
 1669              		.loc 1 575 11 view .LVU535
 575:libscpi/src/lexer.c ****         state->pos++;
 1670              		.loc 1 575 13 is_stmt 0 view .LVU536
 1671 0076 2046     		mov	r0, r4
 1672 0078 FFF7FEFF 		bl	iseos
 1673              	.LVL128:
 575:libscpi/src/lexer.c ****         state->pos++;
 1674              		.loc 1 575 11 view .LVU537
 1675 007c 40B9     		cbnz	r0, .L136
 575:libscpi/src/lexer.c ****         state->pos++;
 1676              		.loc 1 575 43 view .LVU538
 1677 007e 6368     		ldr	r3, [r4, #4]
 1678              	.LVL129:
 1679              	.LBB148:
 1680              	.LBI148:
  74:libscpi/src/lexer.c ****     if ((c == '0') || (c == '1') || (c == '2') || (c == '3') || (c == '4') || (c == '5') || (c == '
 1681              		.loc 1 74 12 is_stmt 1 view .LVU539
 1682              	.LBB149:
  75:libscpi/src/lexer.c ****         return 1;
 1683              		.loc 1 75 5 view .LVU540
  75:libscpi/src/lexer.c ****         return 1;
 1684              		.loc 1 75 104 is_stmt 0 view .LVU541
 1685 0080 1A78     		ldrb	r2, [r3]	@ zero_extendqisi2
 1686              	.LVL130:
  75:libscpi/src/lexer.c ****         return 1;
 1687              		.loc 1 75 104 view .LVU542
 1688 0082 303A     		subs	r2, r2, #48
 1689              	.LVL131:
  75:libscpi/src/lexer.c ****         return 1;
ARM GAS  /tmp/cc1oM6Yq.s 			page 49


 1690              		.loc 1 75 8 view .LVU543
 1691 0084 072A     		cmp	r2, #7
 1692 0086 03D8     		bhi	.L136
  76:libscpi/src/lexer.c ****     }
 1693              		.loc 1 76 9 is_stmt 1 view .LVU544
 1694              	.LVL132:
  76:libscpi/src/lexer.c ****     }
 1695              		.loc 1 76 9 is_stmt 0 view .LVU545
 1696              	.LBE149:
 1697              	.LBE148:
 576:libscpi/src/lexer.c ****         someNumbers++;
 1698              		.loc 1 576 9 is_stmt 1 view .LVU546
 576:libscpi/src/lexer.c ****         someNumbers++;
 1699              		.loc 1 576 19 is_stmt 0 view .LVU547
 1700 0088 0133     		adds	r3, r3, #1
 1701 008a 6360     		str	r3, [r4, #4]
 577:libscpi/src/lexer.c ****     }
 1702              		.loc 1 577 9 is_stmt 1 view .LVU548
 577:libscpi/src/lexer.c ****     }
 1703              		.loc 1 577 20 is_stmt 0 view .LVU549
 1704 008c 0131     		adds	r1, r1, #1
 1705              	.LVL133:
 577:libscpi/src/lexer.c ****     }
 1706              		.loc 1 577 20 view .LVU550
 1707 008e F2E7     		b	.L137
 1708              	.L136:
 579:libscpi/src/lexer.c **** }
 1709              		.loc 1 579 5 is_stmt 1 view .LVU551
 1710              	.LVL134:
 579:libscpi/src/lexer.c **** }
 1711              		.loc 1 579 5 is_stmt 0 view .LVU552
 1712              	.LBE147:
 1713              	.LBE146:
 609:libscpi/src/lexer.c ****             } else if (isB(state->pos[0])) {
 1714              		.loc 1 609 17 is_stmt 1 view .LVU553
 609:libscpi/src/lexer.c ****             } else if (isB(state->pos[0])) {
 1715              		.loc 1 609 29 is_stmt 0 view .LVU554
 1716 0090 0723     		movs	r3, #7
 1717 0092 D9E7     		b	.L149
 1718              	.LVL135:
 1719              	.L135:
 610:libscpi/src/lexer.c ****                 state->pos++;
 1720              		.loc 1 610 20 is_stmt 1 view .LVU555
 1721              	.LBB150:
 1722              	.LBI150:
 136:libscpi/src/lexer.c ****     return c == 'b' || c == 'B';
 1723              		.loc 1 136 12 view .LVU556
 1724              	.LBB151:
 137:libscpi/src/lexer.c **** }
 1725              		.loc 1 137 5 view .LVU557
 137:libscpi/src/lexer.c **** }
 1726              		.loc 1 137 21 is_stmt 0 view .LVU558
 1727 0094 422A     		cmp	r2, #66
 1728 0096 10D1     		bne	.L129
 1729              	.LVL136:
 137:libscpi/src/lexer.c **** }
 1730              		.loc 1 137 21 view .LVU559
ARM GAS  /tmp/cc1oM6Yq.s 			page 50


 1731              	.LBE151:
 1732              	.LBE150:
 611:libscpi/src/lexer.c ****                 someNumbers = skipBinNum(state);
 1733              		.loc 1 611 17 is_stmt 1 view .LVU560
 611:libscpi/src/lexer.c ****                 someNumbers = skipBinNum(state);
 1734              		.loc 1 611 27 is_stmt 0 view .LVU561
 1735 0098 0133     		adds	r3, r3, #1
 1736 009a 6360     		str	r3, [r4, #4]
 612:libscpi/src/lexer.c ****                 token->type = SCPI_TOKEN_BINNUM;
 1737              		.loc 1 612 17 is_stmt 1 view .LVU562
 1738              	.LVL137:
 1739              	.LBB152:
 1740              	.LBI152:
 582:libscpi/src/lexer.c ****     int someNumbers = 0;
 1741              		.loc 1 582 12 view .LVU563
 1742              	.LBB153:
 583:libscpi/src/lexer.c ****     while (!iseos(state) && isbdigit(state->pos[0])) {
 1743              		.loc 1 583 5 view .LVU564
 584:libscpi/src/lexer.c ****         state->pos++;
 1744              		.loc 1 584 5 view .LVU565
 1745              	.L139:
 584:libscpi/src/lexer.c ****         state->pos++;
 1746              		.loc 1 584 11 view .LVU566
 584:libscpi/src/lexer.c ****         state->pos++;
 1747              		.loc 1 584 13 is_stmt 0 view .LVU567
 1748 009c 2046     		mov	r0, r4
 1749 009e FFF7FEFF 		bl	iseos
 1750              	.LVL138:
 584:libscpi/src/lexer.c ****         state->pos++;
 1751              		.loc 1 584 11 view .LVU568
 1752 00a2 40B9     		cbnz	r0, .L138
 584:libscpi/src/lexer.c ****         state->pos++;
 1753              		.loc 1 584 43 view .LVU569
 1754 00a4 6368     		ldr	r3, [r4, #4]
 1755              	.LVL139:
 1756              	.LBB154:
 1757              	.LBI154:
  62:libscpi/src/lexer.c ****     if ((c == '0') || (c == '1')) {
 1758              		.loc 1 62 12 is_stmt 1 view .LVU570
 1759              	.LBB155:
  63:libscpi/src/lexer.c ****         return 1;
 1760              		.loc 1 63 5 view .LVU571
  63:libscpi/src/lexer.c ****         return 1;
 1761              		.loc 1 63 20 is_stmt 0 view .LVU572
 1762 00a6 1A78     		ldrb	r2, [r3]	@ zero_extendqisi2
 1763              	.LVL140:
  63:libscpi/src/lexer.c ****         return 1;
 1764              		.loc 1 63 20 view .LVU573
 1765 00a8 303A     		subs	r2, r2, #48
 1766              	.LVL141:
  63:libscpi/src/lexer.c ****         return 1;
 1767              		.loc 1 63 8 view .LVU574
 1768 00aa 012A     		cmp	r2, #1
 1769 00ac 03D8     		bhi	.L138
  64:libscpi/src/lexer.c ****     }
 1770              		.loc 1 64 9 is_stmt 1 view .LVU575
 1771              	.LVL142:
ARM GAS  /tmp/cc1oM6Yq.s 			page 51


  64:libscpi/src/lexer.c ****     }
 1772              		.loc 1 64 9 is_stmt 0 view .LVU576
 1773              	.LBE155:
 1774              	.LBE154:
 585:libscpi/src/lexer.c ****         someNumbers++;
 1775              		.loc 1 585 9 is_stmt 1 view .LVU577
 585:libscpi/src/lexer.c ****         someNumbers++;
 1776              		.loc 1 585 19 is_stmt 0 view .LVU578
 1777 00ae 0133     		adds	r3, r3, #1
 1778 00b0 6360     		str	r3, [r4, #4]
 586:libscpi/src/lexer.c ****     }
 1779              		.loc 1 586 9 is_stmt 1 view .LVU579
 586:libscpi/src/lexer.c ****     }
 1780              		.loc 1 586 20 is_stmt 0 view .LVU580
 1781 00b2 0131     		adds	r1, r1, #1
 1782              	.LVL143:
 586:libscpi/src/lexer.c ****     }
 1783              		.loc 1 586 20 view .LVU581
 1784 00b4 F2E7     		b	.L139
 1785              	.L138:
 588:libscpi/src/lexer.c **** }
 1786              		.loc 1 588 5 is_stmt 1 view .LVU582
 1787              	.LVL144:
 588:libscpi/src/lexer.c **** }
 1788              		.loc 1 588 5 is_stmt 0 view .LVU583
 1789              	.LBE153:
 1790              	.LBE152:
 613:libscpi/src/lexer.c ****             }
 1791              		.loc 1 613 17 is_stmt 1 view .LVU584
 613:libscpi/src/lexer.c ****             }
 1792              		.loc 1 613 29 is_stmt 0 view .LVU585
 1793 00b6 0823     		movs	r3, #8
 1794 00b8 C6E7     		b	.L149
 1795              	.LVL145:
 1796              	.L129:
 622:libscpi/src/lexer.c ****         state->pos = token->ptr;
 1797              		.loc 1 622 9 is_stmt 1 view .LVU586
 622:libscpi/src/lexer.c ****         state->pos = token->ptr;
 1798              		.loc 1 622 21 is_stmt 0 view .LVU587
 1799 00ba 1A23     		movs	r3, #26
 1800 00bc 2B70     		strb	r3, [r5]
 623:libscpi/src/lexer.c ****         token->len = 0;
 1801              		.loc 1 623 9 is_stmt 1 view .LVU588
 623:libscpi/src/lexer.c ****         token->len = 0;
 1802              		.loc 1 623 20 is_stmt 0 view .LVU589
 1803 00be 6B68     		ldr	r3, [r5, #4]
 1804 00c0 6360     		str	r3, [r4, #4]
 624:libscpi/src/lexer.c ****     }
 1805              		.loc 1 624 9 is_stmt 1 view .LVU590
 624:libscpi/src/lexer.c ****     }
 1806              		.loc 1 624 20 is_stmt 0 view .LVU591
 1807 00c2 0023     		movs	r3, #0
 1808 00c4 C8E7     		b	.L150
 1809              	.L152:
 1810 00c6 00BF     		.align	2
 1811              	.L151:
 1812 00c8 01000000 		.word	_ctype_+1
ARM GAS  /tmp/cc1oM6Yq.s 			page 52


 1813              		.cfi_endproc
 1814              	.LFE36:
 1816              		.section	.text.scpiLex_StringProgramData,"ax",%progbits
 1817              		.align	1
 1818              		.global	scpiLex_StringProgramData
 1819              		.hidden	scpiLex_StringProgramData
 1820              		.syntax unified
 1821              		.thumb
 1822              		.thumb_func
 1823              		.fpu fpv4-sp-d16
 1825              	scpiLex_StringProgramData:
 1826              	.LVL146:
 1827              	.LFB41:
 651:libscpi/src/lexer.c **** 
 652:libscpi/src/lexer.c **** static void skipDoubleQuoteProgramData(lex_state_t * state) {
 653:libscpi/src/lexer.c ****     skipQuoteProgramData(state, '"');
 654:libscpi/src/lexer.c **** }
 655:libscpi/src/lexer.c **** 
 656:libscpi/src/lexer.c **** static void skipSingleQuoteProgramData(lex_state_t * state) {
 657:libscpi/src/lexer.c ****     skipQuoteProgramData(state, '\'');
 658:libscpi/src/lexer.c **** }
 659:libscpi/src/lexer.c **** 
 660:libscpi/src/lexer.c **** /**
 661:libscpi/src/lexer.c ****  * Detect token String data
 662:libscpi/src/lexer.c ****  * @param state
 663:libscpi/src/lexer.c ****  * @param token
 664:libscpi/src/lexer.c ****  * @return 
 665:libscpi/src/lexer.c ****  */
 666:libscpi/src/lexer.c **** int scpiLex_StringProgramData(lex_state_t * state, scpi_token_t * token) {
 1828              		.loc 1 666 74 is_stmt 1 view -0
 1829              		.cfi_startproc
 1830              		@ args = 0, pretend = 0, frame = 0
 1831              		@ frame_needed = 0, uses_anonymous_args = 0
 667:libscpi/src/lexer.c ****     token->ptr = state->pos;
 1832              		.loc 1 667 5 view .LVU593
 666:libscpi/src/lexer.c ****     token->ptr = state->pos;
 1833              		.loc 1 666 74 is_stmt 0 view .LVU594
 1834 0000 70B5     		push	{r4, r5, r6, lr}
 1835              	.LCFI14:
 1836              		.cfi_def_cfa_offset 16
 1837              		.cfi_offset 4, -16
 1838              		.cfi_offset 5, -12
 1839              		.cfi_offset 6, -8
 1840              		.cfi_offset 14, -4
 1841              		.loc 1 667 23 view .LVU595
 1842 0002 4668     		ldr	r6, [r0, #4]
 1843              		.loc 1 667 16 view .LVU596
 1844 0004 4E60     		str	r6, [r1, #4]
 668:libscpi/src/lexer.c **** 
 669:libscpi/src/lexer.c ****     if (!iseos(state)) {
 1845              		.loc 1 669 5 is_stmt 1 view .LVU597
 666:libscpi/src/lexer.c ****     token->ptr = state->pos;
 1846              		.loc 1 666 74 is_stmt 0 view .LVU598
 1847 0006 0446     		mov	r4, r0
 1848 0008 0D46     		mov	r5, r1
 1849              		.loc 1 669 10 view .LVU599
 1850 000a FFF7FEFF 		bl	iseos
ARM GAS  /tmp/cc1oM6Yq.s 			page 53


 1851              	.LVL147:
 1852              		.loc 1 669 8 view .LVU600
 1853 000e 98B9     		cbnz	r0, .L154
 670:libscpi/src/lexer.c ****         if (ischr(state, '"')) {
 1854              		.loc 1 670 9 is_stmt 1 view .LVU601
 1855              	.LVL148:
 1856              	.LBB166:
 1857              	.LBI166:
 109:libscpi/src/lexer.c ****     return (state->pos[0] == chr);
 1858              		.loc 1 109 12 view .LVU602
 1859              	.LBB167:
 110:libscpi/src/lexer.c **** }
 1860              		.loc 1 110 5 view .LVU603
 110:libscpi/src/lexer.c **** }
 1861              		.loc 1 110 23 is_stmt 0 view .LVU604
 1862 0010 3178     		ldrb	r1, [r6]	@ zero_extendqisi2
 1863              	.LVL149:
 110:libscpi/src/lexer.c **** }
 1864              		.loc 1 110 23 view .LVU605
 1865              	.LBE167:
 1866              	.LBE166:
 1867              		.loc 1 670 12 view .LVU606
 1868 0012 2229     		cmp	r1, #34
 1869 0014 1FD1     		bne	.L155
 671:libscpi/src/lexer.c ****             state->pos++;
 1870              		.loc 1 671 13 is_stmt 1 view .LVU607
 672:libscpi/src/lexer.c ****             token->type = SCPI_TOKEN_DOUBLE_QUOTE_PROGRAM_DATA;
 1871              		.loc 1 672 25 is_stmt 0 view .LVU608
 1872 0016 0F23     		movs	r3, #15
 671:libscpi/src/lexer.c ****             state->pos++;
 1873              		.loc 1 671 23 view .LVU609
 1874 0018 0136     		adds	r6, r6, #1
 1875 001a 6660     		str	r6, [r4, #4]
 1876              		.loc 1 672 13 is_stmt 1 view .LVU610
 1877              	.LBB168:
 1878              	.LBB169:
 653:libscpi/src/lexer.c **** }
 1879              		.loc 1 653 5 is_stmt 0 view .LVU611
 1880 001c 2046     		mov	r0, r4
 1881              	.LBE169:
 1882              	.LBE168:
 1883              		.loc 1 672 25 view .LVU612
 1884 001e 2B70     		strb	r3, [r5]
 673:libscpi/src/lexer.c ****             skipDoubleQuoteProgramData(state);
 1885              		.loc 1 673 13 is_stmt 1 view .LVU613
 1886              	.LVL150:
 1887              	.LBB171:
 1888              	.LBI168:
 652:libscpi/src/lexer.c ****     skipQuoteProgramData(state, '"');
 1889              		.loc 1 652 13 view .LVU614
 1890              	.LBB170:
 653:libscpi/src/lexer.c **** }
 1891              		.loc 1 653 5 view .LVU615
 1892 0020 FFF7FEFF 		bl	skipQuoteProgramData
 1893              	.LVL151:
 653:libscpi/src/lexer.c **** }
 1894              		.loc 1 653 5 is_stmt 0 view .LVU616
ARM GAS  /tmp/cc1oM6Yq.s 			page 54


 1895              	.LBE170:
 1896              	.LBE171:
 674:libscpi/src/lexer.c ****             if (!iseos(state) && ischr(state, '"')) {
 1897              		.loc 1 674 13 is_stmt 1 view .LVU617
 1898              		.loc 1 674 18 is_stmt 0 view .LVU618
 1899 0024 2046     		mov	r0, r4
 1900 0026 FFF7FEFF 		bl	iseos
 1901              	.LVL152:
 1902              		.loc 1 674 16 view .LVU619
 1903 002a 28BB     		cbnz	r0, .L157
 1904              		.loc 1 674 34 discriminator 1 view .LVU620
 1905 002c 6368     		ldr	r3, [r4, #4]
 1906              	.LVL153:
 1907              	.LBB172:
 1908              	.LBI172:
 109:libscpi/src/lexer.c ****     return (state->pos[0] == chr);
 1909              		.loc 1 109 12 is_stmt 1 discriminator 1 view .LVU621
 1910              	.LBB173:
 110:libscpi/src/lexer.c **** }
 1911              		.loc 1 110 5 discriminator 1 view .LVU622
 110:libscpi/src/lexer.c **** }
 1912              		.loc 1 110 5 is_stmt 0 discriminator 1 view .LVU623
 1913              	.LBE173:
 1914              	.LBE172:
 1915              		.loc 1 674 31 discriminator 1 view .LVU624
 1916 002e 1A78     		ldrb	r2, [r3]	@ zero_extendqisi2
 1917 0030 222A     		cmp	r2, #34
 1918              	.LVL154:
 1919              	.L162:
 675:libscpi/src/lexer.c ****                 state->pos++;
 676:libscpi/src/lexer.c ****                 token->len = state->pos - token->ptr;
 677:libscpi/src/lexer.c ****             } else {
 678:libscpi/src/lexer.c ****                 state->pos = token->ptr;
 679:libscpi/src/lexer.c ****             }
 680:libscpi/src/lexer.c ****         } else if (ischr(state, '\'')) {
 681:libscpi/src/lexer.c ****             state->pos++;
 682:libscpi/src/lexer.c ****             token->type = SCPI_TOKEN_SINGLE_QUOTE_PROGRAM_DATA;
 683:libscpi/src/lexer.c ****             skipSingleQuoteProgramData(state);
 684:libscpi/src/lexer.c ****             if (!iseos(state) && ischr(state, '\'')) {
 1920              		.loc 1 684 31 discriminator 1 view .LVU625
 1921 0032 21D1     		bne	.L157
 685:libscpi/src/lexer.c ****                 state->pos++;
 1922              		.loc 1 685 17 is_stmt 1 view .LVU626
 1923              		.loc 1 685 27 is_stmt 0 view .LVU627
 1924 0034 0133     		adds	r3, r3, #1
 1925              	.L159:
 686:libscpi/src/lexer.c ****                 token->len = state->pos - token->ptr;
 687:libscpi/src/lexer.c ****             } else {
 688:libscpi/src/lexer.c ****                 state->pos = token->ptr;
 1926              		.loc 1 688 28 view .LVU628
 1927 0036 6360     		str	r3, [r4, #4]
 1928              	.LVL155:
 1929              	.L154:
 689:libscpi/src/lexer.c ****             }
 690:libscpi/src/lexer.c ****         }
 691:libscpi/src/lexer.c ****     }
 692:libscpi/src/lexer.c **** 
ARM GAS  /tmp/cc1oM6Yq.s 			page 55


 693:libscpi/src/lexer.c ****     token->len = state->pos - token->ptr;
 1930              		.loc 1 693 5 is_stmt 1 view .LVU629
 1931              		.loc 1 693 29 is_stmt 0 view .LVU630
 1932 0038 6368     		ldr	r3, [r4, #4]
 1933              		.loc 1 693 36 view .LVU631
 1934 003a 6A68     		ldr	r2, [r5, #4]
 1935              		.loc 1 693 29 view .LVU632
 1936 003c 9B1A     		subs	r3, r3, r2
 694:libscpi/src/lexer.c **** 
 695:libscpi/src/lexer.c ****     if ((token->len > 0)) {
 1937              		.loc 1 695 8 view .LVU633
 1938 003e 002B     		cmp	r3, #0
 693:libscpi/src/lexer.c **** 
 1939              		.loc 1 693 16 view .LVU634
 1940 0040 AB60     		str	r3, [r5, #8]
 1941              		.loc 1 695 5 is_stmt 1 view .LVU635
 1942              		.loc 1 695 8 is_stmt 0 view .LVU636
 1943 0042 04DC     		bgt	.L158
 696:libscpi/src/lexer.c ****         /* token->ptr++;
 697:libscpi/src/lexer.c ****          * token->len -= 2; */
 698:libscpi/src/lexer.c ****     } else {
 699:libscpi/src/lexer.c ****         token->type = SCPI_TOKEN_UNKNOWN;
 1944              		.loc 1 699 9 is_stmt 1 view .LVU637
 1945              		.loc 1 699 21 is_stmt 0 view .LVU638
 1946 0044 1A23     		movs	r3, #26
 1947 0046 2B70     		strb	r3, [r5]
 700:libscpi/src/lexer.c ****         state->pos = token->ptr;
 1948              		.loc 1 700 9 is_stmt 1 view .LVU639
 701:libscpi/src/lexer.c ****         token->len = 0;
 1949              		.loc 1 701 20 is_stmt 0 view .LVU640
 1950 0048 0023     		movs	r3, #0
 700:libscpi/src/lexer.c ****         state->pos = token->ptr;
 1951              		.loc 1 700 20 view .LVU641
 1952 004a 6260     		str	r2, [r4, #4]
 1953              		.loc 1 701 9 is_stmt 1 view .LVU642
 1954              		.loc 1 701 20 is_stmt 0 view .LVU643
 1955 004c AB60     		str	r3, [r5, #8]
 1956              	.L158:
 702:libscpi/src/lexer.c ****     }
 703:libscpi/src/lexer.c **** 
 704:libscpi/src/lexer.c ****     return token->len > 0 ? token->len : 0;
 1957              		.loc 1 704 5 is_stmt 1 view .LVU644
 1958              		.loc 1 704 40 is_stmt 0 view .LVU645
 1959 004e A868     		ldr	r0, [r5, #8]
 705:libscpi/src/lexer.c **** }
 1960              		.loc 1 705 1 view .LVU646
 1961 0050 20EAE070 		bic	r0, r0, r0, asr #31
 1962 0054 70BD     		pop	{r4, r5, r6, pc}
 1963              	.LVL156:
 1964              	.L155:
 680:libscpi/src/lexer.c ****             state->pos++;
 1965              		.loc 1 680 16 is_stmt 1 view .LVU647
 110:libscpi/src/lexer.c **** }
 1966              		.loc 1 110 5 view .LVU648
 680:libscpi/src/lexer.c ****             state->pos++;
 1967              		.loc 1 680 19 is_stmt 0 view .LVU649
 1968 0056 2729     		cmp	r1, #39
ARM GAS  /tmp/cc1oM6Yq.s 			page 56


 1969 0058 EED1     		bne	.L154
 681:libscpi/src/lexer.c ****             token->type = SCPI_TOKEN_SINGLE_QUOTE_PROGRAM_DATA;
 1970              		.loc 1 681 13 is_stmt 1 view .LVU650
 682:libscpi/src/lexer.c ****             skipSingleQuoteProgramData(state);
 1971              		.loc 1 682 25 is_stmt 0 view .LVU651
 1972 005a 0E23     		movs	r3, #14
 681:libscpi/src/lexer.c ****             token->type = SCPI_TOKEN_SINGLE_QUOTE_PROGRAM_DATA;
 1973              		.loc 1 681 23 view .LVU652
 1974 005c 0136     		adds	r6, r6, #1
 1975 005e 6660     		str	r6, [r4, #4]
 682:libscpi/src/lexer.c ****             skipSingleQuoteProgramData(state);
 1976              		.loc 1 682 13 is_stmt 1 view .LVU653
 1977              	.LBB174:
 1978              	.LBB175:
 657:libscpi/src/lexer.c **** }
 1979              		.loc 1 657 5 is_stmt 0 view .LVU654
 1980 0060 2046     		mov	r0, r4
 1981              	.LBE175:
 1982              	.LBE174:
 682:libscpi/src/lexer.c ****             skipSingleQuoteProgramData(state);
 1983              		.loc 1 682 25 view .LVU655
 1984 0062 2B70     		strb	r3, [r5]
 683:libscpi/src/lexer.c ****             if (!iseos(state) && ischr(state, '\'')) {
 1985              		.loc 1 683 13 is_stmt 1 view .LVU656
 1986              	.LVL157:
 1987              	.LBB177:
 1988              	.LBI174:
 656:libscpi/src/lexer.c ****     skipQuoteProgramData(state, '\'');
 1989              		.loc 1 656 13 view .LVU657
 1990              	.LBB176:
 657:libscpi/src/lexer.c **** }
 1991              		.loc 1 657 5 view .LVU658
 1992 0064 FFF7FEFF 		bl	skipQuoteProgramData
 1993              	.LVL158:
 657:libscpi/src/lexer.c **** }
 1994              		.loc 1 657 5 is_stmt 0 view .LVU659
 1995              	.LBE176:
 1996              	.LBE177:
 684:libscpi/src/lexer.c ****                 state->pos++;
 1997              		.loc 1 684 13 is_stmt 1 view .LVU660
 684:libscpi/src/lexer.c ****                 state->pos++;
 1998              		.loc 1 684 18 is_stmt 0 view .LVU661
 1999 0068 2046     		mov	r0, r4
 2000 006a FFF7FEFF 		bl	iseos
 2001              	.LVL159:
 684:libscpi/src/lexer.c ****                 state->pos++;
 2002              		.loc 1 684 16 view .LVU662
 2003 006e 18B9     		cbnz	r0, .L157
 684:libscpi/src/lexer.c ****                 state->pos++;
 2004              		.loc 1 684 34 discriminator 1 view .LVU663
 2005 0070 6368     		ldr	r3, [r4, #4]
 2006              	.LVL160:
 2007              	.LBB178:
 2008              	.LBI178:
 109:libscpi/src/lexer.c ****     return (state->pos[0] == chr);
 2009              		.loc 1 109 12 is_stmt 1 discriminator 1 view .LVU664
 2010              	.LBB179:
ARM GAS  /tmp/cc1oM6Yq.s 			page 57


 110:libscpi/src/lexer.c **** }
 2011              		.loc 1 110 5 discriminator 1 view .LVU665
 110:libscpi/src/lexer.c **** }
 2012              		.loc 1 110 5 is_stmt 0 discriminator 1 view .LVU666
 2013              	.LBE179:
 2014              	.LBE178:
 684:libscpi/src/lexer.c ****                 state->pos++;
 2015              		.loc 1 684 31 discriminator 1 view .LVU667
 2016 0072 1A78     		ldrb	r2, [r3]	@ zero_extendqisi2
 2017 0074 272A     		cmp	r2, #39
 2018 0076 DCE7     		b	.L162
 2019              	.LVL161:
 2020              	.L157:
 688:libscpi/src/lexer.c ****             }
 2021              		.loc 1 688 17 is_stmt 1 view .LVU668
 688:libscpi/src/lexer.c ****             }
 2022              		.loc 1 688 28 is_stmt 0 view .LVU669
 2023 0078 6B68     		ldr	r3, [r5, #4]
 2024 007a DCE7     		b	.L159
 2025              		.cfi_endproc
 2026              	.LFE41:
 2028              		.section	.text.scpiLex_ArbitraryBlockProgramData,"ax",%progbits
 2029              		.align	1
 2030              		.global	scpiLex_ArbitraryBlockProgramData
 2031              		.hidden	scpiLex_ArbitraryBlockProgramData
 2032              		.syntax unified
 2033              		.thumb
 2034              		.thumb_func
 2035              		.fpu fpv4-sp-d16
 2037              	scpiLex_ArbitraryBlockProgramData:
 2038              	.LVL162:
 2039              	.LFB43:
 706:libscpi/src/lexer.c **** 
 707:libscpi/src/lexer.c **** /* 7.7.6 <ARBITRARY BLOCK PROGRAM DATA> */
 708:libscpi/src/lexer.c **** static int isNonzeroDigit(int c) {
 709:libscpi/src/lexer.c ****     return isdigit(c) && (c != '0');
 710:libscpi/src/lexer.c **** }
 711:libscpi/src/lexer.c **** 
 712:libscpi/src/lexer.c **** /**
 713:libscpi/src/lexer.c ****  * Detect token Block Data
 714:libscpi/src/lexer.c ****  * @param state
 715:libscpi/src/lexer.c ****  * @param token
 716:libscpi/src/lexer.c ****  * @return 
 717:libscpi/src/lexer.c ****  */
 718:libscpi/src/lexer.c **** int scpiLex_ArbitraryBlockProgramData(lex_state_t * state, scpi_token_t * token) {
 2040              		.loc 1 718 82 is_stmt 1 view -0
 2041              		.cfi_startproc
 2042              		@ args = 0, pretend = 0, frame = 0
 2043              		@ frame_needed = 0, uses_anonymous_args = 0
 719:libscpi/src/lexer.c ****     int i;
 2044              		.loc 1 719 5 view .LVU671
 720:libscpi/src/lexer.c ****     int arbitraryBlockLength = 0;
 2045              		.loc 1 720 5 view .LVU672
 721:libscpi/src/lexer.c ****     const char * ptr = state->pos;
 2046              		.loc 1 721 5 view .LVU673
 718:libscpi/src/lexer.c ****     int i;
 2047              		.loc 1 718 82 is_stmt 0 view .LVU674
ARM GAS  /tmp/cc1oM6Yq.s 			page 58


 2048 0000 2DE9F843 		push	{r3, r4, r5, r6, r7, r8, r9, lr}
 2049              	.LCFI15:
 2050              		.cfi_def_cfa_offset 32
 2051              		.cfi_offset 3, -32
 2052              		.cfi_offset 4, -28
 2053              		.cfi_offset 5, -24
 2054              		.cfi_offset 6, -20
 2055              		.cfi_offset 7, -16
 2056              		.cfi_offset 8, -12
 2057              		.cfi_offset 9, -8
 2058              		.cfi_offset 14, -4
 2059              		.loc 1 721 18 view .LVU675
 2060 0004 D0F80480 		ldr	r8, [r0, #4]
 2061              	.LVL163:
 722:libscpi/src/lexer.c ****     int validData = -1;
 2062              		.loc 1 722 5 is_stmt 1 view .LVU676
 723:libscpi/src/lexer.c ****     token->ptr = state->pos;
 2063              		.loc 1 723 5 view .LVU677
 2064              		.loc 1 723 16 is_stmt 0 view .LVU678
 2065 0008 C1F80480 		str	r8, [r1, #4]
 724:libscpi/src/lexer.c **** 
 725:libscpi/src/lexer.c ****     if (skipChr(state, '#')) {
 2066              		.loc 1 725 5 is_stmt 1 view .LVU679
 718:libscpi/src/lexer.c ****     int i;
 2067              		.loc 1 718 82 is_stmt 0 view .LVU680
 2068 000c 0D46     		mov	r5, r1
 2069              		.loc 1 725 9 view .LVU681
 2070 000e 2321     		movs	r1, #35
 2071              	.LVL164:
 718:libscpi/src/lexer.c ****     int i;
 2072              		.loc 1 718 82 view .LVU682
 2073 0010 0446     		mov	r4, r0
 2074              		.loc 1 725 9 view .LVU683
 2075 0012 FFF7FEFF 		bl	skipChr
 2076              	.LVL165:
 2077              		.loc 1 725 8 view .LVU684
 2078 0016 0028     		cmp	r0, #0
 2079 0018 46D0     		beq	.L164
 726:libscpi/src/lexer.c ****         if (!iseos(state) && isNonzeroDigit(state->pos[0])) {
 2080              		.loc 1 726 9 is_stmt 1 view .LVU685
 2081              		.loc 1 726 14 is_stmt 0 view .LVU686
 2082 001a 2046     		mov	r0, r4
 2083 001c FFF7FEFF 		bl	iseos
 2084              	.LVL166:
 2085              		.loc 1 726 12 view .LVU687
 2086 0020 0146     		mov	r1, r0
 2087 0022 70B1     		cbz	r0, .L165
 2088              	.LVL167:
 2089              	.L168:
 727:libscpi/src/lexer.c ****             /* Get number of digits */
 728:libscpi/src/lexer.c ****             i = state->pos[0] - '0';
 729:libscpi/src/lexer.c ****             state->pos++;
 730:libscpi/src/lexer.c **** 
 731:libscpi/src/lexer.c ****             for (; i > 0; i--) {
 732:libscpi/src/lexer.c ****                 if (!iseos(state) && isdigit((uint8_t)(state->pos[0]))) {
 733:libscpi/src/lexer.c ****                     arbitraryBlockLength *= 10;
 734:libscpi/src/lexer.c ****                     arbitraryBlockLength += (state->pos[0] - '0');
ARM GAS  /tmp/cc1oM6Yq.s 			page 59


 735:libscpi/src/lexer.c ****                     state->pos++;
 736:libscpi/src/lexer.c ****                 } else {
 737:libscpi/src/lexer.c ****                     break;
 738:libscpi/src/lexer.c ****                 }
 739:libscpi/src/lexer.c ****             }
 740:libscpi/src/lexer.c **** 
 741:libscpi/src/lexer.c ****             if (i == 0) {
 742:libscpi/src/lexer.c ****                 state->pos += arbitraryBlockLength;
 743:libscpi/src/lexer.c ****                 if ((state->buffer + state->len) >= (state->pos)) {
 744:libscpi/src/lexer.c ****                     token->ptr = state->pos - arbitraryBlockLength;
 745:libscpi/src/lexer.c ****                     token->len = arbitraryBlockLength;
 746:libscpi/src/lexer.c ****                     validData = 1;
 747:libscpi/src/lexer.c ****                 } else {
 748:libscpi/src/lexer.c ****                     validData = 0;
 749:libscpi/src/lexer.c ****                 }
 750:libscpi/src/lexer.c ****             } else if (iseos(state)) {
 751:libscpi/src/lexer.c ****                 validData = 0;
 752:libscpi/src/lexer.c ****             }
 753:libscpi/src/lexer.c ****         } else if (iseos(state)) {
 754:libscpi/src/lexer.c ****             validData = 0;
 755:libscpi/src/lexer.c ****         }
 756:libscpi/src/lexer.c ****     }
 757:libscpi/src/lexer.c **** 
 758:libscpi/src/lexer.c ****     if (validData == 1) {
 759:libscpi/src/lexer.c ****         /* valid */
 760:libscpi/src/lexer.c ****         token->type = SCPI_TOKEN_ARBITRARY_BLOCK_PROGRAM_DATA;
 761:libscpi/src/lexer.c ****     } else if (validData == 0) {
 762:libscpi/src/lexer.c ****         /* incomplete */
 763:libscpi/src/lexer.c ****         token->type = SCPI_TOKEN_UNKNOWN;
 2090              		.loc 1 763 9 is_stmt 1 view .LVU688
 2091              		.loc 1 763 21 is_stmt 0 view .LVU689
 2092 0024 1A23     		movs	r3, #26
 2093 0026 2B70     		strb	r3, [r5]
 764:libscpi/src/lexer.c ****         token->len = 0;
 2094              		.loc 1 764 9 is_stmt 1 view .LVU690
 2095              		.loc 1 764 20 is_stmt 0 view .LVU691
 2096 0028 0023     		movs	r3, #0
 2097 002a AB60     		str	r3, [r5, #8]
 765:libscpi/src/lexer.c ****         state->pos = state->buffer + state->len;
 2098              		.loc 1 765 9 is_stmt 1 view .LVU692
 2099              		.loc 1 765 36 is_stmt 0 view .LVU693
 2100 002c A268     		ldr	r2, [r4, #8]
 2101 002e 2368     		ldr	r3, [r4]
 2102 0030 1344     		add	r3, r3, r2
 2103              		.loc 1 765 20 view .LVU694
 2104 0032 6360     		str	r3, [r4, #4]
 2105              	.L166:
 766:libscpi/src/lexer.c ****     } else {
 767:libscpi/src/lexer.c ****         /* invalid */
 768:libscpi/src/lexer.c ****         token->type = SCPI_TOKEN_UNKNOWN;
 769:libscpi/src/lexer.c ****         state->pos = token->ptr;
 770:libscpi/src/lexer.c ****         token->len = 0;
 771:libscpi/src/lexer.c ****     }
 772:libscpi/src/lexer.c **** 
 773:libscpi/src/lexer.c ****     return token->len + (token->ptr - ptr);
 2106              		.loc 1 773 5 is_stmt 1 view .LVU695
 2107              		.loc 1 773 37 is_stmt 0 view .LVU696
ARM GAS  /tmp/cc1oM6Yq.s 			page 60


 2108 0034 6868     		ldr	r0, [r5, #4]
 2109              		.loc 1 773 23 view .LVU697
 2110 0036 AB68     		ldr	r3, [r5, #8]
 2111              		.loc 1 773 37 view .LVU698
 2112 0038 A0EB0800 		sub	r0, r0, r8
 774:libscpi/src/lexer.c **** }
 2113              		.loc 1 774 1 view .LVU699
 2114 003c 1844     		add	r0, r0, r3
 2115 003e BDE8F883 		pop	{r3, r4, r5, r6, r7, r8, r9, pc}
 2116              	.LVL168:
 2117              	.L165:
 726:libscpi/src/lexer.c ****             /* Get number of digits */
 2118              		.loc 1 726 50 discriminator 1 view .LVU700
 2119 0042 6368     		ldr	r3, [r4, #4]
 2120              	.LBB182:
 2121              	.LBB183:
 709:libscpi/src/lexer.c **** }
 2122              		.loc 1 709 12 discriminator 1 view .LVU701
 2123 0044 1C4F     		ldr	r7, .L183
 2124              	.LBE183:
 2125              	.LBE182:
 726:libscpi/src/lexer.c ****             /* Get number of digits */
 2126              		.loc 1 726 55 discriminator 1 view .LVU702
 2127 0046 1E78     		ldrb	r6, [r3]	@ zero_extendqisi2
 2128              	.LVL169:
 2129              	.LBB185:
 2130              	.LBI182:
 708:libscpi/src/lexer.c ****     return isdigit(c) && (c != '0');
 2131              		.loc 1 708 12 is_stmt 1 discriminator 1 view .LVU703
 2132              	.LBB184:
 709:libscpi/src/lexer.c **** }
 2133              		.loc 1 709 5 discriminator 1 view .LVU704
 709:libscpi/src/lexer.c **** }
 2134              		.loc 1 709 23 is_stmt 0 discriminator 1 view .LVU705
 2135 0048 F25D     		ldrb	r2, [r6, r7]	@ zero_extendqisi2
 2136 004a 5207     		lsls	r2, r2, #29
 2137 004c 2CD5     		bpl	.L164
 709:libscpi/src/lexer.c **** }
 2138              		.loc 1 709 23 view .LVU706
 2139 004e 302E     		cmp	r6, #48
 2140 0050 2AD0     		beq	.L164
 2141              	.LVL170:
 709:libscpi/src/lexer.c **** }
 2142              		.loc 1 709 23 view .LVU707
 2143              	.LBE184:
 2144              	.LBE185:
 728:libscpi/src/lexer.c ****             state->pos++;
 2145              		.loc 1 728 13 is_stmt 1 view .LVU708
 729:libscpi/src/lexer.c **** 
 2146              		.loc 1 729 23 is_stmt 0 view .LVU709
 2147 0052 0133     		adds	r3, r3, #1
 728:libscpi/src/lexer.c ****             state->pos++;
 2148              		.loc 1 728 15 view .LVU710
 2149 0054 303E     		subs	r6, r6, #48
 2150              	.LVL171:
 729:libscpi/src/lexer.c **** 
 2151              		.loc 1 729 13 is_stmt 1 view .LVU711
ARM GAS  /tmp/cc1oM6Yq.s 			page 61


 729:libscpi/src/lexer.c **** 
 2152              		.loc 1 729 23 is_stmt 0 view .LVU712
 2153 0056 6360     		str	r3, [r4, #4]
 731:libscpi/src/lexer.c ****                 if (!iseos(state) && isdigit((uint8_t)(state->pos[0]))) {
 2154              		.loc 1 731 13 is_stmt 1 view .LVU713
 733:libscpi/src/lexer.c ****                     arbitraryBlockLength += (state->pos[0] - '0');
 2155              		.loc 1 733 42 is_stmt 0 view .LVU714
 2156 0058 4FF00A09 		mov	r9, #10
 2157              	.LVL172:
 2158              	.L167:
 731:libscpi/src/lexer.c ****                 if (!iseos(state) && isdigit((uint8_t)(state->pos[0]))) {
 2159              		.loc 1 731 20 is_stmt 1 discriminator 1 view .LVU715
 731:libscpi/src/lexer.c ****                 if (!iseos(state) && isdigit((uint8_t)(state->pos[0]))) {
 2160              		.loc 1 731 13 is_stmt 0 discriminator 1 view .LVU716
 2161 005c 002E     		cmp	r6, #0
 2162 005e 0DDC     		bgt	.L169
 741:libscpi/src/lexer.c ****                 state->pos += arbitraryBlockLength;
 2163              		.loc 1 741 13 is_stmt 1 view .LVU717
 741:libscpi/src/lexer.c ****                 state->pos += arbitraryBlockLength;
 2164              		.loc 1 741 16 is_stmt 0 view .LVU718
 2165 0060 1DD1     		bne	.L170
 742:libscpi/src/lexer.c ****                 if ((state->buffer + state->len) >= (state->pos)) {
 2166              		.loc 1 742 17 is_stmt 1 view .LVU719
 742:libscpi/src/lexer.c ****                 if ((state->buffer + state->len) >= (state->pos)) {
 2167              		.loc 1 742 28 is_stmt 0 view .LVU720
 2168 0062 6268     		ldr	r2, [r4, #4]
 743:libscpi/src/lexer.c ****                     token->ptr = state->pos - arbitraryBlockLength;
 2169              		.loc 1 743 36 view .LVU721
 2170 0064 2368     		ldr	r3, [r4]
 2171 0066 A668     		ldr	r6, [r4, #8]
 2172              	.LVL173:
 742:libscpi/src/lexer.c ****                 if ((state->buffer + state->len) >= (state->pos)) {
 2173              		.loc 1 742 28 view .LVU722
 2174 0068 5018     		adds	r0, r2, r1
 743:libscpi/src/lexer.c ****                     token->ptr = state->pos - arbitraryBlockLength;
 2175              		.loc 1 743 36 view .LVU723
 2176 006a 3344     		add	r3, r3, r6
 743:libscpi/src/lexer.c ****                     token->ptr = state->pos - arbitraryBlockLength;
 2177              		.loc 1 743 20 view .LVU724
 2178 006c 9842     		cmp	r0, r3
 742:libscpi/src/lexer.c ****                 if ((state->buffer + state->len) >= (state->pos)) {
 2179              		.loc 1 742 28 view .LVU725
 2180 006e 6060     		str	r0, [r4, #4]
 743:libscpi/src/lexer.c ****                     token->ptr = state->pos - arbitraryBlockLength;
 2181              		.loc 1 743 17 is_stmt 1 view .LVU726
 743:libscpi/src/lexer.c ****                     token->ptr = state->pos - arbitraryBlockLength;
 2182              		.loc 1 743 20 is_stmt 0 view .LVU727
 2183 0070 D8D8     		bhi	.L168
 744:libscpi/src/lexer.c ****                     token->len = arbitraryBlockLength;
 2184              		.loc 1 744 21 is_stmt 1 view .LVU728
 760:libscpi/src/lexer.c ****     } else if (validData == 0) {
 2185              		.loc 1 760 21 is_stmt 0 view .LVU729
 2186 0072 0D23     		movs	r3, #13
 745:libscpi/src/lexer.c ****                     validData = 1;
 2187              		.loc 1 745 32 view .LVU730
 2188 0074 C5E90121 		strd	r2, r1, [r5, #4]
 746:libscpi/src/lexer.c ****                 } else {
ARM GAS  /tmp/cc1oM6Yq.s 			page 62


 2189              		.loc 1 746 21 is_stmt 1 view .LVU731
 2190              	.LVL174:
 758:libscpi/src/lexer.c ****         /* valid */
 2191              		.loc 1 758 5 view .LVU732
 760:libscpi/src/lexer.c ****     } else if (validData == 0) {
 2192              		.loc 1 760 9 view .LVU733
 760:libscpi/src/lexer.c ****     } else if (validData == 0) {
 2193              		.loc 1 760 21 is_stmt 0 view .LVU734
 2194 0078 2B70     		strb	r3, [r5]
 2195 007a DBE7     		b	.L166
 2196              	.LVL175:
 2197              	.L169:
 732:libscpi/src/lexer.c ****                     arbitraryBlockLength *= 10;
 2198              		.loc 1 732 17 is_stmt 1 view .LVU735
 732:libscpi/src/lexer.c ****                     arbitraryBlockLength *= 10;
 2199              		.loc 1 732 22 is_stmt 0 view .LVU736
 2200 007c 2046     		mov	r0, r4
 2201 007e FFF7FEFF 		bl	iseos
 2202              	.LVL176:
 732:libscpi/src/lexer.c ****                     arbitraryBlockLength *= 10;
 2203              		.loc 1 732 20 view .LVU737
 2204 0082 0028     		cmp	r0, #0
 2205 0084 CED1     		bne	.L168
 732:libscpi/src/lexer.c ****                     arbitraryBlockLength *= 10;
 2206              		.loc 1 732 38 discriminator 1 view .LVU738
 2207 0086 6368     		ldr	r3, [r4, #4]
 2208 0088 1A78     		ldrb	r2, [r3]	@ zero_extendqisi2
 732:libscpi/src/lexer.c ****                     arbitraryBlockLength *= 10;
 2209              		.loc 1 732 35 discriminator 1 view .LVU739
 2210 008a B85C     		ldrb	r0, [r7, r2]	@ zero_extendqisi2
 2211 008c 4007     		lsls	r0, r0, #29
 2212 008e 0BD5     		bpl	.L164
 733:libscpi/src/lexer.c ****                     arbitraryBlockLength += (state->pos[0] - '0');
 2213              		.loc 1 733 21 is_stmt 1 view .LVU740
 2214              	.LVL177:
 734:libscpi/src/lexer.c ****                     state->pos++;
 2215              		.loc 1 734 21 view .LVU741
 734:libscpi/src/lexer.c ****                     state->pos++;
 2216              		.loc 1 734 60 is_stmt 0 view .LVU742
 2217 0090 303A     		subs	r2, r2, #48
 735:libscpi/src/lexer.c ****                 } else {
 2218              		.loc 1 735 31 view .LVU743
 2219 0092 0133     		adds	r3, r3, #1
 734:libscpi/src/lexer.c ****                     state->pos++;
 2220              		.loc 1 734 42 view .LVU744
 2221 0094 09FB0121 		mla	r1, r9, r1, r2
 2222              	.LVL178:
 735:libscpi/src/lexer.c ****                 } else {
 2223              		.loc 1 735 21 is_stmt 1 view .LVU745
 735:libscpi/src/lexer.c ****                 } else {
 2224              		.loc 1 735 31 is_stmt 0 view .LVU746
 2225 0098 6360     		str	r3, [r4, #4]
 731:libscpi/src/lexer.c ****                 if (!iseos(state) && isdigit((uint8_t)(state->pos[0]))) {
 2226              		.loc 1 731 27 is_stmt 1 view .LVU747
 731:libscpi/src/lexer.c ****                 if (!iseos(state) && isdigit((uint8_t)(state->pos[0]))) {
 2227              		.loc 1 731 28 is_stmt 0 view .LVU748
 2228 009a 013E     		subs	r6, r6, #1
ARM GAS  /tmp/cc1oM6Yq.s 			page 63


 2229              	.LVL179:
 731:libscpi/src/lexer.c ****                 if (!iseos(state) && isdigit((uint8_t)(state->pos[0]))) {
 2230              		.loc 1 731 28 view .LVU749
 2231 009c DEE7     		b	.L167
 2232              	.L170:
 750:libscpi/src/lexer.c ****                 validData = 0;
 2233              		.loc 1 750 20 is_stmt 1 view .LVU750
 750:libscpi/src/lexer.c ****                 validData = 0;
 2234              		.loc 1 750 24 is_stmt 0 view .LVU751
 2235 009e 2046     		mov	r0, r4
 2236 00a0 FFF7FEFF 		bl	iseos
 2237              	.LVL180:
 750:libscpi/src/lexer.c ****                 validData = 0;
 2238              		.loc 1 750 23 view .LVU752
 2239 00a4 0028     		cmp	r0, #0
 2240 00a6 BDD1     		bne	.L168
 2241              	.LVL181:
 2242              	.L164:
 768:libscpi/src/lexer.c ****         state->pos = token->ptr;
 2243              		.loc 1 768 9 is_stmt 1 view .LVU753
 768:libscpi/src/lexer.c ****         state->pos = token->ptr;
 2244              		.loc 1 768 21 is_stmt 0 view .LVU754
 2245 00a8 1A23     		movs	r3, #26
 2246 00aa 2B70     		strb	r3, [r5]
 769:libscpi/src/lexer.c ****         token->len = 0;
 2247              		.loc 1 769 9 is_stmt 1 view .LVU755
 769:libscpi/src/lexer.c ****         token->len = 0;
 2248              		.loc 1 769 20 is_stmt 0 view .LVU756
 2249 00ac 6B68     		ldr	r3, [r5, #4]
 2250 00ae 6360     		str	r3, [r4, #4]
 770:libscpi/src/lexer.c ****     }
 2251              		.loc 1 770 9 is_stmt 1 view .LVU757
 770:libscpi/src/lexer.c ****     }
 2252              		.loc 1 770 20 is_stmt 0 view .LVU758
 2253 00b0 0023     		movs	r3, #0
 2254 00b2 AB60     		str	r3, [r5, #8]
 2255 00b4 BEE7     		b	.L166
 2256              	.L184:
 2257 00b6 00BF     		.align	2
 2258              	.L183:
 2259 00b8 01000000 		.word	_ctype_+1
 2260              		.cfi_endproc
 2261              	.LFE43:
 2263              		.section	.text.scpiLex_ProgramExpression,"ax",%progbits
 2264              		.align	1
 2265              		.global	scpiLex_ProgramExpression
 2266              		.hidden	scpiLex_ProgramExpression
 2267              		.syntax unified
 2268              		.thumb
 2269              		.thumb_func
 2270              		.fpu fpv4-sp-d16
 2272              	scpiLex_ProgramExpression:
 2273              	.LVL182:
 2274              	.LFB46:
 775:libscpi/src/lexer.c **** 
 776:libscpi/src/lexer.c **** /* 7.7.7 <EXPRESSION PROGRAM DATA> */
 777:libscpi/src/lexer.c **** static int isProgramExpression(int c) {
ARM GAS  /tmp/cc1oM6Yq.s 			page 64


 778:libscpi/src/lexer.c ****     if ((c >= 0x20) && (c <= 0x7e)) {
 779:libscpi/src/lexer.c ****         if ((c != '"')
 780:libscpi/src/lexer.c ****                 && (c != '#')
 781:libscpi/src/lexer.c ****                 && (c != '\'')
 782:libscpi/src/lexer.c ****                 && (c != '(')
 783:libscpi/src/lexer.c ****                 && (c != ')')
 784:libscpi/src/lexer.c ****                 && (c != ';')) {
 785:libscpi/src/lexer.c ****             return 1;
 786:libscpi/src/lexer.c ****         }
 787:libscpi/src/lexer.c ****     }
 788:libscpi/src/lexer.c **** 
 789:libscpi/src/lexer.c ****     return 0;
 790:libscpi/src/lexer.c **** }
 791:libscpi/src/lexer.c **** 
 792:libscpi/src/lexer.c **** static void skipProgramExpression(lex_state_t * state) {
 793:libscpi/src/lexer.c ****     while (!iseos(state) && isProgramExpression(state->pos[0])) {
 794:libscpi/src/lexer.c ****         state->pos++;
 795:libscpi/src/lexer.c ****     }
 796:libscpi/src/lexer.c **** }
 797:libscpi/src/lexer.c **** 
 798:libscpi/src/lexer.c **** /* TODO: 7.7.7.2-2 recursive - any program data */
 799:libscpi/src/lexer.c **** 
 800:libscpi/src/lexer.c **** /**
 801:libscpi/src/lexer.c ****  * Detect token Expression
 802:libscpi/src/lexer.c ****  * @param state
 803:libscpi/src/lexer.c ****  * @param token
 804:libscpi/src/lexer.c ****  * @return 
 805:libscpi/src/lexer.c ****  */
 806:libscpi/src/lexer.c **** int scpiLex_ProgramExpression(lex_state_t * state, scpi_token_t * token) {
 2275              		.loc 1 806 74 is_stmt 1 view -0
 2276              		.cfi_startproc
 2277              		@ args = 0, pretend = 0, frame = 0
 2278              		@ frame_needed = 0, uses_anonymous_args = 0
 807:libscpi/src/lexer.c ****     token->ptr = state->pos;
 2279              		.loc 1 807 5 view .LVU760
 806:libscpi/src/lexer.c ****     token->ptr = state->pos;
 2280              		.loc 1 806 74 is_stmt 0 view .LVU761
 2281 0000 70B5     		push	{r4, r5, r6, lr}
 2282              	.LCFI16:
 2283              		.cfi_def_cfa_offset 16
 2284              		.cfi_offset 4, -16
 2285              		.cfi_offset 5, -12
 2286              		.cfi_offset 6, -8
 2287              		.cfi_offset 14, -4
 2288              		.loc 1 807 23 view .LVU762
 2289 0002 4568     		ldr	r5, [r0, #4]
 2290              		.loc 1 807 16 view .LVU763
 2291 0004 4D60     		str	r5, [r1, #4]
 808:libscpi/src/lexer.c **** 
 809:libscpi/src/lexer.c ****     if (!iseos(state) && ischr(state, '(')) {
 2292              		.loc 1 809 5 is_stmt 1 view .LVU764
 806:libscpi/src/lexer.c ****     token->ptr = state->pos;
 2293              		.loc 1 806 74 is_stmt 0 view .LVU765
 2294 0006 0446     		mov	r4, r0
 2295              		.loc 1 809 10 view .LVU766
 2296 0008 FFF7FEFF 		bl	iseos
 2297              	.LVL183:
ARM GAS  /tmp/cc1oM6Yq.s 			page 65


 2298              		.loc 1 809 8 view .LVU767
 2299 000c 38BB     		cbnz	r0, .L186
 2300              	.LVL184:
 2301              	.LBB194:
 2302              	.LBI194:
 109:libscpi/src/lexer.c ****     return (state->pos[0] == chr);
 2303              		.loc 1 109 12 is_stmt 1 discriminator 1 view .LVU768
 2304              	.LBB195:
 110:libscpi/src/lexer.c **** }
 2305              		.loc 1 110 5 discriminator 1 view .LVU769
 110:libscpi/src/lexer.c **** }
 2306              		.loc 1 110 5 is_stmt 0 discriminator 1 view .LVU770
 2307              	.LBE195:
 2308              	.LBE194:
 2309              		.loc 1 809 23 discriminator 1 view .LVU771
 2310 000e 2B78     		ldrb	r3, [r5]	@ zero_extendqisi2
 2311 0010 282B     		cmp	r3, #40
 2312 0012 24D1     		bne	.L186
 810:libscpi/src/lexer.c ****         state->pos++;
 2313              		.loc 1 810 9 is_stmt 1 view .LVU772
 2314              		.loc 1 810 19 is_stmt 0 view .LVU773
 2315 0014 6B1C     		adds	r3, r5, #1
 2316              	.LBB196:
 2317              	.LBB197:
 2318              	.LBB198:
 2319              	.LBB199:
 779:libscpi/src/lexer.c ****                 && (c != '#')
 2320              		.loc 1 779 12 view .LVU774
 2321 0016 154E     		ldr	r6, .L197
 2322              	.LBE199:
 2323              	.LBE198:
 2324              	.LBE197:
 2325              	.LBE196:
 2326              		.loc 1 810 19 view .LVU775
 2327 0018 6360     		str	r3, [r4, #4]
 811:libscpi/src/lexer.c ****         skipProgramExpression(state);
 2328              		.loc 1 811 9 is_stmt 1 view .LVU776
 2329              	.LVL185:
 2330              	.LBB203:
 2331              	.LBI196:
 792:libscpi/src/lexer.c ****     while (!iseos(state) && isProgramExpression(state->pos[0])) {
 2332              		.loc 1 792 13 view .LVU777
 2333              	.LBB202:
 793:libscpi/src/lexer.c ****         state->pos++;
 2334              		.loc 1 793 5 view .LVU778
 2335              	.L190:
 793:libscpi/src/lexer.c ****         state->pos++;
 2336              		.loc 1 793 11 view .LVU779
 793:libscpi/src/lexer.c ****         state->pos++;
 2337              		.loc 1 793 13 is_stmt 0 view .LVU780
 2338 001a 2046     		mov	r0, r4
 2339 001c FFF7FEFF 		bl	iseos
 2340              	.LVL186:
 793:libscpi/src/lexer.c ****         state->pos++;
 2341              		.loc 1 793 11 view .LVU781
 2342 0020 88B9     		cbnz	r0, .L187
 793:libscpi/src/lexer.c ****         state->pos++;
ARM GAS  /tmp/cc1oM6Yq.s 			page 66


 2343              		.loc 1 793 54 view .LVU782
 2344 0022 6368     		ldr	r3, [r4, #4]
 793:libscpi/src/lexer.c ****         state->pos++;
 2345              		.loc 1 793 59 view .LVU783
 2346 0024 1878     		ldrb	r0, [r3]	@ zero_extendqisi2
 2347              	.LVL187:
 2348              	.LBB201:
 2349              	.LBI198:
 777:libscpi/src/lexer.c ****     if ((c >= 0x20) && (c <= 0x7e)) {
 2350              		.loc 1 777 12 is_stmt 1 view .LVU784
 2351              	.LBB200:
 778:libscpi/src/lexer.c ****         if ((c != '"')
 2352              		.loc 1 778 5 view .LVU785
 778:libscpi/src/lexer.c ****         if ((c != '"')
 2353              		.loc 1 778 21 is_stmt 0 view .LVU786
 2354 0026 A0F12002 		sub	r2, r0, #32
 778:libscpi/src/lexer.c ****         if ((c != '"')
 2355              		.loc 1 778 8 view .LVU787
 2356 002a 5E2A     		cmp	r2, #94
 2357 002c 11D8     		bhi	.L188
 779:libscpi/src/lexer.c ****                 && (c != '#')
 2358              		.loc 1 779 9 is_stmt 1 view .LVU788
 779:libscpi/src/lexer.c ****                 && (c != '#')
 2359              		.loc 1 779 12 is_stmt 0 view .LVU789
 2360 002e A0F12202 		sub	r2, r0, #34
 2361 0032 D2B2     		uxtb	r2, r2
 2362 0034 192A     		cmp	r2, #25
 2363 0036 03D8     		bhi	.L189
 2364 0038 26FA02F2 		lsr	r2, r6, r2
 2365 003c D207     		lsls	r2, r2, #31
 2366 003e 08D4     		bmi	.L188
 2367              	.L189:
 785:libscpi/src/lexer.c ****         }
 2368              		.loc 1 785 13 is_stmt 1 view .LVU790
 2369              	.LVL188:
 785:libscpi/src/lexer.c ****         }
 2370              		.loc 1 785 13 is_stmt 0 view .LVU791
 2371              	.LBE200:
 2372              	.LBE201:
 794:libscpi/src/lexer.c ****     }
 2373              		.loc 1 794 9 is_stmt 1 view .LVU792
 794:libscpi/src/lexer.c ****     }
 2374              		.loc 1 794 19 is_stmt 0 view .LVU793
 2375 0040 0133     		adds	r3, r3, #1
 2376 0042 6360     		str	r3, [r4, #4]
 2377 0044 E9E7     		b	.L190
 2378              	.LVL189:
 2379              	.L187:
 794:libscpi/src/lexer.c ****     }
 2380              		.loc 1 794 19 view .LVU794
 2381              	.LBE202:
 2382              	.LBE203:
 812:libscpi/src/lexer.c **** 
 813:libscpi/src/lexer.c ****         if (!iseos(state) && ischr(state, ')')) {
 814:libscpi/src/lexer.c ****             state->pos++;
 815:libscpi/src/lexer.c ****             token->len = state->pos - token->ptr;
 816:libscpi/src/lexer.c ****         } else {
ARM GAS  /tmp/cc1oM6Yq.s 			page 67


 817:libscpi/src/lexer.c ****             token->len = 0;
 818:libscpi/src/lexer.c ****         }
 819:libscpi/src/lexer.c ****     }
 820:libscpi/src/lexer.c **** 
 821:libscpi/src/lexer.c ****     if ((token->len > 0)) {
 822:libscpi/src/lexer.c ****         token->type = SCPI_TOKEN_PROGRAM_EXPRESSION;
 823:libscpi/src/lexer.c ****     } else {
 824:libscpi/src/lexer.c ****         token->type = SCPI_TOKEN_UNKNOWN;
 2383              		.loc 1 824 9 is_stmt 1 view .LVU795
 2384              		.loc 1 824 21 is_stmt 0 view .LVU796
 2385 0046 1A23     		movs	r3, #26
 2386 0048 0B70     		strb	r3, [r1]
 825:libscpi/src/lexer.c ****         state->pos = token->ptr;
 2387              		.loc 1 825 9 is_stmt 1 view .LVU797
 826:libscpi/src/lexer.c ****         token->len = 0;
 2388              		.loc 1 826 20 is_stmt 0 view .LVU798
 2389 004a 0023     		movs	r3, #0
 825:libscpi/src/lexer.c ****         state->pos = token->ptr;
 2390              		.loc 1 825 20 view .LVU799
 2391 004c 6560     		str	r5, [r4, #4]
 2392              		.loc 1 826 9 is_stmt 1 view .LVU800
 2393              		.loc 1 826 20 is_stmt 0 view .LVU801
 2394 004e 8B60     		str	r3, [r1, #8]
 2395 0050 0AE0     		b	.L191
 2396              	.LVL190:
 2397              	.L188:
 813:libscpi/src/lexer.c ****             state->pos++;
 2398              		.loc 1 813 9 is_stmt 1 view .LVU802
 110:libscpi/src/lexer.c **** }
 2399              		.loc 1 110 5 view .LVU803
 813:libscpi/src/lexer.c ****             state->pos++;
 2400              		.loc 1 813 27 is_stmt 0 view .LVU804
 2401 0052 2928     		cmp	r0, #41
 2402 0054 F7D1     		bne	.L187
 814:libscpi/src/lexer.c ****             token->len = state->pos - token->ptr;
 2403              		.loc 1 814 13 is_stmt 1 view .LVU805
 814:libscpi/src/lexer.c ****             token->len = state->pos - token->ptr;
 2404              		.loc 1 814 23 is_stmt 0 view .LVU806
 2405 0056 0133     		adds	r3, r3, #1
 2406 0058 6360     		str	r3, [r4, #4]
 815:libscpi/src/lexer.c ****         } else {
 2407              		.loc 1 815 13 is_stmt 1 view .LVU807
 815:libscpi/src/lexer.c ****         } else {
 2408              		.loc 1 815 37 is_stmt 0 view .LVU808
 2409 005a 5B1B     		subs	r3, r3, r5
 815:libscpi/src/lexer.c ****         } else {
 2410              		.loc 1 815 24 view .LVU809
 2411 005c 8B60     		str	r3, [r1, #8]
 2412              	.LVL191:
 2413              	.L186:
 821:libscpi/src/lexer.c ****         token->type = SCPI_TOKEN_PROGRAM_EXPRESSION;
 2414              		.loc 1 821 5 is_stmt 1 view .LVU810
 821:libscpi/src/lexer.c ****         token->type = SCPI_TOKEN_PROGRAM_EXPRESSION;
 2415              		.loc 1 821 8 is_stmt 0 view .LVU811
 2416 005e 8B68     		ldr	r3, [r1, #8]
 2417 0060 002B     		cmp	r3, #0
 2418 0062 F0DD     		ble	.L187
ARM GAS  /tmp/cc1oM6Yq.s 			page 68


 822:libscpi/src/lexer.c ****     } else {
 2419              		.loc 1 822 9 is_stmt 1 view .LVU812
 822:libscpi/src/lexer.c ****     } else {
 2420              		.loc 1 822 21 is_stmt 0 view .LVU813
 2421 0064 1023     		movs	r3, #16
 2422 0066 0B70     		strb	r3, [r1]
 2423              	.L191:
 827:libscpi/src/lexer.c ****     }
 828:libscpi/src/lexer.c **** 
 829:libscpi/src/lexer.c ****     return token->len;
 2424              		.loc 1 829 5 is_stmt 1 view .LVU814
 2425              		.loc 1 829 17 is_stmt 0 view .LVU815
 2426 0068 8868     		ldr	r0, [r1, #8]
 830:libscpi/src/lexer.c **** }
 2427              		.loc 1 830 1 view .LVU816
 2428 006a 70BD     		pop	{r4, r5, r6, pc}
 2429              	.LVL192:
 2430              	.L198:
 2431              		.loc 1 830 1 view .LVU817
 2432              		.align	2
 2433              	.L197:
 2434 006c E3000002 		.word	33554659
 2435              		.cfi_endproc
 2436              	.LFE46:
 2438              		.section	.text.scpiLex_Comma,"ax",%progbits
 2439              		.align	1
 2440              		.global	scpiLex_Comma
 2441              		.hidden	scpiLex_Comma
 2442              		.syntax unified
 2443              		.thumb
 2444              		.thumb_func
 2445              		.fpu fpv4-sp-d16
 2447              	scpiLex_Comma:
 2448              	.LVL193:
 2449              	.LFB47:
 831:libscpi/src/lexer.c **** 
 832:libscpi/src/lexer.c **** /**
 833:libscpi/src/lexer.c ****  * Detect token comma
 834:libscpi/src/lexer.c ****  * @param state
 835:libscpi/src/lexer.c ****  * @param token
 836:libscpi/src/lexer.c ****  * @return 
 837:libscpi/src/lexer.c ****  */
 838:libscpi/src/lexer.c **** int scpiLex_Comma(lex_state_t * state, scpi_token_t * token) {
 2450              		.loc 1 838 62 is_stmt 1 view -0
 2451              		.cfi_startproc
 2452              		@ args = 0, pretend = 0, frame = 0
 2453              		@ frame_needed = 0, uses_anonymous_args = 0
 839:libscpi/src/lexer.c ****     token->ptr = state->pos;
 2454              		.loc 1 839 5 view .LVU819
 2455              		.loc 1 839 16 is_stmt 0 view .LVU820
 2456 0000 4368     		ldr	r3, [r0, #4]
 838:libscpi/src/lexer.c ****     token->ptr = state->pos;
 2457              		.loc 1 838 62 view .LVU821
 2458 0002 10B5     		push	{r4, lr}
 2459              	.LCFI17:
 2460              		.cfi_def_cfa_offset 8
 2461              		.cfi_offset 4, -8
ARM GAS  /tmp/cc1oM6Yq.s 			page 69


 2462              		.cfi_offset 14, -4
 838:libscpi/src/lexer.c ****     token->ptr = state->pos;
 2463              		.loc 1 838 62 view .LVU822
 2464 0004 0C46     		mov	r4, r1
 2465              		.loc 1 839 16 view .LVU823
 2466 0006 4B60     		str	r3, [r1, #4]
 840:libscpi/src/lexer.c **** 
 841:libscpi/src/lexer.c ****     if (skipChr(state, ',')) {
 2467              		.loc 1 841 5 is_stmt 1 view .LVU824
 2468              		.loc 1 841 9 is_stmt 0 view .LVU825
 2469 0008 2C21     		movs	r1, #44
 2470              	.LVL194:
 2471              		.loc 1 841 9 view .LVU826
 2472 000a FFF7FEFF 		bl	skipChr
 2473              	.LVL195:
 2474              		.loc 1 841 8 view .LVU827
 2475 000e 28B1     		cbz	r0, .L200
 842:libscpi/src/lexer.c ****         token->len = 1;
 2476              		.loc 1 842 9 is_stmt 1 view .LVU828
 2477              		.loc 1 842 20 is_stmt 0 view .LVU829
 2478 0010 0123     		movs	r3, #1
 2479 0012 A360     		str	r3, [r4, #8]
 843:libscpi/src/lexer.c ****         token->type = SCPI_TOKEN_COMMA;
 2480              		.loc 1 843 9 is_stmt 1 view .LVU830
 2481              		.loc 1 843 21 is_stmt 0 view .LVU831
 2482 0014 0023     		movs	r3, #0
 2483              	.L202:
 844:libscpi/src/lexer.c ****     } else {
 845:libscpi/src/lexer.c ****         token->len = 0;
 846:libscpi/src/lexer.c ****         token->type = SCPI_TOKEN_UNKNOWN;
 847:libscpi/src/lexer.c ****     }
 848:libscpi/src/lexer.c **** 
 849:libscpi/src/lexer.c ****     return token->len;
 850:libscpi/src/lexer.c **** }
 2484              		.loc 1 850 1 view .LVU832
 2485 0016 A068     		ldr	r0, [r4, #8]
 846:libscpi/src/lexer.c ****     }
 2486              		.loc 1 846 21 view .LVU833
 2487 0018 2370     		strb	r3, [r4]
 849:libscpi/src/lexer.c **** }
 2488              		.loc 1 849 5 is_stmt 1 view .LVU834
 2489              		.loc 1 850 1 is_stmt 0 view .LVU835
 2490 001a 10BD     		pop	{r4, pc}
 2491              	.LVL196:
 2492              	.L200:
 845:libscpi/src/lexer.c ****         token->type = SCPI_TOKEN_UNKNOWN;
 2493              		.loc 1 845 9 is_stmt 1 view .LVU836
 845:libscpi/src/lexer.c ****         token->type = SCPI_TOKEN_UNKNOWN;
 2494              		.loc 1 845 20 is_stmt 0 view .LVU837
 2495 001c A060     		str	r0, [r4, #8]
 846:libscpi/src/lexer.c ****     }
 2496              		.loc 1 846 9 is_stmt 1 view .LVU838
 846:libscpi/src/lexer.c ****     }
 2497              		.loc 1 846 21 is_stmt 0 view .LVU839
 2498 001e 1A23     		movs	r3, #26
 2499 0020 F9E7     		b	.L202
 2500              		.cfi_endproc
ARM GAS  /tmp/cc1oM6Yq.s 			page 70


 2501              	.LFE47:
 2503              		.section	.text.scpiLex_Semicolon,"ax",%progbits
 2504              		.align	1
 2505              		.global	scpiLex_Semicolon
 2506              		.hidden	scpiLex_Semicolon
 2507              		.syntax unified
 2508              		.thumb
 2509              		.thumb_func
 2510              		.fpu fpv4-sp-d16
 2512              	scpiLex_Semicolon:
 2513              	.LVL197:
 2514              	.LFB48:
 851:libscpi/src/lexer.c **** 
 852:libscpi/src/lexer.c **** /**
 853:libscpi/src/lexer.c ****  * Detect token semicolon
 854:libscpi/src/lexer.c ****  * @param state
 855:libscpi/src/lexer.c ****  * @param token
 856:libscpi/src/lexer.c ****  * @return 
 857:libscpi/src/lexer.c ****  */
 858:libscpi/src/lexer.c **** int scpiLex_Semicolon(lex_state_t * state, scpi_token_t * token) {
 2515              		.loc 1 858 66 is_stmt 1 view -0
 2516              		.cfi_startproc
 2517              		@ args = 0, pretend = 0, frame = 0
 2518              		@ frame_needed = 0, uses_anonymous_args = 0
 859:libscpi/src/lexer.c ****     token->ptr = state->pos;
 2519              		.loc 1 859 5 view .LVU841
 2520              		.loc 1 859 16 is_stmt 0 view .LVU842
 2521 0000 4368     		ldr	r3, [r0, #4]
 858:libscpi/src/lexer.c ****     token->ptr = state->pos;
 2522              		.loc 1 858 66 view .LVU843
 2523 0002 10B5     		push	{r4, lr}
 2524              	.LCFI18:
 2525              		.cfi_def_cfa_offset 8
 2526              		.cfi_offset 4, -8
 2527              		.cfi_offset 14, -4
 858:libscpi/src/lexer.c ****     token->ptr = state->pos;
 2528              		.loc 1 858 66 view .LVU844
 2529 0004 0C46     		mov	r4, r1
 2530              		.loc 1 859 16 view .LVU845
 2531 0006 4B60     		str	r3, [r1, #4]
 860:libscpi/src/lexer.c **** 
 861:libscpi/src/lexer.c ****     if (skipChr(state, ';')) {
 2532              		.loc 1 861 5 is_stmt 1 view .LVU846
 2533              		.loc 1 861 9 is_stmt 0 view .LVU847
 2534 0008 3B21     		movs	r1, #59
 2535              	.LVL198:
 2536              		.loc 1 861 9 view .LVU848
 2537 000a FFF7FEFF 		bl	skipChr
 2538              	.LVL199:
 2539              		.loc 1 861 8 view .LVU849
 2540 000e 20B1     		cbz	r0, .L204
 862:libscpi/src/lexer.c ****         token->len = 1;
 2541              		.loc 1 862 9 is_stmt 1 view .LVU850
 2542              		.loc 1 862 20 is_stmt 0 view .LVU851
 2543 0010 0123     		movs	r3, #1
 2544 0012 A360     		str	r3, [r4, #8]
 863:libscpi/src/lexer.c ****         token->type = SCPI_TOKEN_SEMICOLON;
ARM GAS  /tmp/cc1oM6Yq.s 			page 71


 2545              		.loc 1 863 9 is_stmt 1 view .LVU852
 2546              	.L206:
 864:libscpi/src/lexer.c ****     } else {
 865:libscpi/src/lexer.c ****         token->len = 0;
 866:libscpi/src/lexer.c ****         token->type = SCPI_TOKEN_UNKNOWN;
 867:libscpi/src/lexer.c ****     }
 868:libscpi/src/lexer.c **** 
 869:libscpi/src/lexer.c ****     return token->len;
 870:libscpi/src/lexer.c **** }
 2547              		.loc 1 870 1 is_stmt 0 view .LVU853
 2548 0014 A068     		ldr	r0, [r4, #8]
 866:libscpi/src/lexer.c ****     }
 2549              		.loc 1 866 21 view .LVU854
 2550 0016 2370     		strb	r3, [r4]
 869:libscpi/src/lexer.c **** }
 2551              		.loc 1 869 5 is_stmt 1 view .LVU855
 2552              		.loc 1 870 1 is_stmt 0 view .LVU856
 2553 0018 10BD     		pop	{r4, pc}
 2554              	.LVL200:
 2555              	.L204:
 865:libscpi/src/lexer.c ****         token->type = SCPI_TOKEN_UNKNOWN;
 2556              		.loc 1 865 9 is_stmt 1 view .LVU857
 865:libscpi/src/lexer.c ****         token->type = SCPI_TOKEN_UNKNOWN;
 2557              		.loc 1 865 20 is_stmt 0 view .LVU858
 2558 001a A060     		str	r0, [r4, #8]
 866:libscpi/src/lexer.c ****     }
 2559              		.loc 1 866 9 is_stmt 1 view .LVU859
 866:libscpi/src/lexer.c ****     }
 2560              		.loc 1 866 21 is_stmt 0 view .LVU860
 2561 001c 1A23     		movs	r3, #26
 2562 001e F9E7     		b	.L206
 2563              		.cfi_endproc
 2564              	.LFE48:
 2566              		.section	.text.scpiLex_Colon,"ax",%progbits
 2567              		.align	1
 2568              		.global	scpiLex_Colon
 2569              		.hidden	scpiLex_Colon
 2570              		.syntax unified
 2571              		.thumb
 2572              		.thumb_func
 2573              		.fpu fpv4-sp-d16
 2575              	scpiLex_Colon:
 2576              	.LVL201:
 2577              	.LFB49:
 871:libscpi/src/lexer.c **** 
 872:libscpi/src/lexer.c **** /**
 873:libscpi/src/lexer.c ****  * Detect token colon
 874:libscpi/src/lexer.c ****  * @param state
 875:libscpi/src/lexer.c ****  * @param token
 876:libscpi/src/lexer.c ****  * @return 
 877:libscpi/src/lexer.c ****  */
 878:libscpi/src/lexer.c **** int scpiLex_Colon(lex_state_t * state, scpi_token_t * token) {
 2578              		.loc 1 878 62 is_stmt 1 view -0
 2579              		.cfi_startproc
 2580              		@ args = 0, pretend = 0, frame = 0
 2581              		@ frame_needed = 0, uses_anonymous_args = 0
 879:libscpi/src/lexer.c ****     token->ptr = state->pos;
ARM GAS  /tmp/cc1oM6Yq.s 			page 72


 2582              		.loc 1 879 5 view .LVU862
 2583              		.loc 1 879 16 is_stmt 0 view .LVU863
 2584 0000 4368     		ldr	r3, [r0, #4]
 878:libscpi/src/lexer.c ****     token->ptr = state->pos;
 2585              		.loc 1 878 62 view .LVU864
 2586 0002 10B5     		push	{r4, lr}
 2587              	.LCFI19:
 2588              		.cfi_def_cfa_offset 8
 2589              		.cfi_offset 4, -8
 2590              		.cfi_offset 14, -4
 878:libscpi/src/lexer.c ****     token->ptr = state->pos;
 2591              		.loc 1 878 62 view .LVU865
 2592 0004 0C46     		mov	r4, r1
 2593              		.loc 1 879 16 view .LVU866
 2594 0006 4B60     		str	r3, [r1, #4]
 880:libscpi/src/lexer.c **** 
 881:libscpi/src/lexer.c ****     if (skipChr(state, ':')) {
 2595              		.loc 1 881 5 is_stmt 1 view .LVU867
 2596              		.loc 1 881 9 is_stmt 0 view .LVU868
 2597 0008 3A21     		movs	r1, #58
 2598              	.LVL202:
 2599              		.loc 1 881 9 view .LVU869
 2600 000a FFF7FEFF 		bl	skipChr
 2601              	.LVL203:
 2602              		.loc 1 881 8 view .LVU870
 2603 000e 28B1     		cbz	r0, .L208
 882:libscpi/src/lexer.c ****         token->len = 1;
 2604              		.loc 1 882 9 is_stmt 1 view .LVU871
 2605              		.loc 1 882 20 is_stmt 0 view .LVU872
 2606 0010 0123     		movs	r3, #1
 2607 0012 A360     		str	r3, [r4, #8]
 883:libscpi/src/lexer.c ****         token->type = SCPI_TOKEN_COLON;
 2608              		.loc 1 883 9 is_stmt 1 view .LVU873
 2609              		.loc 1 883 21 is_stmt 0 view .LVU874
 2610 0014 0223     		movs	r3, #2
 2611              	.L210:
 884:libscpi/src/lexer.c ****     } else {
 885:libscpi/src/lexer.c ****         token->len = 0;
 886:libscpi/src/lexer.c ****         token->type = SCPI_TOKEN_UNKNOWN;
 887:libscpi/src/lexer.c ****     }
 888:libscpi/src/lexer.c **** 
 889:libscpi/src/lexer.c ****     return token->len;
 890:libscpi/src/lexer.c **** }
 2612              		.loc 1 890 1 view .LVU875
 2613 0016 A068     		ldr	r0, [r4, #8]
 886:libscpi/src/lexer.c ****     }
 2614              		.loc 1 886 21 view .LVU876
 2615 0018 2370     		strb	r3, [r4]
 889:libscpi/src/lexer.c **** }
 2616              		.loc 1 889 5 is_stmt 1 view .LVU877
 2617              		.loc 1 890 1 is_stmt 0 view .LVU878
 2618 001a 10BD     		pop	{r4, pc}
 2619              	.LVL204:
 2620              	.L208:
 885:libscpi/src/lexer.c ****         token->type = SCPI_TOKEN_UNKNOWN;
 2621              		.loc 1 885 9 is_stmt 1 view .LVU879
 885:libscpi/src/lexer.c ****         token->type = SCPI_TOKEN_UNKNOWN;
ARM GAS  /tmp/cc1oM6Yq.s 			page 73


 2622              		.loc 1 885 20 is_stmt 0 view .LVU880
 2623 001c A060     		str	r0, [r4, #8]
 886:libscpi/src/lexer.c ****     }
 2624              		.loc 1 886 9 is_stmt 1 view .LVU881
 886:libscpi/src/lexer.c ****     }
 2625              		.loc 1 886 21 is_stmt 0 view .LVU882
 2626 001e 1A23     		movs	r3, #26
 2627 0020 F9E7     		b	.L210
 2628              		.cfi_endproc
 2629              	.LFE49:
 2631              		.section	.text.scpiLex_SpecificCharacter,"ax",%progbits
 2632              		.align	1
 2633              		.global	scpiLex_SpecificCharacter
 2634              		.hidden	scpiLex_SpecificCharacter
 2635              		.syntax unified
 2636              		.thumb
 2637              		.thumb_func
 2638              		.fpu fpv4-sp-d16
 2640              	scpiLex_SpecificCharacter:
 2641              	.LVL205:
 2642              	.LFB50:
 891:libscpi/src/lexer.c **** 
 892:libscpi/src/lexer.c **** /**
 893:libscpi/src/lexer.c ****  * Detect specified character
 894:libscpi/src/lexer.c ****  * @param state
 895:libscpi/src/lexer.c ****  * @param token
 896:libscpi/src/lexer.c ****  * @return 
 897:libscpi/src/lexer.c ****  */
 898:libscpi/src/lexer.c **** int scpiLex_SpecificCharacter(lex_state_t * state, scpi_token_t * token, char chr) {
 2643              		.loc 1 898 84 is_stmt 1 view -0
 2644              		.cfi_startproc
 2645              		@ args = 0, pretend = 0, frame = 0
 2646              		@ frame_needed = 0, uses_anonymous_args = 0
 899:libscpi/src/lexer.c ****     token->ptr = state->pos;
 2647              		.loc 1 899 5 view .LVU884
 2648              		.loc 1 899 16 is_stmt 0 view .LVU885
 2649 0000 4368     		ldr	r3, [r0, #4]
 898:libscpi/src/lexer.c ****     token->ptr = state->pos;
 2650              		.loc 1 898 84 view .LVU886
 2651 0002 10B5     		push	{r4, lr}
 2652              	.LCFI20:
 2653              		.cfi_def_cfa_offset 8
 2654              		.cfi_offset 4, -8
 2655              		.cfi_offset 14, -4
 898:libscpi/src/lexer.c ****     token->ptr = state->pos;
 2656              		.loc 1 898 84 view .LVU887
 2657 0004 0C46     		mov	r4, r1
 2658              		.loc 1 899 16 view .LVU888
 2659 0006 4B60     		str	r3, [r1, #4]
 900:libscpi/src/lexer.c **** 
 901:libscpi/src/lexer.c ****     if (skipChr(state, chr)) {
 2660              		.loc 1 901 5 is_stmt 1 view .LVU889
 2661              		.loc 1 901 9 is_stmt 0 view .LVU890
 2662 0008 1146     		mov	r1, r2
 2663              	.LVL206:
 2664              		.loc 1 901 9 view .LVU891
 2665 000a FFF7FEFF 		bl	skipChr
ARM GAS  /tmp/cc1oM6Yq.s 			page 74


 2666              	.LVL207:
 2667              		.loc 1 901 8 view .LVU892
 2668 000e 28B1     		cbz	r0, .L212
 902:libscpi/src/lexer.c ****         token->len = 1;
 2669              		.loc 1 902 9 is_stmt 1 view .LVU893
 2670              		.loc 1 902 20 is_stmt 0 view .LVU894
 2671 0010 0123     		movs	r3, #1
 2672 0012 A360     		str	r3, [r4, #8]
 903:libscpi/src/lexer.c ****         token->type = SCPI_TOKEN_SPECIFIC_CHARACTER;
 2673              		.loc 1 903 9 is_stmt 1 view .LVU895
 2674              		.loc 1 903 21 is_stmt 0 view .LVU896
 2675 0014 0323     		movs	r3, #3
 2676              	.L214:
 904:libscpi/src/lexer.c ****     } else {
 905:libscpi/src/lexer.c ****         token->len = 0;
 906:libscpi/src/lexer.c ****         token->type = SCPI_TOKEN_UNKNOWN;
 907:libscpi/src/lexer.c ****     }
 908:libscpi/src/lexer.c **** 
 909:libscpi/src/lexer.c ****     return token->len;
 910:libscpi/src/lexer.c **** }
 2677              		.loc 1 910 1 view .LVU897
 2678 0016 A068     		ldr	r0, [r4, #8]
 906:libscpi/src/lexer.c ****     }
 2679              		.loc 1 906 21 view .LVU898
 2680 0018 2370     		strb	r3, [r4]
 909:libscpi/src/lexer.c **** }
 2681              		.loc 1 909 5 is_stmt 1 view .LVU899
 2682              		.loc 1 910 1 is_stmt 0 view .LVU900
 2683 001a 10BD     		pop	{r4, pc}
 2684              	.LVL208:
 2685              	.L212:
 905:libscpi/src/lexer.c ****         token->type = SCPI_TOKEN_UNKNOWN;
 2686              		.loc 1 905 9 is_stmt 1 view .LVU901
 905:libscpi/src/lexer.c ****         token->type = SCPI_TOKEN_UNKNOWN;
 2687              		.loc 1 905 20 is_stmt 0 view .LVU902
 2688 001c A060     		str	r0, [r4, #8]
 906:libscpi/src/lexer.c ****     }
 2689              		.loc 1 906 9 is_stmt 1 view .LVU903
 906:libscpi/src/lexer.c ****     }
 2690              		.loc 1 906 21 is_stmt 0 view .LVU904
 2691 001e 1A23     		movs	r3, #26
 2692 0020 F9E7     		b	.L214
 2693              		.cfi_endproc
 2694              	.LFE50:
 2696              		.section	.text.scpiLex_NewLine,"ax",%progbits
 2697              		.align	1
 2698              		.global	scpiLex_NewLine
 2699              		.hidden	scpiLex_NewLine
 2700              		.syntax unified
 2701              		.thumb
 2702              		.thumb_func
 2703              		.fpu fpv4-sp-d16
 2705              	scpiLex_NewLine:
 2706              	.LVL209:
 2707              	.LFB51:
 911:libscpi/src/lexer.c **** 
 912:libscpi/src/lexer.c **** /**
ARM GAS  /tmp/cc1oM6Yq.s 			page 75


 913:libscpi/src/lexer.c ****  * Detect token New line
 914:libscpi/src/lexer.c ****  * @param state
 915:libscpi/src/lexer.c ****  * @param token
 916:libscpi/src/lexer.c ****  * @return 
 917:libscpi/src/lexer.c ****  */
 918:libscpi/src/lexer.c **** int scpiLex_NewLine(lex_state_t * state, scpi_token_t * token) {
 2708              		.loc 1 918 64 is_stmt 1 view -0
 2709              		.cfi_startproc
 2710              		@ args = 0, pretend = 0, frame = 0
 2711              		@ frame_needed = 0, uses_anonymous_args = 0
 919:libscpi/src/lexer.c ****     token->ptr = state->pos;
 2712              		.loc 1 919 5 view .LVU906
 918:libscpi/src/lexer.c ****     token->ptr = state->pos;
 2713              		.loc 1 918 64 is_stmt 0 view .LVU907
 2714 0000 38B5     		push	{r3, r4, r5, lr}
 2715              	.LCFI21:
 2716              		.cfi_def_cfa_offset 16
 2717              		.cfi_offset 3, -16
 2718              		.cfi_offset 4, -12
 2719              		.cfi_offset 5, -8
 2720              		.cfi_offset 14, -4
 2721              		.loc 1 919 16 view .LVU908
 2722 0002 4368     		ldr	r3, [r0, #4]
 2723 0004 4B60     		str	r3, [r1, #4]
 920:libscpi/src/lexer.c **** 
 921:libscpi/src/lexer.c ****     skipChr(state, '\r');
 2724              		.loc 1 921 5 is_stmt 1 view .LVU909
 918:libscpi/src/lexer.c ****     token->ptr = state->pos;
 2725              		.loc 1 918 64 is_stmt 0 view .LVU910
 2726 0006 0C46     		mov	r4, r1
 2727 0008 0546     		mov	r5, r0
 2728              		.loc 1 921 5 view .LVU911
 2729 000a 0D21     		movs	r1, #13
 2730              	.LVL210:
 2731              		.loc 1 921 5 view .LVU912
 2732 000c FFF7FEFF 		bl	skipChr
 2733              	.LVL211:
 922:libscpi/src/lexer.c ****     skipChr(state, '\n');
 2734              		.loc 1 922 5 is_stmt 1 view .LVU913
 2735 0010 0A21     		movs	r1, #10
 2736 0012 2846     		mov	r0, r5
 2737 0014 FFF7FEFF 		bl	skipChr
 2738              	.LVL212:
 923:libscpi/src/lexer.c **** 
 924:libscpi/src/lexer.c ****     token->len = state->pos - token->ptr;
 2739              		.loc 1 924 5 view .LVU914
 2740              		.loc 1 924 29 is_stmt 0 view .LVU915
 2741 0018 6B68     		ldr	r3, [r5, #4]
 2742              		.loc 1 924 36 view .LVU916
 2743 001a 6268     		ldr	r2, [r4, #4]
 2744              		.loc 1 924 29 view .LVU917
 2745 001c 9B1A     		subs	r3, r3, r2
 925:libscpi/src/lexer.c **** 
 926:libscpi/src/lexer.c ****     if ((token->len > 0)) {
 2746              		.loc 1 926 8 view .LVU918
 2747 001e 002B     		cmp	r3, #0
 924:libscpi/src/lexer.c **** 
ARM GAS  /tmp/cc1oM6Yq.s 			page 76


 2748              		.loc 1 924 16 view .LVU919
 2749 0020 A360     		str	r3, [r4, #8]
 2750              		.loc 1 926 5 is_stmt 1 view .LVU920
 927:libscpi/src/lexer.c ****         token->type = SCPI_TOKEN_NL;
 2751              		.loc 1 927 9 view .LVU921
 928:libscpi/src/lexer.c ****     } else {
 929:libscpi/src/lexer.c ****         token->type = SCPI_TOKEN_UNKNOWN;
 2752              		.loc 1 929 21 is_stmt 0 view .LVU922
 2753 0022 DDBF     		ittte	le
 2754 0024 1A23     		movle	r3, #26
 2755 0026 2370     		strble	r3, [r4]
 930:libscpi/src/lexer.c ****         state->pos = token->ptr;
 931:libscpi/src/lexer.c ****         token->len = 0;
 2756              		.loc 1 931 20 view .LVU923
 2757 0028 0023     		movle	r3, #0
 927:libscpi/src/lexer.c ****     } else {
 2758              		.loc 1 927 21 view .LVU924
 2759 002a 0523     		movgt	r3, #5
 930:libscpi/src/lexer.c ****         state->pos = token->ptr;
 2760              		.loc 1 930 20 view .LVU925
 2761 002c DCBF     		itt	le
 2762 002e 6A60     		strle	r2, [r5, #4]
 2763              		.loc 1 931 20 view .LVU926
 2764 0030 A360     		strle	r3, [r4, #8]
 932:libscpi/src/lexer.c ****     }
 933:libscpi/src/lexer.c **** 
 934:libscpi/src/lexer.c ****     return token->len;
 935:libscpi/src/lexer.c **** }
 2765              		.loc 1 935 1 view .LVU927
 2766 0032 A068     		ldr	r0, [r4, #8]
 927:libscpi/src/lexer.c ****     } else {
 2767              		.loc 1 927 21 view .LVU928
 2768 0034 C8BF     		it	gt
 2769 0036 2370     		strbgt	r3, [r4]
 929:libscpi/src/lexer.c ****         state->pos = token->ptr;
 2770              		.loc 1 929 9 is_stmt 1 view .LVU929
 930:libscpi/src/lexer.c ****         token->len = 0;
 2771              		.loc 1 930 9 view .LVU930
 931:libscpi/src/lexer.c ****     }
 2772              		.loc 1 931 9 view .LVU931
 934:libscpi/src/lexer.c **** }
 2773              		.loc 1 934 5 view .LVU932
 2774              		.loc 1 935 1 is_stmt 0 view .LVU933
 2775 0038 38BD     		pop	{r3, r4, r5, pc}
 2776              		.loc 1 935 1 view .LVU934
 2777              		.cfi_endproc
 2778              	.LFE51:
 2780              		.text
 2781              	.Letext0:
 2782              		.file 2 "/usr/include/newlib/machine/_default_types.h"
 2783              		.file 3 "/usr/lib/gcc/arm-none-eabi/9.2.1/include/stddef.h"
 2784              		.file 4 "/usr/include/newlib/sys/_types.h"
 2785              		.file 5 "/usr/include/newlib/sys/reent.h"
 2786              		.file 6 "/usr/include/newlib/sys/lock.h"
 2787              		.file 7 "/usr/include/newlib/ctype.h"
 2788              		.file 8 "/usr/include/newlib/sys/_stdint.h"
 2789              		.file 9 "libscpi/inc/scpi/types.h"
ARM GAS  /tmp/cc1oM6Yq.s 			page 77


ARM GAS  /tmp/cc1oM6Yq.s 			page 78

