ARM GAS  /tmp/ccHGeJqL.s 			page 1


   1              		.cpu cortex-m4
   2              		.eabi_attribute 27, 1
   3              		.eabi_attribute 28, 1
   4              		.eabi_attribute 20, 1
   5              		.eabi_attribute 21, 1
   6              		.eabi_attribute 23, 3
   7              		.eabi_attribute 24, 1
   8              		.eabi_attribute 25, 1
   9              		.eabi_attribute 26, 1
  10              		.eabi_attribute 30, 4
  11              		.eabi_attribute 34, 1
  12              		.eabi_attribute 18, 4
  13              		.file	"stm32g4xx_hal_dac.c"
  14              		.text
  15              	.Ltext0:
  16              		.cfi_sections	.debug_frame
  17              		.section	.text.HAL_DAC_MspInit,"ax",%progbits
  18              		.align	1
  19              		.weak	HAL_DAC_MspInit
  20              		.arch armv7e-m
  21              		.syntax unified
  22              		.thumb
  23              		.thumb_func
  24              		.fpu fpv4-sp-d16
  26              	HAL_DAC_MspInit:
  27              	.LVL0:
  28              	.LFB359:
  29              		.file 1 "Drivers/STM32G4xx_HAL_Driver/Src/stm32g4xx_hal_dac.c"
   1:Drivers/STM32G4xx_HAL_Driver/Src/stm32g4xx_hal_dac.c **** /**
   2:Drivers/STM32G4xx_HAL_Driver/Src/stm32g4xx_hal_dac.c ****   ******************************************************************************
   3:Drivers/STM32G4xx_HAL_Driver/Src/stm32g4xx_hal_dac.c ****   * @file    stm32g4xx_hal_dac.c
   4:Drivers/STM32G4xx_HAL_Driver/Src/stm32g4xx_hal_dac.c ****   * @author  MCD Application Team
   5:Drivers/STM32G4xx_HAL_Driver/Src/stm32g4xx_hal_dac.c ****   * @brief   DAC HAL module driver.
   6:Drivers/STM32G4xx_HAL_Driver/Src/stm32g4xx_hal_dac.c ****   *         This file provides firmware functions to manage the following
   7:Drivers/STM32G4xx_HAL_Driver/Src/stm32g4xx_hal_dac.c ****   *         functionalities of the Digital to Analog Converter (DAC) peripheral:
   8:Drivers/STM32G4xx_HAL_Driver/Src/stm32g4xx_hal_dac.c ****   *           + Initialization and de-initialization functions
   9:Drivers/STM32G4xx_HAL_Driver/Src/stm32g4xx_hal_dac.c ****   *           + IO operation functions
  10:Drivers/STM32G4xx_HAL_Driver/Src/stm32g4xx_hal_dac.c ****   *           + Peripheral Control functions
  11:Drivers/STM32G4xx_HAL_Driver/Src/stm32g4xx_hal_dac.c ****   *           + Peripheral State and Errors functions
  12:Drivers/STM32G4xx_HAL_Driver/Src/stm32g4xx_hal_dac.c ****   *
  13:Drivers/STM32G4xx_HAL_Driver/Src/stm32g4xx_hal_dac.c ****   *
  14:Drivers/STM32G4xx_HAL_Driver/Src/stm32g4xx_hal_dac.c ****   @verbatim
  15:Drivers/STM32G4xx_HAL_Driver/Src/stm32g4xx_hal_dac.c ****   ==============================================================================
  16:Drivers/STM32G4xx_HAL_Driver/Src/stm32g4xx_hal_dac.c ****                       ##### DAC Peripheral features #####
  17:Drivers/STM32G4xx_HAL_Driver/Src/stm32g4xx_hal_dac.c ****   ==============================================================================
  18:Drivers/STM32G4xx_HAL_Driver/Src/stm32g4xx_hal_dac.c ****     [..]
  19:Drivers/STM32G4xx_HAL_Driver/Src/stm32g4xx_hal_dac.c ****       *** DAC Channels ***
  20:Drivers/STM32G4xx_HAL_Driver/Src/stm32g4xx_hal_dac.c ****       ====================
  21:Drivers/STM32G4xx_HAL_Driver/Src/stm32g4xx_hal_dac.c ****     [..]
  22:Drivers/STM32G4xx_HAL_Driver/Src/stm32g4xx_hal_dac.c ****     STM32G4 devices integrate up to seven 12-bit Digital Analog Converters,
  23:Drivers/STM32G4xx_HAL_Driver/Src/stm32g4xx_hal_dac.c ****     up to six of them grouped by pair forming a DAC instance.
  24:Drivers/STM32G4xx_HAL_Driver/Src/stm32g4xx_hal_dac.c **** 
  25:Drivers/STM32G4xx_HAL_Driver/Src/stm32g4xx_hal_dac.c ****     The 2 converters of an single instance (i.e. channel1 & channel2)
  26:Drivers/STM32G4xx_HAL_Driver/Src/stm32g4xx_hal_dac.c ****     can be used independently or simultaneously (dual mode):
  27:Drivers/STM32G4xx_HAL_Driver/Src/stm32g4xx_hal_dac.c ****       (#) DAC channel1 with DAC_OUT1 as output (not for all) or connected to on-chip
  28:Drivers/STM32G4xx_HAL_Driver/Src/stm32g4xx_hal_dac.c ****           peripherals (ex. comparators, operational amplifier).
  29:Drivers/STM32G4xx_HAL_Driver/Src/stm32g4xx_hal_dac.c ****       (#) DAC channel2 with DAC_OUT2 as output (not for all) or connected to on-chip
ARM GAS  /tmp/ccHGeJqL.s 			page 2


  30:Drivers/STM32G4xx_HAL_Driver/Src/stm32g4xx_hal_dac.c ****           peripherals (ex. comparators, operational amplifier).
  31:Drivers/STM32G4xx_HAL_Driver/Src/stm32g4xx_hal_dac.c ****     Note: when an instance only includes one converter, only independent mode is
  32:Drivers/STM32G4xx_HAL_Driver/Src/stm32g4xx_hal_dac.c ****         supported by this converter.
  33:Drivers/STM32G4xx_HAL_Driver/Src/stm32g4xx_hal_dac.c **** 
  34:Drivers/STM32G4xx_HAL_Driver/Src/stm32g4xx_hal_dac.c ****     STM32G4 instances & converters availability and output PIO mapping (DAC_OUTx):
  35:Drivers/STM32G4xx_HAL_Driver/Src/stm32g4xx_hal_dac.c ****     ----------------------------------------------------------------------------
  36:Drivers/STM32G4xx_HAL_Driver/Src/stm32g4xx_hal_dac.c ****                            |    DAC1    |    DAC2    |    DAC3    |    DAC4    |
  37:Drivers/STM32G4xx_HAL_Driver/Src/stm32g4xx_hal_dac.c ****     ----------------------------------------------------------------------------
  38:Drivers/STM32G4xx_HAL_Driver/Src/stm32g4xx_hal_dac.c ****     Channel 1  |           |    YES     |    YES     |    YES     |    YES
  39:Drivers/STM32G4xx_HAL_Driver/Src/stm32g4xx_hal_dac.c ****                | DAC_OUT1  |    PA4     |    PA6     |     -      |     -
  40:Drivers/STM32G4xx_HAL_Driver/Src/stm32g4xx_hal_dac.c ****     ----------------------------------------------------------------------------
  41:Drivers/STM32G4xx_HAL_Driver/Src/stm32g4xx_hal_dac.c ****     Channel 2  |           |    YES     |    NO      |    YES     |    YES
  42:Drivers/STM32G4xx_HAL_Driver/Src/stm32g4xx_hal_dac.c ****                | DAC_OUT2  |    PA5     |     -      |     -      |     -
  43:Drivers/STM32G4xx_HAL_Driver/Src/stm32g4xx_hal_dac.c ****     ----------------------------------------------------------------------------
  44:Drivers/STM32G4xx_HAL_Driver/Src/stm32g4xx_hal_dac.c ****     Note: On this STM32 serie, all devices do not include each DAC instances listed
  45:Drivers/STM32G4xx_HAL_Driver/Src/stm32g4xx_hal_dac.c ****           above. Refer to device datasheet for DACx instance availability.
  46:Drivers/STM32G4xx_HAL_Driver/Src/stm32g4xx_hal_dac.c **** 
  47:Drivers/STM32G4xx_HAL_Driver/Src/stm32g4xx_hal_dac.c ****       *** DAC Triggers ***
  48:Drivers/STM32G4xx_HAL_Driver/Src/stm32g4xx_hal_dac.c ****       ====================
  49:Drivers/STM32G4xx_HAL_Driver/Src/stm32g4xx_hal_dac.c ****     [..]
  50:Drivers/STM32G4xx_HAL_Driver/Src/stm32g4xx_hal_dac.c ****     Digital to Analog conversion can be non-triggered using DAC_TRIGGER_NONE
  51:Drivers/STM32G4xx_HAL_Driver/Src/stm32g4xx_hal_dac.c ****     and DAC_OUT1/DAC_OUT2 is available once writing to DHRx register.
  52:Drivers/STM32G4xx_HAL_Driver/Src/stm32g4xx_hal_dac.c ****     [..]
  53:Drivers/STM32G4xx_HAL_Driver/Src/stm32g4xx_hal_dac.c ****     Digital to Analog conversion can be triggered by:
  54:Drivers/STM32G4xx_HAL_Driver/Src/stm32g4xx_hal_dac.c ****       (#) External event: EXTI Line 9 (any GPIOx_PIN_9) using DAC_TRIGGER_EXT_IT9.
  55:Drivers/STM32G4xx_HAL_Driver/Src/stm32g4xx_hal_dac.c ****           The used pin (GPIOx_PIN_9) must be configured in input mode.
  56:Drivers/STM32G4xx_HAL_Driver/Src/stm32g4xx_hal_dac.c **** 
  57:Drivers/STM32G4xx_HAL_Driver/Src/stm32g4xx_hal_dac.c ****       (#) Timers TRGO: TIM1, TIM2, TIM3, TIM4, TIM6, TIM7, TIM8 and TIM15
  58:Drivers/STM32G4xx_HAL_Driver/Src/stm32g4xx_hal_dac.c ****           (DAC_TRIGGER_T2_TRGO, DAC_TRIGGER_T3_TRGO...)
  59:Drivers/STM32G4xx_HAL_Driver/Src/stm32g4xx_hal_dac.c **** 
  60:Drivers/STM32G4xx_HAL_Driver/Src/stm32g4xx_hal_dac.c ****       (#) Software using DAC_TRIGGER_SOFTWARE
  61:Drivers/STM32G4xx_HAL_Driver/Src/stm32g4xx_hal_dac.c **** 
  62:Drivers/STM32G4xx_HAL_Driver/Src/stm32g4xx_hal_dac.c ****       (#) HRTimer TRGO: HRTIM1 (1)
  63:Drivers/STM32G4xx_HAL_Driver/Src/stm32g4xx_hal_dac.c ****           (DAC_TRIGGER_HRTIM_TRG01, DAC_TRIGGER_HRTIM_TRG02...)
  64:Drivers/STM32G4xx_HAL_Driver/Src/stm32g4xx_hal_dac.c **** 
  65:Drivers/STM32G4xx_HAL_Driver/Src/stm32g4xx_hal_dac.c ****     [..]
  66:Drivers/STM32G4xx_HAL_Driver/Src/stm32g4xx_hal_dac.c ****     Specific triggers for sawtooth generation:
  67:Drivers/STM32G4xx_HAL_Driver/Src/stm32g4xx_hal_dac.c ****       (#) External event: EXTI Line 10 (any GPIOx_PIN_10) using DAC_TRIGGER_EXT_IT10.
  68:Drivers/STM32G4xx_HAL_Driver/Src/stm32g4xx_hal_dac.c ****           The used pin (GPIOx_PIN_10) must be configured in input mode.
  69:Drivers/STM32G4xx_HAL_Driver/Src/stm32g4xx_hal_dac.c **** 
  70:Drivers/STM32G4xx_HAL_Driver/Src/stm32g4xx_hal_dac.c ****       (#) HRTimer Step & Reset: HRTIM1 (1)
  71:Drivers/STM32G4xx_HAL_Driver/Src/stm32g4xx_hal_dac.c ****           (DAC_TRIGGER_HRTIM_RST_TRG1, DAC_TRIGGER_HRTIM_STEP_TRG1...)
  72:Drivers/STM32G4xx_HAL_Driver/Src/stm32g4xx_hal_dac.c **** 
  73:Drivers/STM32G4xx_HAL_Driver/Src/stm32g4xx_hal_dac.c ****       Note: On this STM32 serie, parameter only available if HRTIM feature is
  74:Drivers/STM32G4xx_HAL_Driver/Src/stm32g4xx_hal_dac.c ****             supported (refer to device datasheet for supported features list)
  75:Drivers/STM32G4xx_HAL_Driver/Src/stm32g4xx_hal_dac.c **** 
  76:Drivers/STM32G4xx_HAL_Driver/Src/stm32g4xx_hal_dac.c ****       *** DAC Buffer mode feature ***
  77:Drivers/STM32G4xx_HAL_Driver/Src/stm32g4xx_hal_dac.c ****       ===============================
  78:Drivers/STM32G4xx_HAL_Driver/Src/stm32g4xx_hal_dac.c ****       [..]
  79:Drivers/STM32G4xx_HAL_Driver/Src/stm32g4xx_hal_dac.c ****       Each DAC channel integrates an output buffer that can be used to
  80:Drivers/STM32G4xx_HAL_Driver/Src/stm32g4xx_hal_dac.c ****       reduce the output impedance, and to drive external loads directly
  81:Drivers/STM32G4xx_HAL_Driver/Src/stm32g4xx_hal_dac.c ****       without having to add an external operational amplifier.
  82:Drivers/STM32G4xx_HAL_Driver/Src/stm32g4xx_hal_dac.c ****       To enable, the output buffer use
  83:Drivers/STM32G4xx_HAL_Driver/Src/stm32g4xx_hal_dac.c ****       sConfig.DAC_OutputBuffer = DAC_OUTPUTBUFFER_ENABLE;
  84:Drivers/STM32G4xx_HAL_Driver/Src/stm32g4xx_hal_dac.c ****       [..]
  85:Drivers/STM32G4xx_HAL_Driver/Src/stm32g4xx_hal_dac.c ****       (@) Refer to the device datasheet for more details about output
  86:Drivers/STM32G4xx_HAL_Driver/Src/stm32g4xx_hal_dac.c ****           impedance value with and without output buffer.
ARM GAS  /tmp/ccHGeJqL.s 			page 3


  87:Drivers/STM32G4xx_HAL_Driver/Src/stm32g4xx_hal_dac.c **** 
  88:Drivers/STM32G4xx_HAL_Driver/Src/stm32g4xx_hal_dac.c ****       *** DAC connect feature ***
  89:Drivers/STM32G4xx_HAL_Driver/Src/stm32g4xx_hal_dac.c ****       ===============================
  90:Drivers/STM32G4xx_HAL_Driver/Src/stm32g4xx_hal_dac.c ****       [..]
  91:Drivers/STM32G4xx_HAL_Driver/Src/stm32g4xx_hal_dac.c ****       Each DAC channel can be connected internally.
  92:Drivers/STM32G4xx_HAL_Driver/Src/stm32g4xx_hal_dac.c ****       To connect, use
  93:Drivers/STM32G4xx_HAL_Driver/Src/stm32g4xx_hal_dac.c ****       sConfig.DAC_ConnectOnChipPeripheral = DAC_CHIPCONNECT_INTERNAL;
  94:Drivers/STM32G4xx_HAL_Driver/Src/stm32g4xx_hal_dac.c ****       or
  95:Drivers/STM32G4xx_HAL_Driver/Src/stm32g4xx_hal_dac.c ****       sConfig.DAC_ConnectOnChipPeripheral = DAC_CHIPCONNECT_BOTH;
  96:Drivers/STM32G4xx_HAL_Driver/Src/stm32g4xx_hal_dac.c **** 
  97:Drivers/STM32G4xx_HAL_Driver/Src/stm32g4xx_hal_dac.c ****       *** GPIO configurations guidelines ***
  98:Drivers/STM32G4xx_HAL_Driver/Src/stm32g4xx_hal_dac.c ****       =====================
  99:Drivers/STM32G4xx_HAL_Driver/Src/stm32g4xx_hal_dac.c ****       [..]
 100:Drivers/STM32G4xx_HAL_Driver/Src/stm32g4xx_hal_dac.c ****       When a DAC channel is used (ex channel1 on PA4) and the other is not
 101:Drivers/STM32G4xx_HAL_Driver/Src/stm32g4xx_hal_dac.c ****       (ex channel2 on PA5 is configured in Analog and disabled).
 102:Drivers/STM32G4xx_HAL_Driver/Src/stm32g4xx_hal_dac.c ****       Channel1 may disturb channel2 as coupling effect.
 103:Drivers/STM32G4xx_HAL_Driver/Src/stm32g4xx_hal_dac.c ****       Note that there is no coupling on channel2 as soon as channel2 is turned on.
 104:Drivers/STM32G4xx_HAL_Driver/Src/stm32g4xx_hal_dac.c ****       Coupling on adjacent channel could be avoided as follows:
 105:Drivers/STM32G4xx_HAL_Driver/Src/stm32g4xx_hal_dac.c ****       when unused PA5 is configured as INPUT PULL-UP or DOWN.
 106:Drivers/STM32G4xx_HAL_Driver/Src/stm32g4xx_hal_dac.c ****       PA5 is configured in ANALOG just before it is turned on.
 107:Drivers/STM32G4xx_HAL_Driver/Src/stm32g4xx_hal_dac.c **** 
 108:Drivers/STM32G4xx_HAL_Driver/Src/stm32g4xx_hal_dac.c ****       *** DAC Sample and Hold feature ***
 109:Drivers/STM32G4xx_HAL_Driver/Src/stm32g4xx_hal_dac.c ****       ========================
 110:Drivers/STM32G4xx_HAL_Driver/Src/stm32g4xx_hal_dac.c ****       [..]
 111:Drivers/STM32G4xx_HAL_Driver/Src/stm32g4xx_hal_dac.c ****       For each converter, 2 modes are supported: normal mode and
 112:Drivers/STM32G4xx_HAL_Driver/Src/stm32g4xx_hal_dac.c ****       "sample and hold" mode (i.e. low power mode).
 113:Drivers/STM32G4xx_HAL_Driver/Src/stm32g4xx_hal_dac.c ****       In the sample and hold mode, the DAC core converts data, then holds the
 114:Drivers/STM32G4xx_HAL_Driver/Src/stm32g4xx_hal_dac.c ****       converted voltage on a capacitor. When not converting, the DAC cores and
 115:Drivers/STM32G4xx_HAL_Driver/Src/stm32g4xx_hal_dac.c ****       buffer are completely turned off between samples and the DAC output is
 116:Drivers/STM32G4xx_HAL_Driver/Src/stm32g4xx_hal_dac.c ****       tri-stated, therefore  reducing the overall power consumption. A new
 117:Drivers/STM32G4xx_HAL_Driver/Src/stm32g4xx_hal_dac.c ****       stabilization period is needed before each new conversion.
 118:Drivers/STM32G4xx_HAL_Driver/Src/stm32g4xx_hal_dac.c **** 
 119:Drivers/STM32G4xx_HAL_Driver/Src/stm32g4xx_hal_dac.c ****       The sample and hold allow setting internal or external voltage @
 120:Drivers/STM32G4xx_HAL_Driver/Src/stm32g4xx_hal_dac.c ****       low power consumption cost (output value can be at any given rate either
 121:Drivers/STM32G4xx_HAL_Driver/Src/stm32g4xx_hal_dac.c ****       by CPU or DMA).
 122:Drivers/STM32G4xx_HAL_Driver/Src/stm32g4xx_hal_dac.c **** 
 123:Drivers/STM32G4xx_HAL_Driver/Src/stm32g4xx_hal_dac.c ****       The Sample and hold block and registers uses either LSI & run in
 124:Drivers/STM32G4xx_HAL_Driver/Src/stm32g4xx_hal_dac.c ****       several power modes: run mode, sleep mode, low power run, low power sleep
 125:Drivers/STM32G4xx_HAL_Driver/Src/stm32g4xx_hal_dac.c ****       mode & stop1 mode.
 126:Drivers/STM32G4xx_HAL_Driver/Src/stm32g4xx_hal_dac.c **** 
 127:Drivers/STM32G4xx_HAL_Driver/Src/stm32g4xx_hal_dac.c ****       Low power stop1 mode allows only static conversion.
 128:Drivers/STM32G4xx_HAL_Driver/Src/stm32g4xx_hal_dac.c **** 
 129:Drivers/STM32G4xx_HAL_Driver/Src/stm32g4xx_hal_dac.c ****       To enable Sample and Hold mode
 130:Drivers/STM32G4xx_HAL_Driver/Src/stm32g4xx_hal_dac.c ****       Enable LSI using HAL_RCC_OscConfig with RCC_OSCILLATORTYPE_LSI &
 131:Drivers/STM32G4xx_HAL_Driver/Src/stm32g4xx_hal_dac.c ****       RCC_LSI_ON parameters.
 132:Drivers/STM32G4xx_HAL_Driver/Src/stm32g4xx_hal_dac.c **** 
 133:Drivers/STM32G4xx_HAL_Driver/Src/stm32g4xx_hal_dac.c ****       Use DAC_InitStructure.DAC_SampleAndHold = DAC_SAMPLEANDHOLD_ENABLE;
 134:Drivers/STM32G4xx_HAL_Driver/Src/stm32g4xx_hal_dac.c ****          & DAC_ChannelConfTypeDef.DAC_SampleAndHoldConfig.DAC_SampleTime,
 135:Drivers/STM32G4xx_HAL_Driver/Src/stm32g4xx_hal_dac.c ****            DAC_HoldTime & DAC_RefreshTime;
 136:Drivers/STM32G4xx_HAL_Driver/Src/stm32g4xx_hal_dac.c **** 
 137:Drivers/STM32G4xx_HAL_Driver/Src/stm32g4xx_hal_dac.c ****        *** DAC calibration feature ***
 138:Drivers/STM32G4xx_HAL_Driver/Src/stm32g4xx_hal_dac.c ****        ===================================
 139:Drivers/STM32G4xx_HAL_Driver/Src/stm32g4xx_hal_dac.c ****       [..]
 140:Drivers/STM32G4xx_HAL_Driver/Src/stm32g4xx_hal_dac.c ****        (#)  The 2 converters (channel1 & channel2) provide calibration capabilities.
 141:Drivers/STM32G4xx_HAL_Driver/Src/stm32g4xx_hal_dac.c ****        (++) Calibration aims at correcting some offset of output buffer.
 142:Drivers/STM32G4xx_HAL_Driver/Src/stm32g4xx_hal_dac.c ****        (++) The DAC uses either factory calibration settings OR user defined
 143:Drivers/STM32G4xx_HAL_Driver/Src/stm32g4xx_hal_dac.c ****            calibration (trimming) settings (i.e. trimming mode).
ARM GAS  /tmp/ccHGeJqL.s 			page 4


 144:Drivers/STM32G4xx_HAL_Driver/Src/stm32g4xx_hal_dac.c ****        (++) The user defined settings can be figured out using self calibration
 145:Drivers/STM32G4xx_HAL_Driver/Src/stm32g4xx_hal_dac.c ****            handled by HAL_DACEx_SelfCalibrate.
 146:Drivers/STM32G4xx_HAL_Driver/Src/stm32g4xx_hal_dac.c ****        (++) HAL_DACEx_SelfCalibrate:
 147:Drivers/STM32G4xx_HAL_Driver/Src/stm32g4xx_hal_dac.c ****        (+++) Runs automatically the calibration.
 148:Drivers/STM32G4xx_HAL_Driver/Src/stm32g4xx_hal_dac.c ****        (+++) Enables the user trimming mode
 149:Drivers/STM32G4xx_HAL_Driver/Src/stm32g4xx_hal_dac.c ****        (+++) Updates a structure with trimming values with fresh calibration
 150:Drivers/STM32G4xx_HAL_Driver/Src/stm32g4xx_hal_dac.c ****             results.
 151:Drivers/STM32G4xx_HAL_Driver/Src/stm32g4xx_hal_dac.c ****             The user may store the calibration results for larger
 152:Drivers/STM32G4xx_HAL_Driver/Src/stm32g4xx_hal_dac.c ****             (ex monitoring the trimming as a function of temperature
 153:Drivers/STM32G4xx_HAL_Driver/Src/stm32g4xx_hal_dac.c ****             for instance)
 154:Drivers/STM32G4xx_HAL_Driver/Src/stm32g4xx_hal_dac.c **** 
 155:Drivers/STM32G4xx_HAL_Driver/Src/stm32g4xx_hal_dac.c ****        *** DAC wave generation feature ***
 156:Drivers/STM32G4xx_HAL_Driver/Src/stm32g4xx_hal_dac.c ****        ===================================
 157:Drivers/STM32G4xx_HAL_Driver/Src/stm32g4xx_hal_dac.c ****        [..]
 158:Drivers/STM32G4xx_HAL_Driver/Src/stm32g4xx_hal_dac.c ****        Both DAC channels can be used to generate
 159:Drivers/STM32G4xx_HAL_Driver/Src/stm32g4xx_hal_dac.c ****          (#) Noise wave
 160:Drivers/STM32G4xx_HAL_Driver/Src/stm32g4xx_hal_dac.c ****          (#) Triangle wave
 161:Drivers/STM32G4xx_HAL_Driver/Src/stm32g4xx_hal_dac.c ****          (#) Sawtooth wave
 162:Drivers/STM32G4xx_HAL_Driver/Src/stm32g4xx_hal_dac.c **** 
 163:Drivers/STM32G4xx_HAL_Driver/Src/stm32g4xx_hal_dac.c ****        *** DAC data format ***
 164:Drivers/STM32G4xx_HAL_Driver/Src/stm32g4xx_hal_dac.c ****        =======================
 165:Drivers/STM32G4xx_HAL_Driver/Src/stm32g4xx_hal_dac.c ****        [..]
 166:Drivers/STM32G4xx_HAL_Driver/Src/stm32g4xx_hal_dac.c ****        The DAC data format can be:
 167:Drivers/STM32G4xx_HAL_Driver/Src/stm32g4xx_hal_dac.c ****          (#) 8-bit right alignment using DAC_ALIGN_8B_R
 168:Drivers/STM32G4xx_HAL_Driver/Src/stm32g4xx_hal_dac.c ****          (#) 12-bit left alignment using DAC_ALIGN_12B_L
 169:Drivers/STM32G4xx_HAL_Driver/Src/stm32g4xx_hal_dac.c ****          (#) 12-bit right alignment using DAC_ALIGN_12B_R
 170:Drivers/STM32G4xx_HAL_Driver/Src/stm32g4xx_hal_dac.c **** 
 171:Drivers/STM32G4xx_HAL_Driver/Src/stm32g4xx_hal_dac.c ****        *** DAC data value to voltage correspondence ***
 172:Drivers/STM32G4xx_HAL_Driver/Src/stm32g4xx_hal_dac.c ****        ================================================
 173:Drivers/STM32G4xx_HAL_Driver/Src/stm32g4xx_hal_dac.c ****        [..]
 174:Drivers/STM32G4xx_HAL_Driver/Src/stm32g4xx_hal_dac.c ****        The analog output voltage on each DAC channel pin is determined
 175:Drivers/STM32G4xx_HAL_Driver/Src/stm32g4xx_hal_dac.c ****        by the following equation:
 176:Drivers/STM32G4xx_HAL_Driver/Src/stm32g4xx_hal_dac.c ****        [..]
 177:Drivers/STM32G4xx_HAL_Driver/Src/stm32g4xx_hal_dac.c ****        DAC_OUTx = VREF+ * DOR / 4095
 178:Drivers/STM32G4xx_HAL_Driver/Src/stm32g4xx_hal_dac.c ****        (+) with  DOR is the Data Output Register
 179:Drivers/STM32G4xx_HAL_Driver/Src/stm32g4xx_hal_dac.c ****        [..]
 180:Drivers/STM32G4xx_HAL_Driver/Src/stm32g4xx_hal_dac.c ****           VEF+ is the input voltage reference (refer to the device datasheet)
 181:Drivers/STM32G4xx_HAL_Driver/Src/stm32g4xx_hal_dac.c ****        [..]
 182:Drivers/STM32G4xx_HAL_Driver/Src/stm32g4xx_hal_dac.c ****         e.g. To set DAC_OUT1 to 0.7V, use
 183:Drivers/STM32G4xx_HAL_Driver/Src/stm32g4xx_hal_dac.c ****        (+) Assuming that VREF+ = 3.3V, DAC_OUT1 = (3.3 * 868) / 4095 = 0.7V
 184:Drivers/STM32G4xx_HAL_Driver/Src/stm32g4xx_hal_dac.c **** 
 185:Drivers/STM32G4xx_HAL_Driver/Src/stm32g4xx_hal_dac.c ****        *** DMA requests ***
 186:Drivers/STM32G4xx_HAL_Driver/Src/stm32g4xx_hal_dac.c ****        =====================
 187:Drivers/STM32G4xx_HAL_Driver/Src/stm32g4xx_hal_dac.c ****        [..]
 188:Drivers/STM32G4xx_HAL_Driver/Src/stm32g4xx_hal_dac.c ****        A DMAMUX request can be generated when an external trigger (but not a software trigger)
 189:Drivers/STM32G4xx_HAL_Driver/Src/stm32g4xx_hal_dac.c ****        occurs if DMAMUX requests are enabled using HAL_DAC_Start_DMA().
 190:Drivers/STM32G4xx_HAL_Driver/Src/stm32g4xx_hal_dac.c ****        DMAMUX requests are mapped as following:
 191:Drivers/STM32G4xx_HAL_Driver/Src/stm32g4xx_hal_dac.c ****         ----------------------------------------------------------------------------
 192:Drivers/STM32G4xx_HAL_Driver/Src/stm32g4xx_hal_dac.c ****                                |    DAC1    |    DAC2    |    DAC3    |    DAC4    |
 193:Drivers/STM32G4xx_HAL_Driver/Src/stm32g4xx_hal_dac.c ****         ----------------------------------------------------------------------------
 194:Drivers/STM32G4xx_HAL_Driver/Src/stm32g4xx_hal_dac.c ****         Channel 1  |           |     6      |     41     |    102     |    104
 195:Drivers/STM32G4xx_HAL_Driver/Src/stm32g4xx_hal_dac.c ****         ----------------------------------------------------------------------------
 196:Drivers/STM32G4xx_HAL_Driver/Src/stm32g4xx_hal_dac.c ****         Channel 2  |           |     7      |     -      |    103     |    105
 197:Drivers/STM32G4xx_HAL_Driver/Src/stm32g4xx_hal_dac.c ****         ----------------------------------------------------------------------------
 198:Drivers/STM32G4xx_HAL_Driver/Src/stm32g4xx_hal_dac.c ****         Note: On this STM32 serie, all devices do not include each DAC instances listed
 199:Drivers/STM32G4xx_HAL_Driver/Src/stm32g4xx_hal_dac.c ****               above. Refer to device datasheet for DACx instance availability.
 200:Drivers/STM32G4xx_HAL_Driver/Src/stm32g4xx_hal_dac.c **** 
ARM GAS  /tmp/ccHGeJqL.s 			page 5


 201:Drivers/STM32G4xx_HAL_Driver/Src/stm32g4xx_hal_dac.c ****        *** High frequency interface mode ***
 202:Drivers/STM32G4xx_HAL_Driver/Src/stm32g4xx_hal_dac.c ****        =====================================
 203:Drivers/STM32G4xx_HAL_Driver/Src/stm32g4xx_hal_dac.c ****        [..]
 204:Drivers/STM32G4xx_HAL_Driver/Src/stm32g4xx_hal_dac.c ****        The high frequency interface informs DAC instance about the bus frequency in use.
 205:Drivers/STM32G4xx_HAL_Driver/Src/stm32g4xx_hal_dac.c ****        It is mandatory information for DAC (as internal timing of DAC is bus frequency dependent)
 206:Drivers/STM32G4xx_HAL_Driver/Src/stm32g4xx_hal_dac.c ****        provided thanks to parameter DAC_HighFrequency handled in HAL_DAC_ConfigChannel () function.
 207:Drivers/STM32G4xx_HAL_Driver/Src/stm32g4xx_hal_dac.c ****        Use of DAC_HIGH_FREQUENCY_INTERFACE_MODE_AUTOMATIC value of DAC_HighFrequency is recommended
 208:Drivers/STM32G4xx_HAL_Driver/Src/stm32g4xx_hal_dac.c ****        function figured out the correct setting.
 209:Drivers/STM32G4xx_HAL_Driver/Src/stm32g4xx_hal_dac.c ****        The high frequency mode is same for all converters of a same DAC instance. Either same
 210:Drivers/STM32G4xx_HAL_Driver/Src/stm32g4xx_hal_dac.c ****        parameter DAC_HighFrequency is used for all DAC converters or again self
 211:Drivers/STM32G4xx_HAL_Driver/Src/stm32g4xx_hal_dac.c ****        DAC_HIGH_FREQUENCY_INTERFACE_MODE_AUTOMATIC detection parameter.
 212:Drivers/STM32G4xx_HAL_Driver/Src/stm32g4xx_hal_dac.c **** 
 213:Drivers/STM32G4xx_HAL_Driver/Src/stm32g4xx_hal_dac.c ****      [..]
 214:Drivers/STM32G4xx_HAL_Driver/Src/stm32g4xx_hal_dac.c ****     (@) For Dual mode and specific signal (Sawtooth, triangle and noise) generation
 215:Drivers/STM32G4xx_HAL_Driver/Src/stm32g4xx_hal_dac.c ****         please refer to Extended Features Driver description
 216:Drivers/STM32G4xx_HAL_Driver/Src/stm32g4xx_hal_dac.c **** 
 217:Drivers/STM32G4xx_HAL_Driver/Src/stm32g4xx_hal_dac.c ****                       ##### How to use this driver #####
 218:Drivers/STM32G4xx_HAL_Driver/Src/stm32g4xx_hal_dac.c ****   ==============================================================================
 219:Drivers/STM32G4xx_HAL_Driver/Src/stm32g4xx_hal_dac.c ****     [..]
 220:Drivers/STM32G4xx_HAL_Driver/Src/stm32g4xx_hal_dac.c ****       (+) DAC APB clock must be enabled to get write access to DAC
 221:Drivers/STM32G4xx_HAL_Driver/Src/stm32g4xx_hal_dac.c ****           registers using HAL_DAC_Init()
 222:Drivers/STM32G4xx_HAL_Driver/Src/stm32g4xx_hal_dac.c ****       (+) If available & needed, configure DAC_OUTx (DAC_OUT1, DAC_OUT2) in analog mode.
 223:Drivers/STM32G4xx_HAL_Driver/Src/stm32g4xx_hal_dac.c ****       (+) Configure the DAC channel using HAL_DAC_ConfigChannel() function.
 224:Drivers/STM32G4xx_HAL_Driver/Src/stm32g4xx_hal_dac.c ****       (+) Enable the DAC channel using HAL_DAC_Start() or HAL_DAC_Start_DMA() functions.
 225:Drivers/STM32G4xx_HAL_Driver/Src/stm32g4xx_hal_dac.c **** 
 226:Drivers/STM32G4xx_HAL_Driver/Src/stm32g4xx_hal_dac.c ****      *** Calibration mode IO operation ***
 227:Drivers/STM32G4xx_HAL_Driver/Src/stm32g4xx_hal_dac.c ****      ======================================
 228:Drivers/STM32G4xx_HAL_Driver/Src/stm32g4xx_hal_dac.c ****      [..]
 229:Drivers/STM32G4xx_HAL_Driver/Src/stm32g4xx_hal_dac.c ****        (+) Retrieve the factory trimming (calibration settings) using HAL_DACEx_GetTrimOffset()
 230:Drivers/STM32G4xx_HAL_Driver/Src/stm32g4xx_hal_dac.c ****        (+) Run the calibration using HAL_DACEx_SelfCalibrate()
 231:Drivers/STM32G4xx_HAL_Driver/Src/stm32g4xx_hal_dac.c ****        (+) Update the trimming while DAC running using HAL_DACEx_SetUserTrimming()
 232:Drivers/STM32G4xx_HAL_Driver/Src/stm32g4xx_hal_dac.c **** 
 233:Drivers/STM32G4xx_HAL_Driver/Src/stm32g4xx_hal_dac.c ****      *** Polling mode IO operation ***
 234:Drivers/STM32G4xx_HAL_Driver/Src/stm32g4xx_hal_dac.c ****      =================================
 235:Drivers/STM32G4xx_HAL_Driver/Src/stm32g4xx_hal_dac.c ****      [..]
 236:Drivers/STM32G4xx_HAL_Driver/Src/stm32g4xx_hal_dac.c ****        (+) Start the DAC peripheral using HAL_DAC_Start()
 237:Drivers/STM32G4xx_HAL_Driver/Src/stm32g4xx_hal_dac.c ****        (+) To read the DAC last data output value, use the HAL_DAC_GetValue() function.
 238:Drivers/STM32G4xx_HAL_Driver/Src/stm32g4xx_hal_dac.c ****        (+) Stop the DAC peripheral using HAL_DAC_Stop()
 239:Drivers/STM32G4xx_HAL_Driver/Src/stm32g4xx_hal_dac.c **** 
 240:Drivers/STM32G4xx_HAL_Driver/Src/stm32g4xx_hal_dac.c ****      *** DMA mode IO operation ***
 241:Drivers/STM32G4xx_HAL_Driver/Src/stm32g4xx_hal_dac.c ****      ==============================
 242:Drivers/STM32G4xx_HAL_Driver/Src/stm32g4xx_hal_dac.c ****      [..]
 243:Drivers/STM32G4xx_HAL_Driver/Src/stm32g4xx_hal_dac.c ****        (+) Start the DAC peripheral using HAL_DAC_Start_DMA(), at this stage the user specify the l
 244:Drivers/STM32G4xx_HAL_Driver/Src/stm32g4xx_hal_dac.c ****            of data to be transferred at each end of conversion
 245:Drivers/STM32G4xx_HAL_Driver/Src/stm32g4xx_hal_dac.c ****            First issued trigger will start the conversion of the value previously set by HAL_DAC_Se
 246:Drivers/STM32G4xx_HAL_Driver/Src/stm32g4xx_hal_dac.c ****        (+) At the middle of data transfer HAL_DAC_ConvHalfCpltCallbackCh1() or HAL_DACEx_ConvHalfCp
 247:Drivers/STM32G4xx_HAL_Driver/Src/stm32g4xx_hal_dac.c ****            function is executed and user can add his own code by customization of function pointer
 248:Drivers/STM32G4xx_HAL_Driver/Src/stm32g4xx_hal_dac.c ****            HAL_DAC_ConvHalfCpltCallbackCh1() or HAL_DACEx_ConvHalfCpltCallbackCh2()
 249:Drivers/STM32G4xx_HAL_Driver/Src/stm32g4xx_hal_dac.c ****        (+) At The end of data transfer HAL_DAC_ConvCpltCallbackCh1() or HAL_DACEx_ConvHalfCpltCallb
 250:Drivers/STM32G4xx_HAL_Driver/Src/stm32g4xx_hal_dac.c ****            function is executed and user can add his own code by customization of function pointer
 251:Drivers/STM32G4xx_HAL_Driver/Src/stm32g4xx_hal_dac.c ****            HAL_DAC_ConvCpltCallbackCh1() or HAL_DACEx_ConvHalfCpltCallbackCh2()
 252:Drivers/STM32G4xx_HAL_Driver/Src/stm32g4xx_hal_dac.c ****        (+) In case of transfer Error, HAL_DAC_ErrorCallbackCh1() function is executed and user can
 253:Drivers/STM32G4xx_HAL_Driver/Src/stm32g4xx_hal_dac.c ****             add his own code by customization of function pointer HAL_DAC_ErrorCallbackCh1
 254:Drivers/STM32G4xx_HAL_Driver/Src/stm32g4xx_hal_dac.c ****        (+) In case of DMA underrun, DAC interruption triggers and execute internal function HAL_DAC
 255:Drivers/STM32G4xx_HAL_Driver/Src/stm32g4xx_hal_dac.c ****            HAL_DAC_DMAUnderrunCallbackCh1() or HAL_DACEx_DMAUnderrunCallbackCh2()
 256:Drivers/STM32G4xx_HAL_Driver/Src/stm32g4xx_hal_dac.c ****            function is executed and user can add his own code by customization of function pointer
 257:Drivers/STM32G4xx_HAL_Driver/Src/stm32g4xx_hal_dac.c ****            HAL_DAC_DMAUnderrunCallbackCh1() or HAL_DACEx_DMAUnderrunCallbackCh2() and
ARM GAS  /tmp/ccHGeJqL.s 			page 6


 258:Drivers/STM32G4xx_HAL_Driver/Src/stm32g4xx_hal_dac.c ****            add his own code by customization of function pointer HAL_DAC_ErrorCallbackCh1()
 259:Drivers/STM32G4xx_HAL_Driver/Src/stm32g4xx_hal_dac.c ****        (+) Stop the DAC peripheral using HAL_DAC_Stop_DMA()
 260:Drivers/STM32G4xx_HAL_Driver/Src/stm32g4xx_hal_dac.c **** 
 261:Drivers/STM32G4xx_HAL_Driver/Src/stm32g4xx_hal_dac.c ****     *** Callback registration ***
 262:Drivers/STM32G4xx_HAL_Driver/Src/stm32g4xx_hal_dac.c ****     =============================================
 263:Drivers/STM32G4xx_HAL_Driver/Src/stm32g4xx_hal_dac.c ****     [..]
 264:Drivers/STM32G4xx_HAL_Driver/Src/stm32g4xx_hal_dac.c ****       The compilation define  USE_HAL_DAC_REGISTER_CALLBACKS when set to 1
 265:Drivers/STM32G4xx_HAL_Driver/Src/stm32g4xx_hal_dac.c ****       allows the user to configure dynamically the driver callbacks.
 266:Drivers/STM32G4xx_HAL_Driver/Src/stm32g4xx_hal_dac.c **** 
 267:Drivers/STM32G4xx_HAL_Driver/Src/stm32g4xx_hal_dac.c ****     Use Functions @ref HAL_DAC_RegisterCallback() to register a user callback,
 268:Drivers/STM32G4xx_HAL_Driver/Src/stm32g4xx_hal_dac.c ****       it allows to register following callbacks:
 269:Drivers/STM32G4xx_HAL_Driver/Src/stm32g4xx_hal_dac.c ****       (+) ConvCpltCallbackCh1     : callback when a half transfer is completed on Ch1.
 270:Drivers/STM32G4xx_HAL_Driver/Src/stm32g4xx_hal_dac.c ****       (+) ConvHalfCpltCallbackCh1 : callback when a transfer is completed on Ch1.
 271:Drivers/STM32G4xx_HAL_Driver/Src/stm32g4xx_hal_dac.c ****       (+) ErrorCallbackCh1        : callback when an error occurs on Ch1.
 272:Drivers/STM32G4xx_HAL_Driver/Src/stm32g4xx_hal_dac.c ****       (+) DMAUnderrunCallbackCh1  : callback when an underrun error occurs on Ch1.
 273:Drivers/STM32G4xx_HAL_Driver/Src/stm32g4xx_hal_dac.c ****       (+) ConvCpltCallbackCh2     : callback when a half transfer is completed on Ch2.
 274:Drivers/STM32G4xx_HAL_Driver/Src/stm32g4xx_hal_dac.c ****       (+) ConvHalfCpltCallbackCh2 : callback when a transfer is completed on Ch2.
 275:Drivers/STM32G4xx_HAL_Driver/Src/stm32g4xx_hal_dac.c ****       (+) ErrorCallbackCh2        : callback when an error occurs on Ch2.
 276:Drivers/STM32G4xx_HAL_Driver/Src/stm32g4xx_hal_dac.c ****       (+) DMAUnderrunCallbackCh2  : callback when an underrun error occurs on Ch2.
 277:Drivers/STM32G4xx_HAL_Driver/Src/stm32g4xx_hal_dac.c ****       (+) MspInitCallback         : DAC MspInit.
 278:Drivers/STM32G4xx_HAL_Driver/Src/stm32g4xx_hal_dac.c ****       (+) MspDeInitCallback       : DAC MspdeInit.
 279:Drivers/STM32G4xx_HAL_Driver/Src/stm32g4xx_hal_dac.c ****       This function takes as parameters the HAL peripheral handle, the Callback ID
 280:Drivers/STM32G4xx_HAL_Driver/Src/stm32g4xx_hal_dac.c ****       and a pointer to the user callback function.
 281:Drivers/STM32G4xx_HAL_Driver/Src/stm32g4xx_hal_dac.c **** 
 282:Drivers/STM32G4xx_HAL_Driver/Src/stm32g4xx_hal_dac.c ****     Use function @ref HAL_DAC_UnRegisterCallback() to reset a callback to the default
 283:Drivers/STM32G4xx_HAL_Driver/Src/stm32g4xx_hal_dac.c ****       weak (surcharged) function. It allows to reset following callbacks:
 284:Drivers/STM32G4xx_HAL_Driver/Src/stm32g4xx_hal_dac.c ****       (+) ConvCpltCallbackCh1     : callback when a half transfer is completed on Ch1.
 285:Drivers/STM32G4xx_HAL_Driver/Src/stm32g4xx_hal_dac.c ****       (+) ConvHalfCpltCallbackCh1 : callback when a transfer is completed on Ch1.
 286:Drivers/STM32G4xx_HAL_Driver/Src/stm32g4xx_hal_dac.c ****       (+) ErrorCallbackCh1        : callback when an error occurs on Ch1.
 287:Drivers/STM32G4xx_HAL_Driver/Src/stm32g4xx_hal_dac.c ****       (+) DMAUnderrunCallbackCh1  : callback when an underrun error occurs on Ch1.
 288:Drivers/STM32G4xx_HAL_Driver/Src/stm32g4xx_hal_dac.c ****       (+) ConvCpltCallbackCh2     : callback when a half transfer is completed on Ch2.
 289:Drivers/STM32G4xx_HAL_Driver/Src/stm32g4xx_hal_dac.c ****       (+) ConvHalfCpltCallbackCh2 : callback when a transfer is completed on Ch2.
 290:Drivers/STM32G4xx_HAL_Driver/Src/stm32g4xx_hal_dac.c ****       (+) ErrorCallbackCh2        : callback when an error occurs on Ch2.
 291:Drivers/STM32G4xx_HAL_Driver/Src/stm32g4xx_hal_dac.c ****       (+) DMAUnderrunCallbackCh2  : callback when an underrun error occurs on Ch2.
 292:Drivers/STM32G4xx_HAL_Driver/Src/stm32g4xx_hal_dac.c ****       (+) MspInitCallback         : DAC MspInit.
 293:Drivers/STM32G4xx_HAL_Driver/Src/stm32g4xx_hal_dac.c ****       (+) MspDeInitCallback       : DAC MspdeInit.
 294:Drivers/STM32G4xx_HAL_Driver/Src/stm32g4xx_hal_dac.c ****       (+) All Callbacks
 295:Drivers/STM32G4xx_HAL_Driver/Src/stm32g4xx_hal_dac.c ****       This function) takes as parameters the HAL peripheral handle and the Callback ID.
 296:Drivers/STM32G4xx_HAL_Driver/Src/stm32g4xx_hal_dac.c **** 
 297:Drivers/STM32G4xx_HAL_Driver/Src/stm32g4xx_hal_dac.c ****       By default, after the @ref HAL_DAC_Init and if the state is HAL_DAC_STATE_RESET
 298:Drivers/STM32G4xx_HAL_Driver/Src/stm32g4xx_hal_dac.c ****       all callbacks are reset to the corresponding legacy weak (surcharged) functions.
 299:Drivers/STM32G4xx_HAL_Driver/Src/stm32g4xx_hal_dac.c ****       Exception done for MspInit and MspDeInit callbacks that are respectively
 300:Drivers/STM32G4xx_HAL_Driver/Src/stm32g4xx_hal_dac.c ****       reset to the legacy weak (surcharged) functions in the @ref HAL_DAC_Init
 301:Drivers/STM32G4xx_HAL_Driver/Src/stm32g4xx_hal_dac.c ****       and @ref  HAL_DAC_DeInit only when these callbacks are null (not registered beforehand).
 302:Drivers/STM32G4xx_HAL_Driver/Src/stm32g4xx_hal_dac.c ****       If not, MspInit or MspDeInit are not null, the @ref HAL_DAC_Init and @ref HAL_DAC_DeInit
 303:Drivers/STM32G4xx_HAL_Driver/Src/stm32g4xx_hal_dac.c ****       keep and use the user MspInit/MspDeInit callbacks (registered beforehand)
 304:Drivers/STM32G4xx_HAL_Driver/Src/stm32g4xx_hal_dac.c **** 
 305:Drivers/STM32G4xx_HAL_Driver/Src/stm32g4xx_hal_dac.c ****       Callbacks can be registered/unregistered in READY state only.
 306:Drivers/STM32G4xx_HAL_Driver/Src/stm32g4xx_hal_dac.c ****       Exception done for MspInit/MspDeInit callbacks that can be registered/unregistered
 307:Drivers/STM32G4xx_HAL_Driver/Src/stm32g4xx_hal_dac.c ****       in READY or RESET state, thus registered (user) MspInit/DeInit callbacks can be used
 308:Drivers/STM32G4xx_HAL_Driver/Src/stm32g4xx_hal_dac.c ****       during the Init/DeInit.
 309:Drivers/STM32G4xx_HAL_Driver/Src/stm32g4xx_hal_dac.c ****       In that case first register the MspInit/MspDeInit user callbacks
 310:Drivers/STM32G4xx_HAL_Driver/Src/stm32g4xx_hal_dac.c ****       using @ref HAL_DAC_RegisterCallback before calling @ref HAL_DAC_DeInit
 311:Drivers/STM32G4xx_HAL_Driver/Src/stm32g4xx_hal_dac.c ****       or @ref HAL_DAC_Init function.
 312:Drivers/STM32G4xx_HAL_Driver/Src/stm32g4xx_hal_dac.c **** 
 313:Drivers/STM32G4xx_HAL_Driver/Src/stm32g4xx_hal_dac.c ****       When The compilation define USE_HAL_DAC_REGISTER_CALLBACKS is set to 0 or
 314:Drivers/STM32G4xx_HAL_Driver/Src/stm32g4xx_hal_dac.c ****       not defined, the callback registering feature is not available
ARM GAS  /tmp/ccHGeJqL.s 			page 7


 315:Drivers/STM32G4xx_HAL_Driver/Src/stm32g4xx_hal_dac.c ****       and weak (surcharged) callbacks are used.
 316:Drivers/STM32G4xx_HAL_Driver/Src/stm32g4xx_hal_dac.c **** 
 317:Drivers/STM32G4xx_HAL_Driver/Src/stm32g4xx_hal_dac.c ****      *** DAC HAL driver macros list ***
 318:Drivers/STM32G4xx_HAL_Driver/Src/stm32g4xx_hal_dac.c ****      =============================================
 319:Drivers/STM32G4xx_HAL_Driver/Src/stm32g4xx_hal_dac.c ****      [..]
 320:Drivers/STM32G4xx_HAL_Driver/Src/stm32g4xx_hal_dac.c ****        Below the list of most used macros in DAC HAL driver.
 321:Drivers/STM32G4xx_HAL_Driver/Src/stm32g4xx_hal_dac.c **** 
 322:Drivers/STM32G4xx_HAL_Driver/Src/stm32g4xx_hal_dac.c ****       (+) __HAL_DAC_ENABLE : Enable the DAC peripheral
 323:Drivers/STM32G4xx_HAL_Driver/Src/stm32g4xx_hal_dac.c ****       (+) __HAL_DAC_DISABLE : Disable the DAC peripheral
 324:Drivers/STM32G4xx_HAL_Driver/Src/stm32g4xx_hal_dac.c ****       (+) __HAL_DAC_CLEAR_FLAG: Clear the DAC's pending flags
 325:Drivers/STM32G4xx_HAL_Driver/Src/stm32g4xx_hal_dac.c ****       (+) __HAL_DAC_GET_FLAG: Get the selected DAC's flag status
 326:Drivers/STM32G4xx_HAL_Driver/Src/stm32g4xx_hal_dac.c **** 
 327:Drivers/STM32G4xx_HAL_Driver/Src/stm32g4xx_hal_dac.c ****      [..]
 328:Drivers/STM32G4xx_HAL_Driver/Src/stm32g4xx_hal_dac.c ****       (@) You can refer to the DAC HAL driver header file for more useful macros
 329:Drivers/STM32G4xx_HAL_Driver/Src/stm32g4xx_hal_dac.c **** 
 330:Drivers/STM32G4xx_HAL_Driver/Src/stm32g4xx_hal_dac.c ****  @endverbatim
 331:Drivers/STM32G4xx_HAL_Driver/Src/stm32g4xx_hal_dac.c ****   ******************************************************************************
 332:Drivers/STM32G4xx_HAL_Driver/Src/stm32g4xx_hal_dac.c ****   * @attention
 333:Drivers/STM32G4xx_HAL_Driver/Src/stm32g4xx_hal_dac.c ****   *
 334:Drivers/STM32G4xx_HAL_Driver/Src/stm32g4xx_hal_dac.c ****   * <h2><center>&copy; Copyright (c) 2019 STMicroelectronics.
 335:Drivers/STM32G4xx_HAL_Driver/Src/stm32g4xx_hal_dac.c ****   * All rights reserved.</center></h2>
 336:Drivers/STM32G4xx_HAL_Driver/Src/stm32g4xx_hal_dac.c ****   *
 337:Drivers/STM32G4xx_HAL_Driver/Src/stm32g4xx_hal_dac.c ****   * This software component is licensed by ST under BSD 3-Clause license,
 338:Drivers/STM32G4xx_HAL_Driver/Src/stm32g4xx_hal_dac.c ****   * the "License"; You may not use this file except in compliance with the
 339:Drivers/STM32G4xx_HAL_Driver/Src/stm32g4xx_hal_dac.c ****   * License. You may obtain a copy of the License at:
 340:Drivers/STM32G4xx_HAL_Driver/Src/stm32g4xx_hal_dac.c ****   *                        opensource.org/licenses/BSD-3-Clause
 341:Drivers/STM32G4xx_HAL_Driver/Src/stm32g4xx_hal_dac.c ****   *
 342:Drivers/STM32G4xx_HAL_Driver/Src/stm32g4xx_hal_dac.c ****   ******************************************************************************
 343:Drivers/STM32G4xx_HAL_Driver/Src/stm32g4xx_hal_dac.c ****   */
 344:Drivers/STM32G4xx_HAL_Driver/Src/stm32g4xx_hal_dac.c **** 
 345:Drivers/STM32G4xx_HAL_Driver/Src/stm32g4xx_hal_dac.c **** /* Includes ------------------------------------------------------------------*/
 346:Drivers/STM32G4xx_HAL_Driver/Src/stm32g4xx_hal_dac.c **** #include "stm32g4xx_hal.h"
 347:Drivers/STM32G4xx_HAL_Driver/Src/stm32g4xx_hal_dac.c **** 
 348:Drivers/STM32G4xx_HAL_Driver/Src/stm32g4xx_hal_dac.c **** /** @addtogroup STM32G4xx_HAL_Driver
 349:Drivers/STM32G4xx_HAL_Driver/Src/stm32g4xx_hal_dac.c ****   * @{
 350:Drivers/STM32G4xx_HAL_Driver/Src/stm32g4xx_hal_dac.c ****   */
 351:Drivers/STM32G4xx_HAL_Driver/Src/stm32g4xx_hal_dac.c **** 
 352:Drivers/STM32G4xx_HAL_Driver/Src/stm32g4xx_hal_dac.c **** #ifdef HAL_DAC_MODULE_ENABLED
 353:Drivers/STM32G4xx_HAL_Driver/Src/stm32g4xx_hal_dac.c **** #if defined(DAC1) || defined(DAC2) || defined(DAC3) ||defined (DAC4)
 354:Drivers/STM32G4xx_HAL_Driver/Src/stm32g4xx_hal_dac.c **** 
 355:Drivers/STM32G4xx_HAL_Driver/Src/stm32g4xx_hal_dac.c **** /** @defgroup DAC DAC
 356:Drivers/STM32G4xx_HAL_Driver/Src/stm32g4xx_hal_dac.c ****   * @brief DAC driver modules
 357:Drivers/STM32G4xx_HAL_Driver/Src/stm32g4xx_hal_dac.c ****   * @{
 358:Drivers/STM32G4xx_HAL_Driver/Src/stm32g4xx_hal_dac.c ****   */
 359:Drivers/STM32G4xx_HAL_Driver/Src/stm32g4xx_hal_dac.c **** 
 360:Drivers/STM32G4xx_HAL_Driver/Src/stm32g4xx_hal_dac.c **** /* Private typedef -----------------------------------------------------------*/
 361:Drivers/STM32G4xx_HAL_Driver/Src/stm32g4xx_hal_dac.c **** /* Private define ------------------------------------------------------------*/
 362:Drivers/STM32G4xx_HAL_Driver/Src/stm32g4xx_hal_dac.c **** /* Private constants ---------------------------------------------------------*/
 363:Drivers/STM32G4xx_HAL_Driver/Src/stm32g4xx_hal_dac.c **** /** @addtogroup DAC_Private_Constants DAC Private Constants
 364:Drivers/STM32G4xx_HAL_Driver/Src/stm32g4xx_hal_dac.c ****   * @{
 365:Drivers/STM32G4xx_HAL_Driver/Src/stm32g4xx_hal_dac.c ****   */
 366:Drivers/STM32G4xx_HAL_Driver/Src/stm32g4xx_hal_dac.c **** #define TIMEOUT_DAC_CALIBCONFIG        1U         /* 1   ms        */
 367:Drivers/STM32G4xx_HAL_Driver/Src/stm32g4xx_hal_dac.c **** #define HFSEL_ENABLE_THRESHOLD_80MHZ   80000000U  /* 80 MHz        */
 368:Drivers/STM32G4xx_HAL_Driver/Src/stm32g4xx_hal_dac.c **** #define HFSEL_ENABLE_THRESHOLD_160MHZ  160000000U /* 160 MHz       */
 369:Drivers/STM32G4xx_HAL_Driver/Src/stm32g4xx_hal_dac.c **** 
 370:Drivers/STM32G4xx_HAL_Driver/Src/stm32g4xx_hal_dac.c **** /**
 371:Drivers/STM32G4xx_HAL_Driver/Src/stm32g4xx_hal_dac.c ****   * @}
ARM GAS  /tmp/ccHGeJqL.s 			page 8


 372:Drivers/STM32G4xx_HAL_Driver/Src/stm32g4xx_hal_dac.c ****   */
 373:Drivers/STM32G4xx_HAL_Driver/Src/stm32g4xx_hal_dac.c **** 
 374:Drivers/STM32G4xx_HAL_Driver/Src/stm32g4xx_hal_dac.c **** /* Private macro -------------------------------------------------------------*/
 375:Drivers/STM32G4xx_HAL_Driver/Src/stm32g4xx_hal_dac.c **** /* Private variables ---------------------------------------------------------*/
 376:Drivers/STM32G4xx_HAL_Driver/Src/stm32g4xx_hal_dac.c **** /* Private function prototypes -----------------------------------------------*/
 377:Drivers/STM32G4xx_HAL_Driver/Src/stm32g4xx_hal_dac.c **** /* Exported functions -------------------------------------------------------*/
 378:Drivers/STM32G4xx_HAL_Driver/Src/stm32g4xx_hal_dac.c **** 
 379:Drivers/STM32G4xx_HAL_Driver/Src/stm32g4xx_hal_dac.c **** /** @defgroup DAC_Exported_Functions DAC Exported Functions
 380:Drivers/STM32G4xx_HAL_Driver/Src/stm32g4xx_hal_dac.c ****   * @{
 381:Drivers/STM32G4xx_HAL_Driver/Src/stm32g4xx_hal_dac.c ****   */
 382:Drivers/STM32G4xx_HAL_Driver/Src/stm32g4xx_hal_dac.c **** 
 383:Drivers/STM32G4xx_HAL_Driver/Src/stm32g4xx_hal_dac.c **** /** @defgroup DAC_Exported_Functions_Group1 Initialization and de-initialization functions
 384:Drivers/STM32G4xx_HAL_Driver/Src/stm32g4xx_hal_dac.c ****   *  @brief    Initialization and Configuration functions
 385:Drivers/STM32G4xx_HAL_Driver/Src/stm32g4xx_hal_dac.c ****   *
 386:Drivers/STM32G4xx_HAL_Driver/Src/stm32g4xx_hal_dac.c **** @verbatim
 387:Drivers/STM32G4xx_HAL_Driver/Src/stm32g4xx_hal_dac.c ****   ==============================================================================
 388:Drivers/STM32G4xx_HAL_Driver/Src/stm32g4xx_hal_dac.c ****               ##### Initialization and de-initialization functions #####
 389:Drivers/STM32G4xx_HAL_Driver/Src/stm32g4xx_hal_dac.c ****   ==============================================================================
 390:Drivers/STM32G4xx_HAL_Driver/Src/stm32g4xx_hal_dac.c ****     [..]  This section provides functions allowing to:
 391:Drivers/STM32G4xx_HAL_Driver/Src/stm32g4xx_hal_dac.c ****       (+) Initialize and configure the DAC.
 392:Drivers/STM32G4xx_HAL_Driver/Src/stm32g4xx_hal_dac.c ****       (+) De-initialize the DAC.
 393:Drivers/STM32G4xx_HAL_Driver/Src/stm32g4xx_hal_dac.c **** 
 394:Drivers/STM32G4xx_HAL_Driver/Src/stm32g4xx_hal_dac.c **** @endverbatim
 395:Drivers/STM32G4xx_HAL_Driver/Src/stm32g4xx_hal_dac.c ****   * @{
 396:Drivers/STM32G4xx_HAL_Driver/Src/stm32g4xx_hal_dac.c ****   */
 397:Drivers/STM32G4xx_HAL_Driver/Src/stm32g4xx_hal_dac.c **** 
 398:Drivers/STM32G4xx_HAL_Driver/Src/stm32g4xx_hal_dac.c **** /**
 399:Drivers/STM32G4xx_HAL_Driver/Src/stm32g4xx_hal_dac.c ****   * @brief  Initialize the DAC peripheral according to the specified parameters
 400:Drivers/STM32G4xx_HAL_Driver/Src/stm32g4xx_hal_dac.c ****   *         in the DAC_InitStruct and initialize the associated handle.
 401:Drivers/STM32G4xx_HAL_Driver/Src/stm32g4xx_hal_dac.c ****   * @param  hdac pointer to a DAC_HandleTypeDef structure that contains
 402:Drivers/STM32G4xx_HAL_Driver/Src/stm32g4xx_hal_dac.c ****   *         the configuration information for the specified DAC.
 403:Drivers/STM32G4xx_HAL_Driver/Src/stm32g4xx_hal_dac.c ****   * @retval HAL status
 404:Drivers/STM32G4xx_HAL_Driver/Src/stm32g4xx_hal_dac.c ****   */
 405:Drivers/STM32G4xx_HAL_Driver/Src/stm32g4xx_hal_dac.c **** HAL_StatusTypeDef HAL_DAC_Init(DAC_HandleTypeDef *hdac)
 406:Drivers/STM32G4xx_HAL_Driver/Src/stm32g4xx_hal_dac.c **** {
 407:Drivers/STM32G4xx_HAL_Driver/Src/stm32g4xx_hal_dac.c ****   /* Check DAC handle */
 408:Drivers/STM32G4xx_HAL_Driver/Src/stm32g4xx_hal_dac.c ****   if (hdac == NULL)
 409:Drivers/STM32G4xx_HAL_Driver/Src/stm32g4xx_hal_dac.c ****   {
 410:Drivers/STM32G4xx_HAL_Driver/Src/stm32g4xx_hal_dac.c ****     return HAL_ERROR;
 411:Drivers/STM32G4xx_HAL_Driver/Src/stm32g4xx_hal_dac.c ****   }
 412:Drivers/STM32G4xx_HAL_Driver/Src/stm32g4xx_hal_dac.c ****   /* Check the parameters */
 413:Drivers/STM32G4xx_HAL_Driver/Src/stm32g4xx_hal_dac.c ****   assert_param(IS_DAC_ALL_INSTANCE(hdac->Instance));
 414:Drivers/STM32G4xx_HAL_Driver/Src/stm32g4xx_hal_dac.c **** 
 415:Drivers/STM32G4xx_HAL_Driver/Src/stm32g4xx_hal_dac.c ****   if (hdac->State == HAL_DAC_STATE_RESET)
 416:Drivers/STM32G4xx_HAL_Driver/Src/stm32g4xx_hal_dac.c ****   {
 417:Drivers/STM32G4xx_HAL_Driver/Src/stm32g4xx_hal_dac.c **** #if (USE_HAL_DAC_REGISTER_CALLBACKS == 1)
 418:Drivers/STM32G4xx_HAL_Driver/Src/stm32g4xx_hal_dac.c ****     /* Init the DAC Callback settings */
 419:Drivers/STM32G4xx_HAL_Driver/Src/stm32g4xx_hal_dac.c ****     hdac->ConvCpltCallbackCh1           = HAL_DAC_ConvCpltCallbackCh1;
 420:Drivers/STM32G4xx_HAL_Driver/Src/stm32g4xx_hal_dac.c ****     hdac->ConvHalfCpltCallbackCh1       = HAL_DAC_ConvHalfCpltCallbackCh1;
 421:Drivers/STM32G4xx_HAL_Driver/Src/stm32g4xx_hal_dac.c ****     hdac->ErrorCallbackCh1              = HAL_DAC_ErrorCallbackCh1;
 422:Drivers/STM32G4xx_HAL_Driver/Src/stm32g4xx_hal_dac.c ****     hdac->DMAUnderrunCallbackCh1        = HAL_DAC_DMAUnderrunCallbackCh1;
 423:Drivers/STM32G4xx_HAL_Driver/Src/stm32g4xx_hal_dac.c **** 
 424:Drivers/STM32G4xx_HAL_Driver/Src/stm32g4xx_hal_dac.c ****     hdac->ConvCpltCallbackCh2           = HAL_DACEx_ConvCpltCallbackCh2;
 425:Drivers/STM32G4xx_HAL_Driver/Src/stm32g4xx_hal_dac.c ****     hdac->ConvHalfCpltCallbackCh2       = HAL_DACEx_ConvHalfCpltCallbackCh2;
 426:Drivers/STM32G4xx_HAL_Driver/Src/stm32g4xx_hal_dac.c ****     hdac->ErrorCallbackCh2              = HAL_DACEx_ErrorCallbackCh2;
 427:Drivers/STM32G4xx_HAL_Driver/Src/stm32g4xx_hal_dac.c ****     hdac->DMAUnderrunCallbackCh2        = HAL_DACEx_DMAUnderrunCallbackCh2;
 428:Drivers/STM32G4xx_HAL_Driver/Src/stm32g4xx_hal_dac.c **** 
ARM GAS  /tmp/ccHGeJqL.s 			page 9


 429:Drivers/STM32G4xx_HAL_Driver/Src/stm32g4xx_hal_dac.c ****     if (hdac->MspInitCallback == NULL)
 430:Drivers/STM32G4xx_HAL_Driver/Src/stm32g4xx_hal_dac.c ****     {
 431:Drivers/STM32G4xx_HAL_Driver/Src/stm32g4xx_hal_dac.c ****       hdac->MspInitCallback             = HAL_DAC_MspInit;
 432:Drivers/STM32G4xx_HAL_Driver/Src/stm32g4xx_hal_dac.c ****     }
 433:Drivers/STM32G4xx_HAL_Driver/Src/stm32g4xx_hal_dac.c **** #endif /* USE_HAL_DAC_REGISTER_CALLBACKS */
 434:Drivers/STM32G4xx_HAL_Driver/Src/stm32g4xx_hal_dac.c **** 
 435:Drivers/STM32G4xx_HAL_Driver/Src/stm32g4xx_hal_dac.c ****     /* Allocate lock resource and initialize it */
 436:Drivers/STM32G4xx_HAL_Driver/Src/stm32g4xx_hal_dac.c ****     hdac->Lock = HAL_UNLOCKED;
 437:Drivers/STM32G4xx_HAL_Driver/Src/stm32g4xx_hal_dac.c **** 
 438:Drivers/STM32G4xx_HAL_Driver/Src/stm32g4xx_hal_dac.c **** #if (USE_HAL_DAC_REGISTER_CALLBACKS == 1)
 439:Drivers/STM32G4xx_HAL_Driver/Src/stm32g4xx_hal_dac.c ****     /* Init the low level hardware */
 440:Drivers/STM32G4xx_HAL_Driver/Src/stm32g4xx_hal_dac.c ****     hdac->MspInitCallback(hdac);
 441:Drivers/STM32G4xx_HAL_Driver/Src/stm32g4xx_hal_dac.c **** #else
 442:Drivers/STM32G4xx_HAL_Driver/Src/stm32g4xx_hal_dac.c ****     /* Init the low level hardware */
 443:Drivers/STM32G4xx_HAL_Driver/Src/stm32g4xx_hal_dac.c ****     HAL_DAC_MspInit(hdac);
 444:Drivers/STM32G4xx_HAL_Driver/Src/stm32g4xx_hal_dac.c **** #endif /* USE_HAL_DAC_REGISTER_CALLBACKS */
 445:Drivers/STM32G4xx_HAL_Driver/Src/stm32g4xx_hal_dac.c ****   }
 446:Drivers/STM32G4xx_HAL_Driver/Src/stm32g4xx_hal_dac.c **** 
 447:Drivers/STM32G4xx_HAL_Driver/Src/stm32g4xx_hal_dac.c ****   /* Initialize the DAC state*/
 448:Drivers/STM32G4xx_HAL_Driver/Src/stm32g4xx_hal_dac.c ****   hdac->State = HAL_DAC_STATE_BUSY;
 449:Drivers/STM32G4xx_HAL_Driver/Src/stm32g4xx_hal_dac.c **** 
 450:Drivers/STM32G4xx_HAL_Driver/Src/stm32g4xx_hal_dac.c ****   /* Set DAC error code to none */
 451:Drivers/STM32G4xx_HAL_Driver/Src/stm32g4xx_hal_dac.c ****   hdac->ErrorCode = HAL_DAC_ERROR_NONE;
 452:Drivers/STM32G4xx_HAL_Driver/Src/stm32g4xx_hal_dac.c **** 
 453:Drivers/STM32G4xx_HAL_Driver/Src/stm32g4xx_hal_dac.c ****   /* Initialize the DAC state*/
 454:Drivers/STM32G4xx_HAL_Driver/Src/stm32g4xx_hal_dac.c ****   hdac->State = HAL_DAC_STATE_READY;
 455:Drivers/STM32G4xx_HAL_Driver/Src/stm32g4xx_hal_dac.c **** 
 456:Drivers/STM32G4xx_HAL_Driver/Src/stm32g4xx_hal_dac.c ****   /* Return function status */
 457:Drivers/STM32G4xx_HAL_Driver/Src/stm32g4xx_hal_dac.c ****   return HAL_OK;
 458:Drivers/STM32G4xx_HAL_Driver/Src/stm32g4xx_hal_dac.c **** }
 459:Drivers/STM32G4xx_HAL_Driver/Src/stm32g4xx_hal_dac.c **** 
 460:Drivers/STM32G4xx_HAL_Driver/Src/stm32g4xx_hal_dac.c **** /**
 461:Drivers/STM32G4xx_HAL_Driver/Src/stm32g4xx_hal_dac.c ****   * @brief  Deinitialize the DAC peripheral registers to their default reset values.
 462:Drivers/STM32G4xx_HAL_Driver/Src/stm32g4xx_hal_dac.c ****   * @param  hdac pointer to a DAC_HandleTypeDef structure that contains
 463:Drivers/STM32G4xx_HAL_Driver/Src/stm32g4xx_hal_dac.c ****   *         the configuration information for the specified DAC.
 464:Drivers/STM32G4xx_HAL_Driver/Src/stm32g4xx_hal_dac.c ****   * @retval HAL status
 465:Drivers/STM32G4xx_HAL_Driver/Src/stm32g4xx_hal_dac.c ****   */
 466:Drivers/STM32G4xx_HAL_Driver/Src/stm32g4xx_hal_dac.c **** HAL_StatusTypeDef HAL_DAC_DeInit(DAC_HandleTypeDef *hdac)
 467:Drivers/STM32G4xx_HAL_Driver/Src/stm32g4xx_hal_dac.c **** {
 468:Drivers/STM32G4xx_HAL_Driver/Src/stm32g4xx_hal_dac.c ****   /* Check DAC handle */
 469:Drivers/STM32G4xx_HAL_Driver/Src/stm32g4xx_hal_dac.c ****   if (hdac == NULL)
 470:Drivers/STM32G4xx_HAL_Driver/Src/stm32g4xx_hal_dac.c ****   {
 471:Drivers/STM32G4xx_HAL_Driver/Src/stm32g4xx_hal_dac.c ****     return HAL_ERROR;
 472:Drivers/STM32G4xx_HAL_Driver/Src/stm32g4xx_hal_dac.c ****   }
 473:Drivers/STM32G4xx_HAL_Driver/Src/stm32g4xx_hal_dac.c **** 
 474:Drivers/STM32G4xx_HAL_Driver/Src/stm32g4xx_hal_dac.c ****   /* Check the parameters */
 475:Drivers/STM32G4xx_HAL_Driver/Src/stm32g4xx_hal_dac.c ****   assert_param(IS_DAC_ALL_INSTANCE(hdac->Instance));
 476:Drivers/STM32G4xx_HAL_Driver/Src/stm32g4xx_hal_dac.c **** 
 477:Drivers/STM32G4xx_HAL_Driver/Src/stm32g4xx_hal_dac.c ****   /* Change DAC state */
 478:Drivers/STM32G4xx_HAL_Driver/Src/stm32g4xx_hal_dac.c ****   hdac->State = HAL_DAC_STATE_BUSY;
 479:Drivers/STM32G4xx_HAL_Driver/Src/stm32g4xx_hal_dac.c **** 
 480:Drivers/STM32G4xx_HAL_Driver/Src/stm32g4xx_hal_dac.c **** #if (USE_HAL_DAC_REGISTER_CALLBACKS == 1)
 481:Drivers/STM32G4xx_HAL_Driver/Src/stm32g4xx_hal_dac.c ****   if (hdac->MspDeInitCallback == NULL)
 482:Drivers/STM32G4xx_HAL_Driver/Src/stm32g4xx_hal_dac.c ****   {
 483:Drivers/STM32G4xx_HAL_Driver/Src/stm32g4xx_hal_dac.c ****     hdac->MspDeInitCallback = HAL_DAC_MspDeInit;
 484:Drivers/STM32G4xx_HAL_Driver/Src/stm32g4xx_hal_dac.c ****   }
 485:Drivers/STM32G4xx_HAL_Driver/Src/stm32g4xx_hal_dac.c ****   /* DeInit the low level hardware */
ARM GAS  /tmp/ccHGeJqL.s 			page 10


 486:Drivers/STM32G4xx_HAL_Driver/Src/stm32g4xx_hal_dac.c ****   hdac->MspDeInitCallback(hdac);
 487:Drivers/STM32G4xx_HAL_Driver/Src/stm32g4xx_hal_dac.c **** #else
 488:Drivers/STM32G4xx_HAL_Driver/Src/stm32g4xx_hal_dac.c ****   /* DeInit the low level hardware */
 489:Drivers/STM32G4xx_HAL_Driver/Src/stm32g4xx_hal_dac.c ****   HAL_DAC_MspDeInit(hdac);
 490:Drivers/STM32G4xx_HAL_Driver/Src/stm32g4xx_hal_dac.c **** #endif /* USE_HAL_DAC_REGISTER_CALLBACKS */
 491:Drivers/STM32G4xx_HAL_Driver/Src/stm32g4xx_hal_dac.c **** 
 492:Drivers/STM32G4xx_HAL_Driver/Src/stm32g4xx_hal_dac.c ****   /* Set DAC error code to none */
 493:Drivers/STM32G4xx_HAL_Driver/Src/stm32g4xx_hal_dac.c ****   hdac->ErrorCode = HAL_DAC_ERROR_NONE;
 494:Drivers/STM32G4xx_HAL_Driver/Src/stm32g4xx_hal_dac.c **** 
 495:Drivers/STM32G4xx_HAL_Driver/Src/stm32g4xx_hal_dac.c ****   /* Change DAC state */
 496:Drivers/STM32G4xx_HAL_Driver/Src/stm32g4xx_hal_dac.c ****   hdac->State = HAL_DAC_STATE_RESET;
 497:Drivers/STM32G4xx_HAL_Driver/Src/stm32g4xx_hal_dac.c **** 
 498:Drivers/STM32G4xx_HAL_Driver/Src/stm32g4xx_hal_dac.c ****   /* Release Lock */
 499:Drivers/STM32G4xx_HAL_Driver/Src/stm32g4xx_hal_dac.c ****   __HAL_UNLOCK(hdac);
 500:Drivers/STM32G4xx_HAL_Driver/Src/stm32g4xx_hal_dac.c **** 
 501:Drivers/STM32G4xx_HAL_Driver/Src/stm32g4xx_hal_dac.c ****   /* Return function status */
 502:Drivers/STM32G4xx_HAL_Driver/Src/stm32g4xx_hal_dac.c ****   return HAL_OK;
 503:Drivers/STM32G4xx_HAL_Driver/Src/stm32g4xx_hal_dac.c **** }
 504:Drivers/STM32G4xx_HAL_Driver/Src/stm32g4xx_hal_dac.c **** 
 505:Drivers/STM32G4xx_HAL_Driver/Src/stm32g4xx_hal_dac.c **** /**
 506:Drivers/STM32G4xx_HAL_Driver/Src/stm32g4xx_hal_dac.c ****   * @brief  Initialize the DAC MSP.
 507:Drivers/STM32G4xx_HAL_Driver/Src/stm32g4xx_hal_dac.c ****   * @param  hdac pointer to a DAC_HandleTypeDef structure that contains
 508:Drivers/STM32G4xx_HAL_Driver/Src/stm32g4xx_hal_dac.c ****   *         the configuration information for the specified DAC.
 509:Drivers/STM32G4xx_HAL_Driver/Src/stm32g4xx_hal_dac.c ****   * @retval None
 510:Drivers/STM32G4xx_HAL_Driver/Src/stm32g4xx_hal_dac.c ****   */
 511:Drivers/STM32G4xx_HAL_Driver/Src/stm32g4xx_hal_dac.c **** __weak void HAL_DAC_MspInit(DAC_HandleTypeDef *hdac)
 512:Drivers/STM32G4xx_HAL_Driver/Src/stm32g4xx_hal_dac.c **** {
  30              		.loc 1 512 1 view -0
  31              		.cfi_startproc
  32              		@ args = 0, pretend = 0, frame = 0
  33              		@ frame_needed = 0, uses_anonymous_args = 0
  34              		@ link register save eliminated.
 513:Drivers/STM32G4xx_HAL_Driver/Src/stm32g4xx_hal_dac.c ****   /* Prevent unused argument(s) compilation warning */
 514:Drivers/STM32G4xx_HAL_Driver/Src/stm32g4xx_hal_dac.c ****   UNUSED(hdac);
  35              		.loc 1 514 3 view .LVU1
 515:Drivers/STM32G4xx_HAL_Driver/Src/stm32g4xx_hal_dac.c **** 
 516:Drivers/STM32G4xx_HAL_Driver/Src/stm32g4xx_hal_dac.c ****   /* NOTE : This function should not be modified, when the callback is needed,
 517:Drivers/STM32G4xx_HAL_Driver/Src/stm32g4xx_hal_dac.c ****             the HAL_DAC_MspInit could be implemented in the user file
 518:Drivers/STM32G4xx_HAL_Driver/Src/stm32g4xx_hal_dac.c ****    */
 519:Drivers/STM32G4xx_HAL_Driver/Src/stm32g4xx_hal_dac.c **** }
  36              		.loc 1 519 1 is_stmt 0 view .LVU2
  37 0000 7047     		bx	lr
  38              		.cfi_endproc
  39              	.LFE359:
  41              		.section	.text.HAL_DAC_Init,"ax",%progbits
  42              		.align	1
  43              		.global	HAL_DAC_Init
  44              		.syntax unified
  45              		.thumb
  46              		.thumb_func
  47              		.fpu fpv4-sp-d16
  49              	HAL_DAC_Init:
  50              	.LVL1:
  51              	.LFB357:
 406:Drivers/STM32G4xx_HAL_Driver/Src/stm32g4xx_hal_dac.c ****   /* Check DAC handle */
  52              		.loc 1 406 1 is_stmt 1 view -0
  53              		.cfi_startproc
ARM GAS  /tmp/ccHGeJqL.s 			page 11


  54              		@ args = 0, pretend = 0, frame = 0
  55              		@ frame_needed = 0, uses_anonymous_args = 0
 408:Drivers/STM32G4xx_HAL_Driver/Src/stm32g4xx_hal_dac.c ****   {
  56              		.loc 1 408 3 view .LVU4
 406:Drivers/STM32G4xx_HAL_Driver/Src/stm32g4xx_hal_dac.c ****   /* Check DAC handle */
  57              		.loc 1 406 1 is_stmt 0 view .LVU5
  58 0000 10B5     		push	{r4, lr}
  59              	.LCFI0:
  60              		.cfi_def_cfa_offset 8
  61              		.cfi_offset 4, -8
  62              		.cfi_offset 14, -4
 408:Drivers/STM32G4xx_HAL_Driver/Src/stm32g4xx_hal_dac.c ****   {
  63              		.loc 1 408 6 view .LVU6
  64 0002 0446     		mov	r4, r0
  65 0004 68B1     		cbz	r0, .L5
 413:Drivers/STM32G4xx_HAL_Driver/Src/stm32g4xx_hal_dac.c **** 
  66              		.loc 1 413 3 is_stmt 1 view .LVU7
 415:Drivers/STM32G4xx_HAL_Driver/Src/stm32g4xx_hal_dac.c ****   {
  67              		.loc 1 415 3 view .LVU8
 415:Drivers/STM32G4xx_HAL_Driver/Src/stm32g4xx_hal_dac.c ****   {
  68              		.loc 1 415 11 is_stmt 0 view .LVU9
  69 0006 0379     		ldrb	r3, [r0, #4]	@ zero_extendqisi2
 415:Drivers/STM32G4xx_HAL_Driver/Src/stm32g4xx_hal_dac.c ****   {
  70              		.loc 1 415 6 view .LVU10
  71 0008 03F0FF02 		and	r2, r3, #255
  72 000c 13B9     		cbnz	r3, .L4
 436:Drivers/STM32G4xx_HAL_Driver/Src/stm32g4xx_hal_dac.c **** 
  73              		.loc 1 436 5 is_stmt 1 view .LVU11
 436:Drivers/STM32G4xx_HAL_Driver/Src/stm32g4xx_hal_dac.c **** 
  74              		.loc 1 436 16 is_stmt 0 view .LVU12
  75 000e 4271     		strb	r2, [r0, #5]
 443:Drivers/STM32G4xx_HAL_Driver/Src/stm32g4xx_hal_dac.c **** #endif /* USE_HAL_DAC_REGISTER_CALLBACKS */
  76              		.loc 1 443 5 is_stmt 1 view .LVU13
  77 0010 FFF7FEFF 		bl	HAL_DAC_MspInit
  78              	.LVL2:
  79              	.L4:
 448:Drivers/STM32G4xx_HAL_Driver/Src/stm32g4xx_hal_dac.c **** 
  80              		.loc 1 448 3 view .LVU14
 448:Drivers/STM32G4xx_HAL_Driver/Src/stm32g4xx_hal_dac.c **** 
  81              		.loc 1 448 15 is_stmt 0 view .LVU15
  82 0014 0223     		movs	r3, #2
  83 0016 2371     		strb	r3, [r4, #4]
 451:Drivers/STM32G4xx_HAL_Driver/Src/stm32g4xx_hal_dac.c **** 
  84              		.loc 1 451 3 is_stmt 1 view .LVU16
 451:Drivers/STM32G4xx_HAL_Driver/Src/stm32g4xx_hal_dac.c **** 
  85              		.loc 1 451 19 is_stmt 0 view .LVU17
  86 0018 0020     		movs	r0, #0
 454:Drivers/STM32G4xx_HAL_Driver/Src/stm32g4xx_hal_dac.c **** 
  87              		.loc 1 454 15 view .LVU18
  88 001a 0123     		movs	r3, #1
 451:Drivers/STM32G4xx_HAL_Driver/Src/stm32g4xx_hal_dac.c **** 
  89              		.loc 1 451 19 view .LVU19
  90 001c 2061     		str	r0, [r4, #16]
 454:Drivers/STM32G4xx_HAL_Driver/Src/stm32g4xx_hal_dac.c **** 
  91              		.loc 1 454 3 is_stmt 1 view .LVU20
 454:Drivers/STM32G4xx_HAL_Driver/Src/stm32g4xx_hal_dac.c **** 
  92              		.loc 1 454 15 is_stmt 0 view .LVU21
ARM GAS  /tmp/ccHGeJqL.s 			page 12


  93 001e 2371     		strb	r3, [r4, #4]
 457:Drivers/STM32G4xx_HAL_Driver/Src/stm32g4xx_hal_dac.c **** }
  94              		.loc 1 457 3 is_stmt 1 view .LVU22
  95              	.L3:
 458:Drivers/STM32G4xx_HAL_Driver/Src/stm32g4xx_hal_dac.c **** 
  96              		.loc 1 458 1 is_stmt 0 view .LVU23
  97 0020 10BD     		pop	{r4, pc}
  98              	.LVL3:
  99              	.L5:
 410:Drivers/STM32G4xx_HAL_Driver/Src/stm32g4xx_hal_dac.c ****   }
 100              		.loc 1 410 12 view .LVU24
 101 0022 0120     		movs	r0, #1
 102              	.LVL4:
 410:Drivers/STM32G4xx_HAL_Driver/Src/stm32g4xx_hal_dac.c ****   }
 103              		.loc 1 410 12 view .LVU25
 104 0024 FCE7     		b	.L3
 105              		.cfi_endproc
 106              	.LFE357:
 108              		.section	.text.HAL_DAC_MspDeInit,"ax",%progbits
 109              		.align	1
 110              		.weak	HAL_DAC_MspDeInit
 111              		.syntax unified
 112              		.thumb
 113              		.thumb_func
 114              		.fpu fpv4-sp-d16
 116              	HAL_DAC_MspDeInit:
 117              	.LFB379:
 118              		.cfi_startproc
 119              		@ args = 0, pretend = 0, frame = 0
 120              		@ frame_needed = 0, uses_anonymous_args = 0
 121              		@ link register save eliminated.
 122 0000 7047     		bx	lr
 123              		.cfi_endproc
 124              	.LFE379:
 126              		.section	.text.HAL_DAC_DeInit,"ax",%progbits
 127              		.align	1
 128              		.global	HAL_DAC_DeInit
 129              		.syntax unified
 130              		.thumb
 131              		.thumb_func
 132              		.fpu fpv4-sp-d16
 134              	HAL_DAC_DeInit:
 135              	.LVL5:
 136              	.LFB358:
 467:Drivers/STM32G4xx_HAL_Driver/Src/stm32g4xx_hal_dac.c ****   /* Check DAC handle */
 137              		.loc 1 467 1 is_stmt 1 view -0
 138              		.cfi_startproc
 139              		@ args = 0, pretend = 0, frame = 0
 140              		@ frame_needed = 0, uses_anonymous_args = 0
 469:Drivers/STM32G4xx_HAL_Driver/Src/stm32g4xx_hal_dac.c ****   {
 141              		.loc 1 469 3 view .LVU27
 467:Drivers/STM32G4xx_HAL_Driver/Src/stm32g4xx_hal_dac.c ****   /* Check DAC handle */
 142              		.loc 1 467 1 is_stmt 0 view .LVU28
 143 0000 10B5     		push	{r4, lr}
 144              	.LCFI1:
 145              		.cfi_def_cfa_offset 8
 146              		.cfi_offset 4, -8
ARM GAS  /tmp/ccHGeJqL.s 			page 13


 147              		.cfi_offset 14, -4
 469:Drivers/STM32G4xx_HAL_Driver/Src/stm32g4xx_hal_dac.c ****   {
 148              		.loc 1 469 6 view .LVU29
 149 0002 0446     		mov	r4, r0
 150 0004 40B1     		cbz	r0, .L9
 475:Drivers/STM32G4xx_HAL_Driver/Src/stm32g4xx_hal_dac.c **** 
 151              		.loc 1 475 3 is_stmt 1 view .LVU30
 478:Drivers/STM32G4xx_HAL_Driver/Src/stm32g4xx_hal_dac.c **** 
 152              		.loc 1 478 3 view .LVU31
 478:Drivers/STM32G4xx_HAL_Driver/Src/stm32g4xx_hal_dac.c **** 
 153              		.loc 1 478 15 is_stmt 0 view .LVU32
 154 0006 0223     		movs	r3, #2
 155 0008 0371     		strb	r3, [r0, #4]
 489:Drivers/STM32G4xx_HAL_Driver/Src/stm32g4xx_hal_dac.c **** #endif /* USE_HAL_DAC_REGISTER_CALLBACKS */
 156              		.loc 1 489 3 is_stmt 1 view .LVU33
 157 000a FFF7FEFF 		bl	HAL_DAC_MspDeInit
 158              	.LVL6:
 493:Drivers/STM32G4xx_HAL_Driver/Src/stm32g4xx_hal_dac.c **** 
 159              		.loc 1 493 3 view .LVU34
 493:Drivers/STM32G4xx_HAL_Driver/Src/stm32g4xx_hal_dac.c **** 
 160              		.loc 1 493 19 is_stmt 0 view .LVU35
 161 000e 0020     		movs	r0, #0
 162 0010 2061     		str	r0, [r4, #16]
 496:Drivers/STM32G4xx_HAL_Driver/Src/stm32g4xx_hal_dac.c **** 
 163              		.loc 1 496 3 is_stmt 1 view .LVU36
 499:Drivers/STM32G4xx_HAL_Driver/Src/stm32g4xx_hal_dac.c **** 
 164              		.loc 1 499 3 is_stmt 0 view .LVU37
 165 0012 6071     		strb	r0, [r4, #5]
 496:Drivers/STM32G4xx_HAL_Driver/Src/stm32g4xx_hal_dac.c **** 
 166              		.loc 1 496 15 view .LVU38
 167 0014 2071     		strb	r0, [r4, #4]
 499:Drivers/STM32G4xx_HAL_Driver/Src/stm32g4xx_hal_dac.c **** 
 168              		.loc 1 499 3 is_stmt 1 view .LVU39
 499:Drivers/STM32G4xx_HAL_Driver/Src/stm32g4xx_hal_dac.c **** 
 169              		.loc 1 499 3 view .LVU40
 499:Drivers/STM32G4xx_HAL_Driver/Src/stm32g4xx_hal_dac.c **** 
 170              		.loc 1 499 3 view .LVU41
 502:Drivers/STM32G4xx_HAL_Driver/Src/stm32g4xx_hal_dac.c **** }
 171              		.loc 1 502 3 view .LVU42
 172              	.L8:
 503:Drivers/STM32G4xx_HAL_Driver/Src/stm32g4xx_hal_dac.c **** 
 173              		.loc 1 503 1 is_stmt 0 view .LVU43
 174 0016 10BD     		pop	{r4, pc}
 175              	.LVL7:
 176              	.L9:
 471:Drivers/STM32G4xx_HAL_Driver/Src/stm32g4xx_hal_dac.c ****   }
 177              		.loc 1 471 12 view .LVU44
 178 0018 0120     		movs	r0, #1
 179              	.LVL8:
 471:Drivers/STM32G4xx_HAL_Driver/Src/stm32g4xx_hal_dac.c ****   }
 180              		.loc 1 471 12 view .LVU45
 181 001a FCE7     		b	.L8
 182              		.cfi_endproc
 183              	.LFE358:
 185              		.section	.text.HAL_DAC_Start,"ax",%progbits
 186              		.align	1
 187              		.global	HAL_DAC_Start
ARM GAS  /tmp/ccHGeJqL.s 			page 14


 188              		.syntax unified
 189              		.thumb
 190              		.thumb_func
 191              		.fpu fpv4-sp-d16
 193              	HAL_DAC_Start:
 194              	.LVL9:
 195              	.LFB361:
 520:Drivers/STM32G4xx_HAL_Driver/Src/stm32g4xx_hal_dac.c **** 
 521:Drivers/STM32G4xx_HAL_Driver/Src/stm32g4xx_hal_dac.c **** /**
 522:Drivers/STM32G4xx_HAL_Driver/Src/stm32g4xx_hal_dac.c ****   * @brief  DeInitialize the DAC MSP.
 523:Drivers/STM32G4xx_HAL_Driver/Src/stm32g4xx_hal_dac.c ****   * @param  hdac pointer to a DAC_HandleTypeDef structure that contains
 524:Drivers/STM32G4xx_HAL_Driver/Src/stm32g4xx_hal_dac.c ****   *         the configuration information for the specified DAC.
 525:Drivers/STM32G4xx_HAL_Driver/Src/stm32g4xx_hal_dac.c ****   * @retval None
 526:Drivers/STM32G4xx_HAL_Driver/Src/stm32g4xx_hal_dac.c ****   */
 527:Drivers/STM32G4xx_HAL_Driver/Src/stm32g4xx_hal_dac.c **** __weak void HAL_DAC_MspDeInit(DAC_HandleTypeDef *hdac)
 528:Drivers/STM32G4xx_HAL_Driver/Src/stm32g4xx_hal_dac.c **** {
 529:Drivers/STM32G4xx_HAL_Driver/Src/stm32g4xx_hal_dac.c ****   /* Prevent unused argument(s) compilation warning */
 530:Drivers/STM32G4xx_HAL_Driver/Src/stm32g4xx_hal_dac.c ****   UNUSED(hdac);
 531:Drivers/STM32G4xx_HAL_Driver/Src/stm32g4xx_hal_dac.c **** 
 532:Drivers/STM32G4xx_HAL_Driver/Src/stm32g4xx_hal_dac.c ****   /* NOTE : This function should not be modified, when the callback is needed,
 533:Drivers/STM32G4xx_HAL_Driver/Src/stm32g4xx_hal_dac.c ****             the HAL_DAC_MspDeInit could be implemented in the user file
 534:Drivers/STM32G4xx_HAL_Driver/Src/stm32g4xx_hal_dac.c ****    */
 535:Drivers/STM32G4xx_HAL_Driver/Src/stm32g4xx_hal_dac.c **** }
 536:Drivers/STM32G4xx_HAL_Driver/Src/stm32g4xx_hal_dac.c **** 
 537:Drivers/STM32G4xx_HAL_Driver/Src/stm32g4xx_hal_dac.c **** /**
 538:Drivers/STM32G4xx_HAL_Driver/Src/stm32g4xx_hal_dac.c ****   * @}
 539:Drivers/STM32G4xx_HAL_Driver/Src/stm32g4xx_hal_dac.c ****   */
 540:Drivers/STM32G4xx_HAL_Driver/Src/stm32g4xx_hal_dac.c **** 
 541:Drivers/STM32G4xx_HAL_Driver/Src/stm32g4xx_hal_dac.c **** /** @defgroup DAC_Exported_Functions_Group2 IO operation functions
 542:Drivers/STM32G4xx_HAL_Driver/Src/stm32g4xx_hal_dac.c ****   *  @brief    IO operation functions
 543:Drivers/STM32G4xx_HAL_Driver/Src/stm32g4xx_hal_dac.c ****   *
 544:Drivers/STM32G4xx_HAL_Driver/Src/stm32g4xx_hal_dac.c **** @verbatim
 545:Drivers/STM32G4xx_HAL_Driver/Src/stm32g4xx_hal_dac.c ****   ==============================================================================
 546:Drivers/STM32G4xx_HAL_Driver/Src/stm32g4xx_hal_dac.c ****              ##### IO operation functions #####
 547:Drivers/STM32G4xx_HAL_Driver/Src/stm32g4xx_hal_dac.c ****   ==============================================================================
 548:Drivers/STM32G4xx_HAL_Driver/Src/stm32g4xx_hal_dac.c ****     [..]  This section provides functions allowing to:
 549:Drivers/STM32G4xx_HAL_Driver/Src/stm32g4xx_hal_dac.c ****       (+) Start conversion.
 550:Drivers/STM32G4xx_HAL_Driver/Src/stm32g4xx_hal_dac.c ****       (+) Stop conversion.
 551:Drivers/STM32G4xx_HAL_Driver/Src/stm32g4xx_hal_dac.c ****       (+) Start conversion and enable DMA transfer.
 552:Drivers/STM32G4xx_HAL_Driver/Src/stm32g4xx_hal_dac.c ****       (+) Stop conversion and disable DMA transfer.
 553:Drivers/STM32G4xx_HAL_Driver/Src/stm32g4xx_hal_dac.c ****       (+) Get result of conversion.
 554:Drivers/STM32G4xx_HAL_Driver/Src/stm32g4xx_hal_dac.c **** 
 555:Drivers/STM32G4xx_HAL_Driver/Src/stm32g4xx_hal_dac.c **** @endverbatim
 556:Drivers/STM32G4xx_HAL_Driver/Src/stm32g4xx_hal_dac.c ****   * @{
 557:Drivers/STM32G4xx_HAL_Driver/Src/stm32g4xx_hal_dac.c ****   */
 558:Drivers/STM32G4xx_HAL_Driver/Src/stm32g4xx_hal_dac.c **** 
 559:Drivers/STM32G4xx_HAL_Driver/Src/stm32g4xx_hal_dac.c **** /**
 560:Drivers/STM32G4xx_HAL_Driver/Src/stm32g4xx_hal_dac.c ****   * @brief  Enables DAC and starts conversion of channel.
 561:Drivers/STM32G4xx_HAL_Driver/Src/stm32g4xx_hal_dac.c ****   * @param  hdac pointer to a DAC_HandleTypeDef structure that contains
 562:Drivers/STM32G4xx_HAL_Driver/Src/stm32g4xx_hal_dac.c ****   *         the configuration information for the specified DAC.
 563:Drivers/STM32G4xx_HAL_Driver/Src/stm32g4xx_hal_dac.c ****   * @param  Channel The selected DAC channel.
 564:Drivers/STM32G4xx_HAL_Driver/Src/stm32g4xx_hal_dac.c ****   *          This parameter can be one of the following values:
 565:Drivers/STM32G4xx_HAL_Driver/Src/stm32g4xx_hal_dac.c ****   *            @arg DAC_CHANNEL_1: DAC Channel1 selected
 566:Drivers/STM32G4xx_HAL_Driver/Src/stm32g4xx_hal_dac.c ****   *            @arg DAC_CHANNEL_2: DAC Channel2 selected (1)
 567:Drivers/STM32G4xx_HAL_Driver/Src/stm32g4xx_hal_dac.c ****   *
 568:Drivers/STM32G4xx_HAL_Driver/Src/stm32g4xx_hal_dac.c ****   *         (1) On this STM32 serie, parameter not available on all instances.
 569:Drivers/STM32G4xx_HAL_Driver/Src/stm32g4xx_hal_dac.c ****   *             Refer to device datasheet for channels availability.
ARM GAS  /tmp/ccHGeJqL.s 			page 15


 570:Drivers/STM32G4xx_HAL_Driver/Src/stm32g4xx_hal_dac.c ****   * @retval HAL status
 571:Drivers/STM32G4xx_HAL_Driver/Src/stm32g4xx_hal_dac.c ****   */
 572:Drivers/STM32G4xx_HAL_Driver/Src/stm32g4xx_hal_dac.c **** HAL_StatusTypeDef HAL_DAC_Start(DAC_HandleTypeDef *hdac, uint32_t Channel)
 573:Drivers/STM32G4xx_HAL_Driver/Src/stm32g4xx_hal_dac.c **** {
 196              		.loc 1 573 1 is_stmt 1 view -0
 197              		.cfi_startproc
 198              		@ args = 0, pretend = 0, frame = 0
 199              		@ frame_needed = 0, uses_anonymous_args = 0
 574:Drivers/STM32G4xx_HAL_Driver/Src/stm32g4xx_hal_dac.c ****   /* Check the parameters */
 575:Drivers/STM32G4xx_HAL_Driver/Src/stm32g4xx_hal_dac.c ****   assert_param(IS_DAC_CHANNEL(hdac->Instance, Channel));
 200              		.loc 1 575 3 view .LVU47
 576:Drivers/STM32G4xx_HAL_Driver/Src/stm32g4xx_hal_dac.c **** 
 577:Drivers/STM32G4xx_HAL_Driver/Src/stm32g4xx_hal_dac.c ****   /* Process locked */
 578:Drivers/STM32G4xx_HAL_Driver/Src/stm32g4xx_hal_dac.c ****   __HAL_LOCK(hdac);
 201              		.loc 1 578 3 view .LVU48
 202              		.loc 1 578 3 view .LVU49
 573:Drivers/STM32G4xx_HAL_Driver/Src/stm32g4xx_hal_dac.c ****   /* Check the parameters */
 203              		.loc 1 573 1 is_stmt 0 view .LVU50
 204 0000 F8B5     		push	{r3, r4, r5, r6, r7, lr}
 205              	.LCFI2:
 206              		.cfi_def_cfa_offset 24
 207              		.cfi_offset 3, -24
 208              		.cfi_offset 4, -20
 209              		.cfi_offset 5, -16
 210              		.cfi_offset 6, -12
 211              		.cfi_offset 7, -8
 212              		.cfi_offset 14, -4
 213              		.loc 1 578 3 view .LVU51
 214 0002 4379     		ldrb	r3, [r0, #5]	@ zero_extendqisi2
 215 0004 012B     		cmp	r3, #1
 573:Drivers/STM32G4xx_HAL_Driver/Src/stm32g4xx_hal_dac.c ****   /* Check the parameters */
 216              		.loc 1 573 1 view .LVU52
 217 0006 0546     		mov	r5, r0
 218 0008 0F46     		mov	r7, r1
 219 000a 4FF00204 		mov	r4, #2
 220              		.loc 1 578 3 view .LVU53
 221 000e 1BD0     		beq	.L14
 222              		.loc 1 578 3 is_stmt 1 discriminator 2 view .LVU54
 579:Drivers/STM32G4xx_HAL_Driver/Src/stm32g4xx_hal_dac.c **** 
 580:Drivers/STM32G4xx_HAL_Driver/Src/stm32g4xx_hal_dac.c ****   /* Change DAC state */
 581:Drivers/STM32G4xx_HAL_Driver/Src/stm32g4xx_hal_dac.c ****   hdac->State = HAL_DAC_STATE_BUSY;
 582:Drivers/STM32G4xx_HAL_Driver/Src/stm32g4xx_hal_dac.c **** 
 583:Drivers/STM32G4xx_HAL_Driver/Src/stm32g4xx_hal_dac.c ****   /* Enable the Peripheral */
 584:Drivers/STM32G4xx_HAL_Driver/Src/stm32g4xx_hal_dac.c ****   __HAL_DAC_ENABLE(hdac, Channel);
 223              		.loc 1 584 3 is_stmt 0 discriminator 2 view .LVU55
 224 0010 2A68     		ldr	r2, [r5]
 581:Drivers/STM32G4xx_HAL_Driver/Src/stm32g4xx_hal_dac.c **** 
 225              		.loc 1 581 15 discriminator 2 view .LVU56
 226 0012 2C71     		strb	r4, [r5, #4]
 578:Drivers/STM32G4xx_HAL_Driver/Src/stm32g4xx_hal_dac.c **** 
 227              		.loc 1 578 3 discriminator 2 view .LVU57
 228 0014 0120     		movs	r0, #1
 229              	.LVL10:
 578:Drivers/STM32G4xx_HAL_Driver/Src/stm32g4xx_hal_dac.c **** 
 230              		.loc 1 578 3 discriminator 2 view .LVU58
 231 0016 6871     		strb	r0, [r5, #5]
 578:Drivers/STM32G4xx_HAL_Driver/Src/stm32g4xx_hal_dac.c **** 
ARM GAS  /tmp/ccHGeJqL.s 			page 16


 232              		.loc 1 578 3 is_stmt 1 discriminator 2 view .LVU59
 581:Drivers/STM32G4xx_HAL_Driver/Src/stm32g4xx_hal_dac.c **** 
 233              		.loc 1 581 3 discriminator 2 view .LVU60
 234              		.loc 1 584 3 discriminator 2 view .LVU61
 235 0018 1168     		ldr	r1, [r2]
 236              	.LVL11:
 237              		.loc 1 584 3 is_stmt 0 discriminator 2 view .LVU62
 238 001a 07F01006 		and	r6, r7, #16
 239 001e 00FA06F3 		lsl	r3, r0, r6
 240 0022 0B43     		orrs	r3, r3, r1
 241 0024 1360     		str	r3, [r2]
 585:Drivers/STM32G4xx_HAL_Driver/Src/stm32g4xx_hal_dac.c ****   /* Ensure minimum wait before using peripheral after enabling it */
 586:Drivers/STM32G4xx_HAL_Driver/Src/stm32g4xx_hal_dac.c ****   HAL_Delay(1);
 242              		.loc 1 586 3 is_stmt 1 discriminator 2 view .LVU63
 243 0026 FFF7FEFF 		bl	HAL_Delay
 244              	.LVL12:
 587:Drivers/STM32G4xx_HAL_Driver/Src/stm32g4xx_hal_dac.c **** 
 588:Drivers/STM32G4xx_HAL_Driver/Src/stm32g4xx_hal_dac.c ****   if (Channel == DAC_CHANNEL_1)
 245              		.loc 1 588 3 discriminator 2 view .LVU64
 246 002a 2B68     		ldr	r3, [r5]
 589:Drivers/STM32G4xx_HAL_Driver/Src/stm32g4xx_hal_dac.c ****   {
 590:Drivers/STM32G4xx_HAL_Driver/Src/stm32g4xx_hal_dac.c ****     /* Check if software trigger enabled */
 591:Drivers/STM32G4xx_HAL_Driver/Src/stm32g4xx_hal_dac.c ****     if ((hdac->Instance->CR & (DAC_CR_TEN1 | DAC_CR_TSEL1)) == DAC_TRIGGER_SOFTWARE)
 247              		.loc 1 591 24 is_stmt 0 discriminator 2 view .LVU65
 248 002c 1A68     		ldr	r2, [r3]
 588:Drivers/STM32G4xx_HAL_Driver/Src/stm32g4xx_hal_dac.c ****   {
 249              		.loc 1 588 6 discriminator 2 view .LVU66
 250 002e 6FB9     		cbnz	r7, .L12
 251              		.loc 1 591 5 is_stmt 1 view .LVU67
 252              		.loc 1 591 29 is_stmt 0 view .LVU68
 253 0030 02F03E02 		and	r2, r2, #62
 254              		.loc 1 591 8 view .LVU69
 255 0034 A242     		cmp	r2, r4
 256 0036 03D1     		bne	.L13
 592:Drivers/STM32G4xx_HAL_Driver/Src/stm32g4xx_hal_dac.c ****     {
 593:Drivers/STM32G4xx_HAL_Driver/Src/stm32g4xx_hal_dac.c ****       /* Enable the selected DAC software conversion */
 594:Drivers/STM32G4xx_HAL_Driver/Src/stm32g4xx_hal_dac.c ****       SET_BIT(hdac->Instance->SWTRIGR, DAC_SWTRIGR_SWTRIG1);
 257              		.loc 1 594 7 is_stmt 1 view .LVU70
 258 0038 5A68     		ldr	r2, [r3, #4]
 259 003a 42F00102 		orr	r2, r2, #1
 260              	.L15:
 595:Drivers/STM32G4xx_HAL_Driver/Src/stm32g4xx_hal_dac.c ****     }
 596:Drivers/STM32G4xx_HAL_Driver/Src/stm32g4xx_hal_dac.c ****   }
 597:Drivers/STM32G4xx_HAL_Driver/Src/stm32g4xx_hal_dac.c ****   else
 598:Drivers/STM32G4xx_HAL_Driver/Src/stm32g4xx_hal_dac.c ****   {
 599:Drivers/STM32G4xx_HAL_Driver/Src/stm32g4xx_hal_dac.c ****     /* Check if software trigger enabled */
 600:Drivers/STM32G4xx_HAL_Driver/Src/stm32g4xx_hal_dac.c ****     if ((hdac->Instance->CR & (DAC_CR_TEN2 | DAC_CR_TSEL2)) == (DAC_TRIGGER_SOFTWARE << (Channel & 
 601:Drivers/STM32G4xx_HAL_Driver/Src/stm32g4xx_hal_dac.c ****     {
 602:Drivers/STM32G4xx_HAL_Driver/Src/stm32g4xx_hal_dac.c ****       /* Enable the selected DAC software conversion*/
 603:Drivers/STM32G4xx_HAL_Driver/Src/stm32g4xx_hal_dac.c ****       SET_BIT(hdac->Instance->SWTRIGR, DAC_SWTRIGR_SWTRIG2);
 261              		.loc 1 603 7 is_stmt 0 view .LVU71
 262 003e 5A60     		str	r2, [r3, #4]
 263              	.L13:
 604:Drivers/STM32G4xx_HAL_Driver/Src/stm32g4xx_hal_dac.c ****     }
 605:Drivers/STM32G4xx_HAL_Driver/Src/stm32g4xx_hal_dac.c ****   }
 606:Drivers/STM32G4xx_HAL_Driver/Src/stm32g4xx_hal_dac.c **** 
 607:Drivers/STM32G4xx_HAL_Driver/Src/stm32g4xx_hal_dac.c ****   /* Change DAC state */
ARM GAS  /tmp/ccHGeJqL.s 			page 17


 608:Drivers/STM32G4xx_HAL_Driver/Src/stm32g4xx_hal_dac.c ****   hdac->State = HAL_DAC_STATE_READY;
 264              		.loc 1 608 3 is_stmt 1 view .LVU72
 265              		.loc 1 608 15 is_stmt 0 view .LVU73
 266 0040 0123     		movs	r3, #1
 609:Drivers/STM32G4xx_HAL_Driver/Src/stm32g4xx_hal_dac.c **** 
 610:Drivers/STM32G4xx_HAL_Driver/Src/stm32g4xx_hal_dac.c ****   /* Process unlocked */
 611:Drivers/STM32G4xx_HAL_Driver/Src/stm32g4xx_hal_dac.c ****   __HAL_UNLOCK(hdac);
 267              		.loc 1 611 3 view .LVU74
 268 0042 0024     		movs	r4, #0
 608:Drivers/STM32G4xx_HAL_Driver/Src/stm32g4xx_hal_dac.c **** 
 269              		.loc 1 608 15 view .LVU75
 270 0044 2B71     		strb	r3, [r5, #4]
 271              		.loc 1 611 3 is_stmt 1 view .LVU76
 272              		.loc 1 611 3 view .LVU77
 273 0046 6C71     		strb	r4, [r5, #5]
 274              		.loc 1 611 3 view .LVU78
 612:Drivers/STM32G4xx_HAL_Driver/Src/stm32g4xx_hal_dac.c **** 
 613:Drivers/STM32G4xx_HAL_Driver/Src/stm32g4xx_hal_dac.c ****   /* Return function status */
 614:Drivers/STM32G4xx_HAL_Driver/Src/stm32g4xx_hal_dac.c ****   return HAL_OK;
 275              		.loc 1 614 3 view .LVU79
 276              	.L14:
 578:Drivers/STM32G4xx_HAL_Driver/Src/stm32g4xx_hal_dac.c **** 
 277              		.loc 1 578 3 is_stmt 0 view .LVU80
 278 0048 2046     		mov	r0, r4
 615:Drivers/STM32G4xx_HAL_Driver/Src/stm32g4xx_hal_dac.c **** }
 279              		.loc 1 615 1 view .LVU81
 280 004a F8BD     		pop	{r3, r4, r5, r6, r7, pc}
 281              	.LVL13:
 282              	.L12:
 600:Drivers/STM32G4xx_HAL_Driver/Src/stm32g4xx_hal_dac.c ****     {
 283              		.loc 1 600 5 is_stmt 1 view .LVU82
 600:Drivers/STM32G4xx_HAL_Driver/Src/stm32g4xx_hal_dac.c ****     {
 284              		.loc 1 600 29 is_stmt 0 view .LVU83
 285 004c 02F47812 		and	r2, r2, #4063232
 600:Drivers/STM32G4xx_HAL_Driver/Src/stm32g4xx_hal_dac.c ****     {
 286              		.loc 1 600 86 view .LVU84
 287 0050 B440     		lsls	r4, r4, r6
 600:Drivers/STM32G4xx_HAL_Driver/Src/stm32g4xx_hal_dac.c ****     {
 288              		.loc 1 600 8 view .LVU85
 289 0052 A242     		cmp	r2, r4
 290 0054 F4D1     		bne	.L13
 603:Drivers/STM32G4xx_HAL_Driver/Src/stm32g4xx_hal_dac.c ****     }
 291              		.loc 1 603 7 is_stmt 1 view .LVU86
 292 0056 5A68     		ldr	r2, [r3, #4]
 293 0058 42F00202 		orr	r2, r2, #2
 294 005c EFE7     		b	.L15
 295              		.cfi_endproc
 296              	.LFE361:
 298              		.section	.text.HAL_DAC_Stop,"ax",%progbits
 299              		.align	1
 300              		.global	HAL_DAC_Stop
 301              		.syntax unified
 302              		.thumb
 303              		.thumb_func
 304              		.fpu fpv4-sp-d16
 306              	HAL_DAC_Stop:
 307              	.LVL14:
ARM GAS  /tmp/ccHGeJqL.s 			page 18


 308              	.LFB362:
 616:Drivers/STM32G4xx_HAL_Driver/Src/stm32g4xx_hal_dac.c **** 
 617:Drivers/STM32G4xx_HAL_Driver/Src/stm32g4xx_hal_dac.c **** /**
 618:Drivers/STM32G4xx_HAL_Driver/Src/stm32g4xx_hal_dac.c ****   * @brief  Disables DAC and stop conversion of channel.
 619:Drivers/STM32G4xx_HAL_Driver/Src/stm32g4xx_hal_dac.c ****   * @param  hdac pointer to a DAC_HandleTypeDef structure that contains
 620:Drivers/STM32G4xx_HAL_Driver/Src/stm32g4xx_hal_dac.c ****   *         the configuration information for the specified DAC.
 621:Drivers/STM32G4xx_HAL_Driver/Src/stm32g4xx_hal_dac.c ****   * @param  Channel The selected DAC channel.
 622:Drivers/STM32G4xx_HAL_Driver/Src/stm32g4xx_hal_dac.c ****   *          This parameter can be one of the following values:
 623:Drivers/STM32G4xx_HAL_Driver/Src/stm32g4xx_hal_dac.c ****   *            @arg DAC_CHANNEL_1: DAC Channel1 selected
 624:Drivers/STM32G4xx_HAL_Driver/Src/stm32g4xx_hal_dac.c ****   *            @arg DAC_CHANNEL_2: DAC Channel2 selected (1)
 625:Drivers/STM32G4xx_HAL_Driver/Src/stm32g4xx_hal_dac.c ****   *
 626:Drivers/STM32G4xx_HAL_Driver/Src/stm32g4xx_hal_dac.c ****   *         (1) On this STM32 serie, parameter not available on all instances.
 627:Drivers/STM32G4xx_HAL_Driver/Src/stm32g4xx_hal_dac.c ****   *             Refer to device datasheet for channels availability.
 628:Drivers/STM32G4xx_HAL_Driver/Src/stm32g4xx_hal_dac.c ****   * @retval HAL status
 629:Drivers/STM32G4xx_HAL_Driver/Src/stm32g4xx_hal_dac.c ****   */
 630:Drivers/STM32G4xx_HAL_Driver/Src/stm32g4xx_hal_dac.c **** HAL_StatusTypeDef HAL_DAC_Stop(DAC_HandleTypeDef *hdac, uint32_t Channel)
 631:Drivers/STM32G4xx_HAL_Driver/Src/stm32g4xx_hal_dac.c **** {
 309              		.loc 1 631 1 view -0
 310              		.cfi_startproc
 311              		@ args = 0, pretend = 0, frame = 0
 312              		@ frame_needed = 0, uses_anonymous_args = 0
 632:Drivers/STM32G4xx_HAL_Driver/Src/stm32g4xx_hal_dac.c ****   /* Check the parameters */
 633:Drivers/STM32G4xx_HAL_Driver/Src/stm32g4xx_hal_dac.c ****   assert_param(IS_DAC_CHANNEL(hdac->Instance, Channel));
 313              		.loc 1 633 3 view .LVU88
 634:Drivers/STM32G4xx_HAL_Driver/Src/stm32g4xx_hal_dac.c **** 
 635:Drivers/STM32G4xx_HAL_Driver/Src/stm32g4xx_hal_dac.c ****   /* Disable the Peripheral */
 636:Drivers/STM32G4xx_HAL_Driver/Src/stm32g4xx_hal_dac.c ****   __HAL_DAC_DISABLE(hdac, Channel);
 314              		.loc 1 636 3 view .LVU89
 315 0000 0268     		ldr	r2, [r0]
 631:Drivers/STM32G4xx_HAL_Driver/Src/stm32g4xx_hal_dac.c ****   /* Check the parameters */
 316              		.loc 1 631 1 is_stmt 0 view .LVU90
 317 0002 38B5     		push	{r3, r4, r5, lr}
 318              	.LCFI3:
 319              		.cfi_def_cfa_offset 16
 320              		.cfi_offset 3, -16
 321              		.cfi_offset 4, -12
 322              		.cfi_offset 5, -8
 323              		.cfi_offset 14, -4
 324              		.loc 1 636 3 view .LVU91
 325 0004 01F01001 		and	r1, r1, #16
 326              	.LVL15:
 327              		.loc 1 636 3 view .LVU92
 328 0008 1368     		ldr	r3, [r2]
 329 000a 0125     		movs	r5, #1
 330 000c 05FA01F1 		lsl	r1, r5, r1
 631:Drivers/STM32G4xx_HAL_Driver/Src/stm32g4xx_hal_dac.c ****   /* Check the parameters */
 331              		.loc 1 631 1 view .LVU93
 332 0010 0446     		mov	r4, r0
 333              		.loc 1 636 3 view .LVU94
 334 0012 23EA0101 		bic	r1, r3, r1
 637:Drivers/STM32G4xx_HAL_Driver/Src/stm32g4xx_hal_dac.c ****   /* Ensure minimum wait before enabling peripheral after disabling it */
 638:Drivers/STM32G4xx_HAL_Driver/Src/stm32g4xx_hal_dac.c ****   HAL_Delay(1);
 335              		.loc 1 638 3 view .LVU95
 336 0016 2846     		mov	r0, r5
 337              	.LVL16:
 636:Drivers/STM32G4xx_HAL_Driver/Src/stm32g4xx_hal_dac.c ****   /* Ensure minimum wait before enabling peripheral after disabling it */
 338              		.loc 1 636 3 view .LVU96
ARM GAS  /tmp/ccHGeJqL.s 			page 19


 339 0018 1160     		str	r1, [r2]
 340              		.loc 1 638 3 is_stmt 1 view .LVU97
 341 001a FFF7FEFF 		bl	HAL_Delay
 342              	.LVL17:
 639:Drivers/STM32G4xx_HAL_Driver/Src/stm32g4xx_hal_dac.c **** 
 640:Drivers/STM32G4xx_HAL_Driver/Src/stm32g4xx_hal_dac.c ****   /* Change DAC state */
 641:Drivers/STM32G4xx_HAL_Driver/Src/stm32g4xx_hal_dac.c ****   hdac->State = HAL_DAC_STATE_READY;
 343              		.loc 1 641 3 view .LVU98
 344              		.loc 1 641 15 is_stmt 0 view .LVU99
 345 001e 2571     		strb	r5, [r4, #4]
 642:Drivers/STM32G4xx_HAL_Driver/Src/stm32g4xx_hal_dac.c **** 
 643:Drivers/STM32G4xx_HAL_Driver/Src/stm32g4xx_hal_dac.c ****   /* Return function status */
 644:Drivers/STM32G4xx_HAL_Driver/Src/stm32g4xx_hal_dac.c ****   return HAL_OK;
 346              		.loc 1 644 3 is_stmt 1 view .LVU100
 645:Drivers/STM32G4xx_HAL_Driver/Src/stm32g4xx_hal_dac.c **** }
 347              		.loc 1 645 1 is_stmt 0 view .LVU101
 348 0020 0020     		movs	r0, #0
 349 0022 38BD     		pop	{r3, r4, r5, pc}
 350              		.loc 1 645 1 view .LVU102
 351              		.cfi_endproc
 352              	.LFE362:
 354              		.section	.text.HAL_DAC_Start_DMA,"ax",%progbits
 355              		.align	1
 356              		.global	HAL_DAC_Start_DMA
 357              		.syntax unified
 358              		.thumb
 359              		.thumb_func
 360              		.fpu fpv4-sp-d16
 362              	HAL_DAC_Start_DMA:
 363              	.LVL18:
 364              	.LFB363:
 646:Drivers/STM32G4xx_HAL_Driver/Src/stm32g4xx_hal_dac.c **** 
 647:Drivers/STM32G4xx_HAL_Driver/Src/stm32g4xx_hal_dac.c **** /**
 648:Drivers/STM32G4xx_HAL_Driver/Src/stm32g4xx_hal_dac.c ****   * @brief  Enables DAC and starts conversion of channel.
 649:Drivers/STM32G4xx_HAL_Driver/Src/stm32g4xx_hal_dac.c ****   * @param  hdac pointer to a DAC_HandleTypeDef structure that contains
 650:Drivers/STM32G4xx_HAL_Driver/Src/stm32g4xx_hal_dac.c ****   *         the configuration information for the specified DAC.
 651:Drivers/STM32G4xx_HAL_Driver/Src/stm32g4xx_hal_dac.c ****   * @param  Channel The selected DAC channel.
 652:Drivers/STM32G4xx_HAL_Driver/Src/stm32g4xx_hal_dac.c ****   *          This parameter can be one of the following values:
 653:Drivers/STM32G4xx_HAL_Driver/Src/stm32g4xx_hal_dac.c ****   *            @arg DAC_CHANNEL_1: DAC Channel1 selected
 654:Drivers/STM32G4xx_HAL_Driver/Src/stm32g4xx_hal_dac.c ****   *            @arg DAC_CHANNEL_2: DAC Channel2 selected (1)
 655:Drivers/STM32G4xx_HAL_Driver/Src/stm32g4xx_hal_dac.c ****   *
 656:Drivers/STM32G4xx_HAL_Driver/Src/stm32g4xx_hal_dac.c ****   *         (1) On this STM32 serie, parameter not available on all instances.
 657:Drivers/STM32G4xx_HAL_Driver/Src/stm32g4xx_hal_dac.c ****   *             Refer to device datasheet for channels availability.
 658:Drivers/STM32G4xx_HAL_Driver/Src/stm32g4xx_hal_dac.c ****   * @param  pData The destination peripheral Buffer address.
 659:Drivers/STM32G4xx_HAL_Driver/Src/stm32g4xx_hal_dac.c ****   * @param  Length The length of data to be transferred from memory to DAC peripheral
 660:Drivers/STM32G4xx_HAL_Driver/Src/stm32g4xx_hal_dac.c ****   * @param  Alignment Specifies the data alignment for DAC channel.
 661:Drivers/STM32G4xx_HAL_Driver/Src/stm32g4xx_hal_dac.c ****   *          This parameter can be one of the following values:
 662:Drivers/STM32G4xx_HAL_Driver/Src/stm32g4xx_hal_dac.c ****   *            @arg DAC_ALIGN_8B_R: 8bit right data alignment selected
 663:Drivers/STM32G4xx_HAL_Driver/Src/stm32g4xx_hal_dac.c ****   *            @arg DAC_ALIGN_12B_L: 12bit left data alignment selected
 664:Drivers/STM32G4xx_HAL_Driver/Src/stm32g4xx_hal_dac.c ****   *            @arg DAC_ALIGN_12B_R: 12bit right data alignment selected
 665:Drivers/STM32G4xx_HAL_Driver/Src/stm32g4xx_hal_dac.c ****   * @retval HAL status
 666:Drivers/STM32G4xx_HAL_Driver/Src/stm32g4xx_hal_dac.c ****   */
 667:Drivers/STM32G4xx_HAL_Driver/Src/stm32g4xx_hal_dac.c **** HAL_StatusTypeDef HAL_DAC_Start_DMA(DAC_HandleTypeDef *hdac, uint32_t Channel, uint32_t *pData, uin
 668:Drivers/STM32G4xx_HAL_Driver/Src/stm32g4xx_hal_dac.c ****                                     uint32_t Alignment)
 669:Drivers/STM32G4xx_HAL_Driver/Src/stm32g4xx_hal_dac.c **** {
 365              		.loc 1 669 1 is_stmt 1 view -0
 366              		.cfi_startproc
ARM GAS  /tmp/ccHGeJqL.s 			page 20


 367              		@ args = 4, pretend = 0, frame = 0
 368              		@ frame_needed = 0, uses_anonymous_args = 0
 670:Drivers/STM32G4xx_HAL_Driver/Src/stm32g4xx_hal_dac.c ****   HAL_StatusTypeDef status;
 369              		.loc 1 670 3 view .LVU104
 671:Drivers/STM32G4xx_HAL_Driver/Src/stm32g4xx_hal_dac.c ****   uint32_t tmpreg = 0U;
 370              		.loc 1 671 3 view .LVU105
 672:Drivers/STM32G4xx_HAL_Driver/Src/stm32g4xx_hal_dac.c **** 
 673:Drivers/STM32G4xx_HAL_Driver/Src/stm32g4xx_hal_dac.c ****   /* Check the parameters */
 674:Drivers/STM32G4xx_HAL_Driver/Src/stm32g4xx_hal_dac.c ****   assert_param(IS_DAC_CHANNEL(hdac->Instance, Channel));
 371              		.loc 1 674 3 view .LVU106
 675:Drivers/STM32G4xx_HAL_Driver/Src/stm32g4xx_hal_dac.c ****   assert_param(IS_DAC_ALIGN(Alignment));
 372              		.loc 1 675 3 view .LVU107
 676:Drivers/STM32G4xx_HAL_Driver/Src/stm32g4xx_hal_dac.c **** 
 677:Drivers/STM32G4xx_HAL_Driver/Src/stm32g4xx_hal_dac.c ****   /* Process locked */
 678:Drivers/STM32G4xx_HAL_Driver/Src/stm32g4xx_hal_dac.c ****   __HAL_LOCK(hdac);
 373              		.loc 1 678 3 view .LVU108
 374              		.loc 1 678 3 view .LVU109
 669:Drivers/STM32G4xx_HAL_Driver/Src/stm32g4xx_hal_dac.c ****   HAL_StatusTypeDef status;
 375              		.loc 1 669 1 is_stmt 0 view .LVU110
 376 0000 F8B5     		push	{r3, r4, r5, r6, r7, lr}
 377              	.LCFI4:
 378              		.cfi_def_cfa_offset 24
 379              		.cfi_offset 3, -24
 380              		.cfi_offset 4, -20
 381              		.cfi_offset 5, -16
 382              		.cfi_offset 6, -12
 383              		.cfi_offset 7, -8
 384              		.cfi_offset 14, -4
 669:Drivers/STM32G4xx_HAL_Driver/Src/stm32g4xx_hal_dac.c ****   HAL_StatusTypeDef status;
 385              		.loc 1 669 1 view .LVU111
 386 0002 0E46     		mov	r6, r1
 387 0004 1146     		mov	r1, r2
 388              	.LVL19:
 389              		.loc 1 678 3 view .LVU112
 390 0006 4279     		ldrb	r2, [r0, #5]	@ zero_extendqisi2
 391              	.LVL20:
 669:Drivers/STM32G4xx_HAL_Driver/Src/stm32g4xx_hal_dac.c ****   HAL_StatusTypeDef status;
 392              		.loc 1 669 1 view .LVU113
 393 0008 069F     		ldr	r7, [sp, #24]
 394              		.loc 1 678 3 view .LVU114
 395 000a 012A     		cmp	r2, #1
 669:Drivers/STM32G4xx_HAL_Driver/Src/stm32g4xx_hal_dac.c ****   HAL_StatusTypeDef status;
 396              		.loc 1 669 1 view .LVU115
 397 000c 0446     		mov	r4, r0
 398 000e 4FF00205 		mov	r5, #2
 399              		.loc 1 678 3 view .LVU116
 400 0012 2FD0     		beq	.L18
 401              		.loc 1 678 3 is_stmt 1 discriminator 2 view .LVU117
 402 0014 0122     		movs	r2, #1
 403 0016 4271     		strb	r2, [r0, #5]
 404              		.loc 1 678 3 discriminator 2 view .LVU118
 679:Drivers/STM32G4xx_HAL_Driver/Src/stm32g4xx_hal_dac.c **** 
 680:Drivers/STM32G4xx_HAL_Driver/Src/stm32g4xx_hal_dac.c ****   /* Change DAC state */
 681:Drivers/STM32G4xx_HAL_Driver/Src/stm32g4xx_hal_dac.c ****   hdac->State = HAL_DAC_STATE_BUSY;
 405              		.loc 1 681 3 discriminator 2 view .LVU119
 406              		.loc 1 681 15 is_stmt 0 discriminator 2 view .LVU120
 407 0018 0571     		strb	r5, [r0, #4]
ARM GAS  /tmp/ccHGeJqL.s 			page 21


 682:Drivers/STM32G4xx_HAL_Driver/Src/stm32g4xx_hal_dac.c **** 
 683:Drivers/STM32G4xx_HAL_Driver/Src/stm32g4xx_hal_dac.c ****   if (Channel == DAC_CHANNEL_1)
 408              		.loc 1 683 3 is_stmt 1 discriminator 2 view .LVU121
 409 001a 0068     		ldr	r0, [r0]
 410              	.LVL21:
 411              		.loc 1 683 6 is_stmt 0 discriminator 2 view .LVU122
 412 001c 002E     		cmp	r6, #0
 413 001e 31D1     		bne	.L19
 684:Drivers/STM32G4xx_HAL_Driver/Src/stm32g4xx_hal_dac.c ****   {
 685:Drivers/STM32G4xx_HAL_Driver/Src/stm32g4xx_hal_dac.c ****     /* Set the DMA transfer complete callback for channel1 */
 686:Drivers/STM32G4xx_HAL_Driver/Src/stm32g4xx_hal_dac.c ****     hdac->DMA_Handle1->XferCpltCallback = DAC_DMAConvCpltCh1;
 414              		.loc 1 686 5 is_stmt 1 view .LVU123
 415              		.loc 1 686 9 is_stmt 0 view .LVU124
 416 0020 A268     		ldr	r2, [r4, #8]
 417              		.loc 1 686 41 view .LVU125
 418 0022 2C4D     		ldr	r5, .L32
 419 0024 D562     		str	r5, [r2, #44]
 687:Drivers/STM32G4xx_HAL_Driver/Src/stm32g4xx_hal_dac.c **** 
 688:Drivers/STM32G4xx_HAL_Driver/Src/stm32g4xx_hal_dac.c ****     /* Set the DMA half transfer complete callback for channel1 */
 689:Drivers/STM32G4xx_HAL_Driver/Src/stm32g4xx_hal_dac.c ****     hdac->DMA_Handle1->XferHalfCpltCallback = DAC_DMAHalfConvCpltCh1;
 420              		.loc 1 689 5 is_stmt 1 view .LVU126
 421              		.loc 1 689 45 is_stmt 0 view .LVU127
 422 0026 2C4D     		ldr	r5, .L32+4
 423 0028 1563     		str	r5, [r2, #48]
 690:Drivers/STM32G4xx_HAL_Driver/Src/stm32g4xx_hal_dac.c **** 
 691:Drivers/STM32G4xx_HAL_Driver/Src/stm32g4xx_hal_dac.c ****     /* Set the DMA error callback for channel1 */
 692:Drivers/STM32G4xx_HAL_Driver/Src/stm32g4xx_hal_dac.c ****     hdac->DMA_Handle1->XferErrorCallback = DAC_DMAErrorCh1;
 424              		.loc 1 692 5 is_stmt 1 view .LVU128
 425              		.loc 1 692 42 is_stmt 0 view .LVU129
 426 002a 2C4D     		ldr	r5, .L32+8
 427 002c 5563     		str	r5, [r2, #52]
 693:Drivers/STM32G4xx_HAL_Driver/Src/stm32g4xx_hal_dac.c **** 
 694:Drivers/STM32G4xx_HAL_Driver/Src/stm32g4xx_hal_dac.c ****     /* Enable the selected DAC channel1 DMA request */
 695:Drivers/STM32G4xx_HAL_Driver/Src/stm32g4xx_hal_dac.c ****     SET_BIT(hdac->Instance->CR, DAC_CR_DMAEN1);
 428              		.loc 1 695 5 is_stmt 1 view .LVU130
 429 002e 0268     		ldr	r2, [r0]
 696:Drivers/STM32G4xx_HAL_Driver/Src/stm32g4xx_hal_dac.c **** 
 697:Drivers/STM32G4xx_HAL_Driver/Src/stm32g4xx_hal_dac.c ****     /* Case of use of channel 1 */
 698:Drivers/STM32G4xx_HAL_Driver/Src/stm32g4xx_hal_dac.c ****     switch (Alignment)
 430              		.loc 1 698 5 is_stmt 0 view .LVU131
 431 0030 042F     		cmp	r7, #4
 695:Drivers/STM32G4xx_HAL_Driver/Src/stm32g4xx_hal_dac.c **** 
 432              		.loc 1 695 5 view .LVU132
 433 0032 42F48052 		orr	r2, r2, #4096
 434 0036 0260     		str	r2, [r0]
 435              		.loc 1 698 5 is_stmt 1 view .LVU133
 436 0038 1ED0     		beq	.L20
 437 003a 082F     		cmp	r7, #8
 438 003c 1FD0     		beq	.L21
 439 003e 002F     		cmp	r7, #0
 440 0040 3ED1     		bne	.L29
 699:Drivers/STM32G4xx_HAL_Driver/Src/stm32g4xx_hal_dac.c ****     {
 700:Drivers/STM32G4xx_HAL_Driver/Src/stm32g4xx_hal_dac.c ****       case DAC_ALIGN_12B_R:
 701:Drivers/STM32G4xx_HAL_Driver/Src/stm32g4xx_hal_dac.c ****         /* Get DHR12R1 address */
 702:Drivers/STM32G4xx_HAL_Driver/Src/stm32g4xx_hal_dac.c ****         tmpreg = (uint32_t)&hdac->Instance->DHR12R1;
 441              		.loc 1 702 9 view .LVU134
 442              		.loc 1 702 28 is_stmt 0 view .LVU135
ARM GAS  /tmp/ccHGeJqL.s 			page 22


 443 0042 00F10802 		add	r2, r0, #8
 444              	.LVL22:
 703:Drivers/STM32G4xx_HAL_Driver/Src/stm32g4xx_hal_dac.c ****         break;
 445              		.loc 1 703 9 is_stmt 1 view .LVU136
 446              	.L22:
 704:Drivers/STM32G4xx_HAL_Driver/Src/stm32g4xx_hal_dac.c ****       case DAC_ALIGN_12B_L:
 705:Drivers/STM32G4xx_HAL_Driver/Src/stm32g4xx_hal_dac.c ****         /* Get DHR12L1 address */
 706:Drivers/STM32G4xx_HAL_Driver/Src/stm32g4xx_hal_dac.c ****         tmpreg = (uint32_t)&hdac->Instance->DHR12L1;
 707:Drivers/STM32G4xx_HAL_Driver/Src/stm32g4xx_hal_dac.c ****         break;
 708:Drivers/STM32G4xx_HAL_Driver/Src/stm32g4xx_hal_dac.c ****       case DAC_ALIGN_8B_R:
 709:Drivers/STM32G4xx_HAL_Driver/Src/stm32g4xx_hal_dac.c ****         /* Get DHR8R1 address */
 710:Drivers/STM32G4xx_HAL_Driver/Src/stm32g4xx_hal_dac.c ****         tmpreg = (uint32_t)&hdac->Instance->DHR8R1;
 711:Drivers/STM32G4xx_HAL_Driver/Src/stm32g4xx_hal_dac.c ****         break;
 712:Drivers/STM32G4xx_HAL_Driver/Src/stm32g4xx_hal_dac.c ****       default:
 713:Drivers/STM32G4xx_HAL_Driver/Src/stm32g4xx_hal_dac.c ****         break;
 714:Drivers/STM32G4xx_HAL_Driver/Src/stm32g4xx_hal_dac.c ****     }
 715:Drivers/STM32G4xx_HAL_Driver/Src/stm32g4xx_hal_dac.c ****   }
 716:Drivers/STM32G4xx_HAL_Driver/Src/stm32g4xx_hal_dac.c ****   else
 717:Drivers/STM32G4xx_HAL_Driver/Src/stm32g4xx_hal_dac.c ****   {
 718:Drivers/STM32G4xx_HAL_Driver/Src/stm32g4xx_hal_dac.c ****     /* Set the DMA transfer complete callback for channel2 */
 719:Drivers/STM32G4xx_HAL_Driver/Src/stm32g4xx_hal_dac.c ****     hdac->DMA_Handle2->XferCpltCallback = DAC_DMAConvCpltCh2;
 720:Drivers/STM32G4xx_HAL_Driver/Src/stm32g4xx_hal_dac.c **** 
 721:Drivers/STM32G4xx_HAL_Driver/Src/stm32g4xx_hal_dac.c ****     /* Set the DMA half transfer complete callback for channel2 */
 722:Drivers/STM32G4xx_HAL_Driver/Src/stm32g4xx_hal_dac.c ****     hdac->DMA_Handle2->XferHalfCpltCallback = DAC_DMAHalfConvCpltCh2;
 723:Drivers/STM32G4xx_HAL_Driver/Src/stm32g4xx_hal_dac.c **** 
 724:Drivers/STM32G4xx_HAL_Driver/Src/stm32g4xx_hal_dac.c ****     /* Set the DMA error callback for channel2 */
 725:Drivers/STM32G4xx_HAL_Driver/Src/stm32g4xx_hal_dac.c ****     hdac->DMA_Handle2->XferErrorCallback = DAC_DMAErrorCh2;
 726:Drivers/STM32G4xx_HAL_Driver/Src/stm32g4xx_hal_dac.c **** 
 727:Drivers/STM32G4xx_HAL_Driver/Src/stm32g4xx_hal_dac.c ****     /* Enable the selected DAC channel2 DMA request */
 728:Drivers/STM32G4xx_HAL_Driver/Src/stm32g4xx_hal_dac.c ****     SET_BIT(hdac->Instance->CR, DAC_CR_DMAEN2);
 729:Drivers/STM32G4xx_HAL_Driver/Src/stm32g4xx_hal_dac.c **** 
 730:Drivers/STM32G4xx_HAL_Driver/Src/stm32g4xx_hal_dac.c ****     /* Case of use of channel 2 */
 731:Drivers/STM32G4xx_HAL_Driver/Src/stm32g4xx_hal_dac.c ****     switch (Alignment)
 732:Drivers/STM32G4xx_HAL_Driver/Src/stm32g4xx_hal_dac.c ****     {
 733:Drivers/STM32G4xx_HAL_Driver/Src/stm32g4xx_hal_dac.c ****       case DAC_ALIGN_12B_R:
 734:Drivers/STM32G4xx_HAL_Driver/Src/stm32g4xx_hal_dac.c ****         /* Get DHR12R2 address */
 735:Drivers/STM32G4xx_HAL_Driver/Src/stm32g4xx_hal_dac.c ****         tmpreg = (uint32_t)&hdac->Instance->DHR12R2;
 736:Drivers/STM32G4xx_HAL_Driver/Src/stm32g4xx_hal_dac.c ****         break;
 737:Drivers/STM32G4xx_HAL_Driver/Src/stm32g4xx_hal_dac.c ****       case DAC_ALIGN_12B_L:
 738:Drivers/STM32G4xx_HAL_Driver/Src/stm32g4xx_hal_dac.c ****         /* Get DHR12L2 address */
 739:Drivers/STM32G4xx_HAL_Driver/Src/stm32g4xx_hal_dac.c ****         tmpreg = (uint32_t)&hdac->Instance->DHR12L2;
 740:Drivers/STM32G4xx_HAL_Driver/Src/stm32g4xx_hal_dac.c ****         break;
 741:Drivers/STM32G4xx_HAL_Driver/Src/stm32g4xx_hal_dac.c ****       case DAC_ALIGN_8B_R:
 742:Drivers/STM32G4xx_HAL_Driver/Src/stm32g4xx_hal_dac.c ****         /* Get DHR8R2 address */
 743:Drivers/STM32G4xx_HAL_Driver/Src/stm32g4xx_hal_dac.c ****         tmpreg = (uint32_t)&hdac->Instance->DHR8R2;
 744:Drivers/STM32G4xx_HAL_Driver/Src/stm32g4xx_hal_dac.c ****         break;
 745:Drivers/STM32G4xx_HAL_Driver/Src/stm32g4xx_hal_dac.c ****       default:
 746:Drivers/STM32G4xx_HAL_Driver/Src/stm32g4xx_hal_dac.c ****         break;
 747:Drivers/STM32G4xx_HAL_Driver/Src/stm32g4xx_hal_dac.c ****     }
 748:Drivers/STM32G4xx_HAL_Driver/Src/stm32g4xx_hal_dac.c ****   }
 749:Drivers/STM32G4xx_HAL_Driver/Src/stm32g4xx_hal_dac.c **** 
 750:Drivers/STM32G4xx_HAL_Driver/Src/stm32g4xx_hal_dac.c ****   /* Enable the DMA channel */
 751:Drivers/STM32G4xx_HAL_Driver/Src/stm32g4xx_hal_dac.c ****   if (Channel == DAC_CHANNEL_1)
 752:Drivers/STM32G4xx_HAL_Driver/Src/stm32g4xx_hal_dac.c ****   {
 753:Drivers/STM32G4xx_HAL_Driver/Src/stm32g4xx_hal_dac.c ****     /* Enable the DAC DMA underrun interrupt */
 754:Drivers/STM32G4xx_HAL_Driver/Src/stm32g4xx_hal_dac.c ****     __HAL_DAC_ENABLE_IT(hdac, DAC_IT_DMAUDR1);
 447              		.loc 1 754 5 view .LVU137
ARM GAS  /tmp/ccHGeJqL.s 			page 23


 448 0046 0568     		ldr	r5, [r0]
 449 0048 45F40055 		orr	r5, r5, #8192
 450 004c 0560     		str	r5, [r0]
 755:Drivers/STM32G4xx_HAL_Driver/Src/stm32g4xx_hal_dac.c **** 
 756:Drivers/STM32G4xx_HAL_Driver/Src/stm32g4xx_hal_dac.c ****     /* Enable the DMA channel */
 757:Drivers/STM32G4xx_HAL_Driver/Src/stm32g4xx_hal_dac.c ****     status = HAL_DMA_Start_IT(hdac->DMA_Handle1, (uint32_t)pData, tmpreg, Length);
 451              		.loc 1 757 5 view .LVU138
 452              		.loc 1 757 14 is_stmt 0 view .LVU139
 453 004e A068     		ldr	r0, [r4, #8]
 454              	.L31:
 758:Drivers/STM32G4xx_HAL_Driver/Src/stm32g4xx_hal_dac.c ****   }
 759:Drivers/STM32G4xx_HAL_Driver/Src/stm32g4xx_hal_dac.c ****   else
 760:Drivers/STM32G4xx_HAL_Driver/Src/stm32g4xx_hal_dac.c ****   {
 761:Drivers/STM32G4xx_HAL_Driver/Src/stm32g4xx_hal_dac.c ****     /* Enable the DAC DMA underrun interrupt */
 762:Drivers/STM32G4xx_HAL_Driver/Src/stm32g4xx_hal_dac.c ****     __HAL_DAC_ENABLE_IT(hdac, DAC_IT_DMAUDR2);
 763:Drivers/STM32G4xx_HAL_Driver/Src/stm32g4xx_hal_dac.c **** 
 764:Drivers/STM32G4xx_HAL_Driver/Src/stm32g4xx_hal_dac.c ****     /* Enable the DMA channel */
 765:Drivers/STM32G4xx_HAL_Driver/Src/stm32g4xx_hal_dac.c ****     status = HAL_DMA_Start_IT(hdac->DMA_Handle2, (uint32_t)pData, tmpreg, Length);
 455              		.loc 1 765 14 view .LVU140
 456 0050 FFF7FEFF 		bl	HAL_DMA_Start_IT
 457              	.LVL23:
 766:Drivers/STM32G4xx_HAL_Driver/Src/stm32g4xx_hal_dac.c ****   }
 767:Drivers/STM32G4xx_HAL_Driver/Src/stm32g4xx_hal_dac.c **** 
 768:Drivers/STM32G4xx_HAL_Driver/Src/stm32g4xx_hal_dac.c ****   /* Process Unlocked */
 769:Drivers/STM32G4xx_HAL_Driver/Src/stm32g4xx_hal_dac.c ****   __HAL_UNLOCK(hdac);
 458              		.loc 1 769 3 view .LVU141
 459 0054 0023     		movs	r3, #0
 765:Drivers/STM32G4xx_HAL_Driver/Src/stm32g4xx_hal_dac.c ****   }
 460              		.loc 1 765 14 view .LVU142
 461 0056 0546     		mov	r5, r0
 462              	.LVL24:
 463              		.loc 1 769 3 is_stmt 1 view .LVU143
 464              		.loc 1 769 3 view .LVU144
 465 0058 6371     		strb	r3, [r4, #5]
 466              		.loc 1 769 3 view .LVU145
 770:Drivers/STM32G4xx_HAL_Driver/Src/stm32g4xx_hal_dac.c **** 
 771:Drivers/STM32G4xx_HAL_Driver/Src/stm32g4xx_hal_dac.c ****   if (status == HAL_OK)
 467              		.loc 1 771 3 view .LVU146
 468              		.loc 1 771 6 is_stmt 0 view .LVU147
 469 005a 0028     		cmp	r0, #0
 470 005c 34D1     		bne	.L27
 772:Drivers/STM32G4xx_HAL_Driver/Src/stm32g4xx_hal_dac.c ****   {
 773:Drivers/STM32G4xx_HAL_Driver/Src/stm32g4xx_hal_dac.c ****     /* Enable the Peripheral */
 774:Drivers/STM32G4xx_HAL_Driver/Src/stm32g4xx_hal_dac.c ****     __HAL_DAC_ENABLE(hdac, Channel);
 471              		.loc 1 774 5 is_stmt 1 view .LVU148
 472 005e 2368     		ldr	r3, [r4]
 473 0060 06F01006 		and	r6, r6, #16
 474              	.LVL25:
 475              		.loc 1 774 5 is_stmt 0 view .LVU149
 476 0064 1A68     		ldr	r2, [r3]
 477 0066 0120     		movs	r0, #1
 478              	.LVL26:
 479              		.loc 1 774 5 view .LVU150
 480 0068 00FA06F6 		lsl	r6, r0, r6
 481 006c 1643     		orrs	r6, r6, r2
 482 006e 1E60     		str	r6, [r3]
 775:Drivers/STM32G4xx_HAL_Driver/Src/stm32g4xx_hal_dac.c ****     /* Ensure minimum wait before using peripheral after enabling it */
ARM GAS  /tmp/ccHGeJqL.s 			page 24


 776:Drivers/STM32G4xx_HAL_Driver/Src/stm32g4xx_hal_dac.c ****     HAL_Delay(1);
 483              		.loc 1 776 5 is_stmt 1 view .LVU151
 484 0070 FFF7FEFF 		bl	HAL_Delay
 485              	.LVL27:
 486              	.L18:
 777:Drivers/STM32G4xx_HAL_Driver/Src/stm32g4xx_hal_dac.c ****   }
 778:Drivers/STM32G4xx_HAL_Driver/Src/stm32g4xx_hal_dac.c ****   else
 779:Drivers/STM32G4xx_HAL_Driver/Src/stm32g4xx_hal_dac.c ****   {
 780:Drivers/STM32G4xx_HAL_Driver/Src/stm32g4xx_hal_dac.c ****     hdac->ErrorCode |= HAL_DAC_ERROR_DMA;
 781:Drivers/STM32G4xx_HAL_Driver/Src/stm32g4xx_hal_dac.c ****   }
 782:Drivers/STM32G4xx_HAL_Driver/Src/stm32g4xx_hal_dac.c **** 
 783:Drivers/STM32G4xx_HAL_Driver/Src/stm32g4xx_hal_dac.c ****   /* Return function status */
 784:Drivers/STM32G4xx_HAL_Driver/Src/stm32g4xx_hal_dac.c ****   return status;
 785:Drivers/STM32G4xx_HAL_Driver/Src/stm32g4xx_hal_dac.c **** }
 487              		.loc 1 785 1 is_stmt 0 view .LVU152
 488 0074 2846     		mov	r0, r5
 489 0076 F8BD     		pop	{r3, r4, r5, r6, r7, pc}
 490              	.LVL28:
 491              	.L20:
 706:Drivers/STM32G4xx_HAL_Driver/Src/stm32g4xx_hal_dac.c ****         break;
 492              		.loc 1 706 9 is_stmt 1 view .LVU153
 706:Drivers/STM32G4xx_HAL_Driver/Src/stm32g4xx_hal_dac.c ****         break;
 493              		.loc 1 706 28 is_stmt 0 view .LVU154
 494 0078 00F10C02 		add	r2, r0, #12
 495              	.LVL29:
 707:Drivers/STM32G4xx_HAL_Driver/Src/stm32g4xx_hal_dac.c ****       case DAC_ALIGN_8B_R:
 496              		.loc 1 707 9 is_stmt 1 view .LVU155
 497 007c E3E7     		b	.L22
 498              	.LVL30:
 499              	.L21:
 710:Drivers/STM32G4xx_HAL_Driver/Src/stm32g4xx_hal_dac.c ****         break;
 500              		.loc 1 710 9 view .LVU156
 710:Drivers/STM32G4xx_HAL_Driver/Src/stm32g4xx_hal_dac.c ****         break;
 501              		.loc 1 710 28 is_stmt 0 view .LVU157
 502 007e 00F11002 		add	r2, r0, #16
 503              	.LVL31:
 711:Drivers/STM32G4xx_HAL_Driver/Src/stm32g4xx_hal_dac.c ****       default:
 504              		.loc 1 711 9 is_stmt 1 view .LVU158
 505 0082 E0E7     		b	.L22
 506              	.LVL32:
 507              	.L19:
 719:Drivers/STM32G4xx_HAL_Driver/Src/stm32g4xx_hal_dac.c **** 
 508              		.loc 1 719 5 view .LVU159
 719:Drivers/STM32G4xx_HAL_Driver/Src/stm32g4xx_hal_dac.c **** 
 509              		.loc 1 719 9 is_stmt 0 view .LVU160
 510 0084 E268     		ldr	r2, [r4, #12]
 719:Drivers/STM32G4xx_HAL_Driver/Src/stm32g4xx_hal_dac.c **** 
 511              		.loc 1 719 41 view .LVU161
 512 0086 164D     		ldr	r5, .L32+12
 513 0088 D562     		str	r5, [r2, #44]
 722:Drivers/STM32G4xx_HAL_Driver/Src/stm32g4xx_hal_dac.c **** 
 514              		.loc 1 722 5 is_stmt 1 view .LVU162
 722:Drivers/STM32G4xx_HAL_Driver/Src/stm32g4xx_hal_dac.c **** 
 515              		.loc 1 722 45 is_stmt 0 view .LVU163
 516 008a 164D     		ldr	r5, .L32+16
 517 008c 1563     		str	r5, [r2, #48]
 725:Drivers/STM32G4xx_HAL_Driver/Src/stm32g4xx_hal_dac.c **** 
ARM GAS  /tmp/ccHGeJqL.s 			page 25


 518              		.loc 1 725 5 is_stmt 1 view .LVU164
 725:Drivers/STM32G4xx_HAL_Driver/Src/stm32g4xx_hal_dac.c **** 
 519              		.loc 1 725 42 is_stmt 0 view .LVU165
 520 008e 164D     		ldr	r5, .L32+20
 521 0090 5563     		str	r5, [r2, #52]
 728:Drivers/STM32G4xx_HAL_Driver/Src/stm32g4xx_hal_dac.c **** 
 522              		.loc 1 728 5 is_stmt 1 view .LVU166
 523 0092 0268     		ldr	r2, [r0]
 731:Drivers/STM32G4xx_HAL_Driver/Src/stm32g4xx_hal_dac.c ****     {
 524              		.loc 1 731 5 is_stmt 0 view .LVU167
 525 0094 042F     		cmp	r7, #4
 728:Drivers/STM32G4xx_HAL_Driver/Src/stm32g4xx_hal_dac.c **** 
 526              		.loc 1 728 5 view .LVU168
 527 0096 42F08052 		orr	r2, r2, #268435456
 528 009a 0260     		str	r2, [r0]
 731:Drivers/STM32G4xx_HAL_Driver/Src/stm32g4xx_hal_dac.c ****     {
 529              		.loc 1 731 5 is_stmt 1 view .LVU169
 530 009c 0AD0     		beq	.L23
 531 009e 082F     		cmp	r7, #8
 532 00a0 0BD0     		beq	.L24
 533 00a2 7FB9     		cbnz	r7, .L30
 735:Drivers/STM32G4xx_HAL_Driver/Src/stm32g4xx_hal_dac.c ****         break;
 534              		.loc 1 735 9 view .LVU170
 735:Drivers/STM32G4xx_HAL_Driver/Src/stm32g4xx_hal_dac.c ****         break;
 535              		.loc 1 735 28 is_stmt 0 view .LVU171
 536 00a4 00F11402 		add	r2, r0, #20
 537              	.LVL33:
 736:Drivers/STM32G4xx_HAL_Driver/Src/stm32g4xx_hal_dac.c ****       case DAC_ALIGN_12B_L:
 538              		.loc 1 736 9 is_stmt 1 view .LVU172
 539              	.L25:
 762:Drivers/STM32G4xx_HAL_Driver/Src/stm32g4xx_hal_dac.c **** 
 540              		.loc 1 762 5 view .LVU173
 541 00a8 0568     		ldr	r5, [r0]
 542 00aa 45F00055 		orr	r5, r5, #536870912
 543 00ae 0560     		str	r5, [r0]
 765:Drivers/STM32G4xx_HAL_Driver/Src/stm32g4xx_hal_dac.c ****   }
 544              		.loc 1 765 5 view .LVU174
 765:Drivers/STM32G4xx_HAL_Driver/Src/stm32g4xx_hal_dac.c ****   }
 545              		.loc 1 765 14 is_stmt 0 view .LVU175
 546 00b0 E068     		ldr	r0, [r4, #12]
 547 00b2 CDE7     		b	.L31
 548              	.LVL34:
 549              	.L23:
 739:Drivers/STM32G4xx_HAL_Driver/Src/stm32g4xx_hal_dac.c ****         break;
 550              		.loc 1 739 9 is_stmt 1 view .LVU176
 739:Drivers/STM32G4xx_HAL_Driver/Src/stm32g4xx_hal_dac.c ****         break;
 551              		.loc 1 739 28 is_stmt 0 view .LVU177
 552 00b4 00F11802 		add	r2, r0, #24
 553              	.LVL35:
 740:Drivers/STM32G4xx_HAL_Driver/Src/stm32g4xx_hal_dac.c ****       case DAC_ALIGN_8B_R:
 554              		.loc 1 740 9 is_stmt 1 view .LVU178
 555 00b8 F6E7     		b	.L25
 556              	.LVL36:
 557              	.L24:
 743:Drivers/STM32G4xx_HAL_Driver/Src/stm32g4xx_hal_dac.c ****         break;
 558              		.loc 1 743 9 view .LVU179
 743:Drivers/STM32G4xx_HAL_Driver/Src/stm32g4xx_hal_dac.c ****         break;
ARM GAS  /tmp/ccHGeJqL.s 			page 26


 559              		.loc 1 743 28 is_stmt 0 view .LVU180
 560 00ba 00F11C02 		add	r2, r0, #28
 561              	.LVL37:
 744:Drivers/STM32G4xx_HAL_Driver/Src/stm32g4xx_hal_dac.c ****       default:
 562              		.loc 1 744 9 is_stmt 1 view .LVU181
 563 00be F3E7     		b	.L25
 564              	.LVL38:
 565              	.L29:
 698:Drivers/STM32G4xx_HAL_Driver/Src/stm32g4xx_hal_dac.c ****     {
 566              		.loc 1 698 5 is_stmt 0 view .LVU182
 567 00c0 3246     		mov	r2, r6
 568 00c2 C0E7     		b	.L22
 569              	.L30:
 731:Drivers/STM32G4xx_HAL_Driver/Src/stm32g4xx_hal_dac.c ****     {
 570              		.loc 1 731 5 view .LVU183
 571 00c4 0022     		movs	r2, #0
 572 00c6 EFE7     		b	.L25
 573              	.LVL39:
 574              	.L27:
 780:Drivers/STM32G4xx_HAL_Driver/Src/stm32g4xx_hal_dac.c ****   }
 575              		.loc 1 780 5 is_stmt 1 view .LVU184
 780:Drivers/STM32G4xx_HAL_Driver/Src/stm32g4xx_hal_dac.c ****   }
 576              		.loc 1 780 21 is_stmt 0 view .LVU185
 577 00c8 2369     		ldr	r3, [r4, #16]
 578 00ca 43F00403 		orr	r3, r3, #4
 579 00ce 2361     		str	r3, [r4, #16]
 580 00d0 D0E7     		b	.L18
 581              	.L33:
 582 00d2 00BF     		.align	2
 583              	.L32:
 584 00d4 00000000 		.word	DAC_DMAConvCpltCh1
 585 00d8 00000000 		.word	DAC_DMAHalfConvCpltCh1
 586 00dc 00000000 		.word	DAC_DMAErrorCh1
 587 00e0 00000000 		.word	DAC_DMAConvCpltCh2
 588 00e4 00000000 		.word	DAC_DMAHalfConvCpltCh2
 589 00e8 00000000 		.word	DAC_DMAErrorCh2
 590              		.cfi_endproc
 591              	.LFE363:
 593              		.section	.text.HAL_DAC_Stop_DMA,"ax",%progbits
 594              		.align	1
 595              		.global	HAL_DAC_Stop_DMA
 596              		.syntax unified
 597              		.thumb
 598              		.thumb_func
 599              		.fpu fpv4-sp-d16
 601              	HAL_DAC_Stop_DMA:
 602              	.LVL40:
 603              	.LFB364:
 786:Drivers/STM32G4xx_HAL_Driver/Src/stm32g4xx_hal_dac.c **** 
 787:Drivers/STM32G4xx_HAL_Driver/Src/stm32g4xx_hal_dac.c **** /**
 788:Drivers/STM32G4xx_HAL_Driver/Src/stm32g4xx_hal_dac.c ****   * @brief  Disables DAC and stop conversion of channel.
 789:Drivers/STM32G4xx_HAL_Driver/Src/stm32g4xx_hal_dac.c ****   * @param  hdac pointer to a DAC_HandleTypeDef structure that contains
 790:Drivers/STM32G4xx_HAL_Driver/Src/stm32g4xx_hal_dac.c ****   *         the configuration information for the specified DAC.
 791:Drivers/STM32G4xx_HAL_Driver/Src/stm32g4xx_hal_dac.c ****   * @param  Channel The selected DAC channel.
 792:Drivers/STM32G4xx_HAL_Driver/Src/stm32g4xx_hal_dac.c ****   *          This parameter can be one of the following values:
 793:Drivers/STM32G4xx_HAL_Driver/Src/stm32g4xx_hal_dac.c ****   *            @arg DAC_CHANNEL_1: DAC Channel1 selected
 794:Drivers/STM32G4xx_HAL_Driver/Src/stm32g4xx_hal_dac.c ****   *            @arg DAC_CHANNEL_2: DAC Channel2 selected (1)
ARM GAS  /tmp/ccHGeJqL.s 			page 27


 795:Drivers/STM32G4xx_HAL_Driver/Src/stm32g4xx_hal_dac.c ****   *
 796:Drivers/STM32G4xx_HAL_Driver/Src/stm32g4xx_hal_dac.c ****   *         (1) On this STM32 serie, parameter not available on all instances.
 797:Drivers/STM32G4xx_HAL_Driver/Src/stm32g4xx_hal_dac.c ****   *             Refer to device datasheet for channels availability.
 798:Drivers/STM32G4xx_HAL_Driver/Src/stm32g4xx_hal_dac.c ****   * @retval HAL status
 799:Drivers/STM32G4xx_HAL_Driver/Src/stm32g4xx_hal_dac.c ****   */
 800:Drivers/STM32G4xx_HAL_Driver/Src/stm32g4xx_hal_dac.c **** HAL_StatusTypeDef HAL_DAC_Stop_DMA(DAC_HandleTypeDef *hdac, uint32_t Channel)
 801:Drivers/STM32G4xx_HAL_Driver/Src/stm32g4xx_hal_dac.c **** {
 604              		.loc 1 801 1 is_stmt 1 view -0
 605              		.cfi_startproc
 606              		@ args = 0, pretend = 0, frame = 0
 607              		@ frame_needed = 0, uses_anonymous_args = 0
 802:Drivers/STM32G4xx_HAL_Driver/Src/stm32g4xx_hal_dac.c ****   HAL_StatusTypeDef status;
 608              		.loc 1 802 3 view .LVU187
 803:Drivers/STM32G4xx_HAL_Driver/Src/stm32g4xx_hal_dac.c **** 
 804:Drivers/STM32G4xx_HAL_Driver/Src/stm32g4xx_hal_dac.c ****   /* Check the parameters */
 805:Drivers/STM32G4xx_HAL_Driver/Src/stm32g4xx_hal_dac.c ****   assert_param(IS_DAC_CHANNEL(hdac->Instance, Channel));
 609              		.loc 1 805 3 view .LVU188
 806:Drivers/STM32G4xx_HAL_Driver/Src/stm32g4xx_hal_dac.c **** 
 807:Drivers/STM32G4xx_HAL_Driver/Src/stm32g4xx_hal_dac.c ****   /* Disable the selected DAC channel DMA request */
 808:Drivers/STM32G4xx_HAL_Driver/Src/stm32g4xx_hal_dac.c ****   hdac->Instance->CR &= ~(DAC_CR_DMAEN1 << (Channel & 0x10UL));
 610              		.loc 1 808 3 view .LVU189
 801:Drivers/STM32G4xx_HAL_Driver/Src/stm32g4xx_hal_dac.c ****   HAL_StatusTypeDef status;
 611              		.loc 1 801 1 is_stmt 0 view .LVU190
 612 0000 38B5     		push	{r3, r4, r5, lr}
 613              	.LCFI5:
 614              		.cfi_def_cfa_offset 16
 615              		.cfi_offset 3, -16
 616              		.cfi_offset 4, -12
 617              		.cfi_offset 5, -8
 618              		.cfi_offset 14, -4
 619              		.loc 1 808 7 view .LVU191
 620 0002 0368     		ldr	r3, [r0]
 801:Drivers/STM32G4xx_HAL_Driver/Src/stm32g4xx_hal_dac.c ****   HAL_StatusTypeDef status;
 621              		.loc 1 801 1 view .LVU192
 622 0004 0D46     		mov	r5, r1
 623              		.loc 1 808 53 view .LVU193
 624 0006 05F01002 		and	r2, r5, #16
 625              		.loc 1 808 22 view .LVU194
 626 000a 1968     		ldr	r1, [r3]
 627              	.LVL41:
 801:Drivers/STM32G4xx_HAL_Driver/Src/stm32g4xx_hal_dac.c ****   HAL_StatusTypeDef status;
 628              		.loc 1 801 1 view .LVU195
 629 000c 0446     		mov	r4, r0
 630              		.loc 1 808 41 view .LVU196
 631 000e 4FF48050 		mov	r0, #4096
 632              	.LVL42:
 633              		.loc 1 808 41 view .LVU197
 634 0012 9040     		lsls	r0, r0, r2
 635              		.loc 1 808 22 view .LVU198
 636 0014 21EA0001 		bic	r1, r1, r0
 637 0018 1960     		str	r1, [r3]
 809:Drivers/STM32G4xx_HAL_Driver/Src/stm32g4xx_hal_dac.c **** 
 810:Drivers/STM32G4xx_HAL_Driver/Src/stm32g4xx_hal_dac.c ****   /* Disable the Peripheral */
 811:Drivers/STM32G4xx_HAL_Driver/Src/stm32g4xx_hal_dac.c ****   __HAL_DAC_DISABLE(hdac, Channel);
 638              		.loc 1 811 3 is_stmt 1 view .LVU199
 639 001a 1968     		ldr	r1, [r3]
 640 001c 0120     		movs	r0, #1
ARM GAS  /tmp/ccHGeJqL.s 			page 28


 641 001e 00FA02F2 		lsl	r2, r0, r2
 642 0022 21EA0202 		bic	r2, r1, r2
 643 0026 1A60     		str	r2, [r3]
 812:Drivers/STM32G4xx_HAL_Driver/Src/stm32g4xx_hal_dac.c ****   /* Ensure minimum wait before enabling peripheral after disabling it */
 813:Drivers/STM32G4xx_HAL_Driver/Src/stm32g4xx_hal_dac.c ****   HAL_Delay(1);
 644              		.loc 1 813 3 view .LVU200
 645 0028 FFF7FEFF 		bl	HAL_Delay
 646              	.LVL43:
 814:Drivers/STM32G4xx_HAL_Driver/Src/stm32g4xx_hal_dac.c **** 
 815:Drivers/STM32G4xx_HAL_Driver/Src/stm32g4xx_hal_dac.c ****   /* Disable the DMA channel */
 816:Drivers/STM32G4xx_HAL_Driver/Src/stm32g4xx_hal_dac.c **** 
 817:Drivers/STM32G4xx_HAL_Driver/Src/stm32g4xx_hal_dac.c ****   /* Channel1 is used */
 818:Drivers/STM32G4xx_HAL_Driver/Src/stm32g4xx_hal_dac.c ****   if (Channel == DAC_CHANNEL_1)
 647              		.loc 1 818 3 view .LVU201
 648              		.loc 1 818 6 is_stmt 0 view .LVU202
 649 002c 5DB9     		cbnz	r5, .L35
 819:Drivers/STM32G4xx_HAL_Driver/Src/stm32g4xx_hal_dac.c ****   {
 820:Drivers/STM32G4xx_HAL_Driver/Src/stm32g4xx_hal_dac.c ****     /* Disable the DMA channel */
 821:Drivers/STM32G4xx_HAL_Driver/Src/stm32g4xx_hal_dac.c ****     status = HAL_DMA_Abort(hdac->DMA_Handle1);
 650              		.loc 1 821 5 is_stmt 1 view .LVU203
 651              		.loc 1 821 14 is_stmt 0 view .LVU204
 652 002e A068     		ldr	r0, [r4, #8]
 653 0030 FFF7FEFF 		bl	HAL_DMA_Abort
 654              	.LVL44:
 822:Drivers/STM32G4xx_HAL_Driver/Src/stm32g4xx_hal_dac.c **** 
 823:Drivers/STM32G4xx_HAL_Driver/Src/stm32g4xx_hal_dac.c ****     /* Disable the DAC DMA underrun interrupt */
 824:Drivers/STM32G4xx_HAL_Driver/Src/stm32g4xx_hal_dac.c ****     __HAL_DAC_DISABLE_IT(hdac, DAC_IT_DMAUDR1);
 655              		.loc 1 824 5 is_stmt 1 view .LVU205
 656 0034 2268     		ldr	r2, [r4]
 657 0036 1368     		ldr	r3, [r2]
 658 0038 23F40053 		bic	r3, r3, #8192
 659              	.L39:
 825:Drivers/STM32G4xx_HAL_Driver/Src/stm32g4xx_hal_dac.c ****   }
 826:Drivers/STM32G4xx_HAL_Driver/Src/stm32g4xx_hal_dac.c ****   else /* Channel2 is used for */
 827:Drivers/STM32G4xx_HAL_Driver/Src/stm32g4xx_hal_dac.c ****   {
 828:Drivers/STM32G4xx_HAL_Driver/Src/stm32g4xx_hal_dac.c ****     /* Disable the DMA channel */
 829:Drivers/STM32G4xx_HAL_Driver/Src/stm32g4xx_hal_dac.c ****     status = HAL_DMA_Abort(hdac->DMA_Handle2);
 830:Drivers/STM32G4xx_HAL_Driver/Src/stm32g4xx_hal_dac.c **** 
 831:Drivers/STM32G4xx_HAL_Driver/Src/stm32g4xx_hal_dac.c ****     /* Disable the DAC DMA underrun interrupt */
 832:Drivers/STM32G4xx_HAL_Driver/Src/stm32g4xx_hal_dac.c ****     __HAL_DAC_DISABLE_IT(hdac, DAC_IT_DMAUDR2);
 660              		.loc 1 832 5 is_stmt 0 view .LVU206
 661 003c 1360     		str	r3, [r2]
 833:Drivers/STM32G4xx_HAL_Driver/Src/stm32g4xx_hal_dac.c ****   }
 834:Drivers/STM32G4xx_HAL_Driver/Src/stm32g4xx_hal_dac.c **** 
 835:Drivers/STM32G4xx_HAL_Driver/Src/stm32g4xx_hal_dac.c ****   /* Check if DMA Channel effectively disabled */
 836:Drivers/STM32G4xx_HAL_Driver/Src/stm32g4xx_hal_dac.c ****   if (status != HAL_OK)
 662              		.loc 1 836 3 is_stmt 1 view .LVU207
 663              		.loc 1 836 6 is_stmt 0 view .LVU208
 664 003e 50B1     		cbz	r0, .L37
 837:Drivers/STM32G4xx_HAL_Driver/Src/stm32g4xx_hal_dac.c ****   {
 838:Drivers/STM32G4xx_HAL_Driver/Src/stm32g4xx_hal_dac.c ****     /* Update DAC state machine to error */
 839:Drivers/STM32G4xx_HAL_Driver/Src/stm32g4xx_hal_dac.c ****     hdac->State = HAL_DAC_STATE_ERROR;
 665              		.loc 1 839 5 is_stmt 1 view .LVU209
 666              		.loc 1 839 17 is_stmt 0 view .LVU210
 667 0040 0423     		movs	r3, #4
 668              	.L40:
 840:Drivers/STM32G4xx_HAL_Driver/Src/stm32g4xx_hal_dac.c ****   }
ARM GAS  /tmp/ccHGeJqL.s 			page 29


 841:Drivers/STM32G4xx_HAL_Driver/Src/stm32g4xx_hal_dac.c ****   else
 842:Drivers/STM32G4xx_HAL_Driver/Src/stm32g4xx_hal_dac.c ****   {
 843:Drivers/STM32G4xx_HAL_Driver/Src/stm32g4xx_hal_dac.c ****     /* Change DAC state */
 844:Drivers/STM32G4xx_HAL_Driver/Src/stm32g4xx_hal_dac.c ****     hdac->State = HAL_DAC_STATE_READY;
 669              		.loc 1 844 17 view .LVU211
 670 0042 2371     		strb	r3, [r4, #4]
 845:Drivers/STM32G4xx_HAL_Driver/Src/stm32g4xx_hal_dac.c ****   }
 846:Drivers/STM32G4xx_HAL_Driver/Src/stm32g4xx_hal_dac.c **** 
 847:Drivers/STM32G4xx_HAL_Driver/Src/stm32g4xx_hal_dac.c ****   /* Return function status */
 848:Drivers/STM32G4xx_HAL_Driver/Src/stm32g4xx_hal_dac.c ****   return status;
 671              		.loc 1 848 3 is_stmt 1 view .LVU212
 849:Drivers/STM32G4xx_HAL_Driver/Src/stm32g4xx_hal_dac.c **** }
 672              		.loc 1 849 1 is_stmt 0 view .LVU213
 673 0044 38BD     		pop	{r3, r4, r5, pc}
 674              	.LVL45:
 675              	.L35:
 829:Drivers/STM32G4xx_HAL_Driver/Src/stm32g4xx_hal_dac.c **** 
 676              		.loc 1 829 5 is_stmt 1 view .LVU214
 829:Drivers/STM32G4xx_HAL_Driver/Src/stm32g4xx_hal_dac.c **** 
 677              		.loc 1 829 14 is_stmt 0 view .LVU215
 678 0046 E068     		ldr	r0, [r4, #12]
 679 0048 FFF7FEFF 		bl	HAL_DMA_Abort
 680              	.LVL46:
 832:Drivers/STM32G4xx_HAL_Driver/Src/stm32g4xx_hal_dac.c ****   }
 681              		.loc 1 832 5 is_stmt 1 view .LVU216
 682 004c 2268     		ldr	r2, [r4]
 683 004e 1368     		ldr	r3, [r2]
 684 0050 23F00053 		bic	r3, r3, #536870912
 685 0054 F2E7     		b	.L39
 686              	.L37:
 844:Drivers/STM32G4xx_HAL_Driver/Src/stm32g4xx_hal_dac.c ****   }
 687              		.loc 1 844 5 view .LVU217
 844:Drivers/STM32G4xx_HAL_Driver/Src/stm32g4xx_hal_dac.c ****   }
 688              		.loc 1 844 17 is_stmt 0 view .LVU218
 689 0056 0123     		movs	r3, #1
 690 0058 F3E7     		b	.L40
 691              		.cfi_endproc
 692              	.LFE364:
 694              		.section	.text.HAL_DAC_SetValue,"ax",%progbits
 695              		.align	1
 696              		.global	HAL_DAC_SetValue
 697              		.syntax unified
 698              		.thumb
 699              		.thumb_func
 700              		.fpu fpv4-sp-d16
 702              	HAL_DAC_SetValue:
 703              	.LVL47:
 704              	.LFB366:
 850:Drivers/STM32G4xx_HAL_Driver/Src/stm32g4xx_hal_dac.c **** 
 851:Drivers/STM32G4xx_HAL_Driver/Src/stm32g4xx_hal_dac.c **** /**
 852:Drivers/STM32G4xx_HAL_Driver/Src/stm32g4xx_hal_dac.c ****   * @brief  Handles DAC interrupt request
 853:Drivers/STM32G4xx_HAL_Driver/Src/stm32g4xx_hal_dac.c ****   *         This function uses the interruption of DMA
 854:Drivers/STM32G4xx_HAL_Driver/Src/stm32g4xx_hal_dac.c ****   *         underrun.
 855:Drivers/STM32G4xx_HAL_Driver/Src/stm32g4xx_hal_dac.c ****   * @param  hdac pointer to a DAC_HandleTypeDef structure that contains
 856:Drivers/STM32G4xx_HAL_Driver/Src/stm32g4xx_hal_dac.c ****   *         the configuration information for the specified DAC.
 857:Drivers/STM32G4xx_HAL_Driver/Src/stm32g4xx_hal_dac.c ****   * @retval None
 858:Drivers/STM32G4xx_HAL_Driver/Src/stm32g4xx_hal_dac.c ****   */
ARM GAS  /tmp/ccHGeJqL.s 			page 30


 859:Drivers/STM32G4xx_HAL_Driver/Src/stm32g4xx_hal_dac.c **** void HAL_DAC_IRQHandler(DAC_HandleTypeDef *hdac)
 860:Drivers/STM32G4xx_HAL_Driver/Src/stm32g4xx_hal_dac.c **** {
 861:Drivers/STM32G4xx_HAL_Driver/Src/stm32g4xx_hal_dac.c ****   if (__HAL_DAC_GET_IT_SOURCE(hdac, DAC_IT_DMAUDR1))
 862:Drivers/STM32G4xx_HAL_Driver/Src/stm32g4xx_hal_dac.c ****   {
 863:Drivers/STM32G4xx_HAL_Driver/Src/stm32g4xx_hal_dac.c ****     /* Check underrun flag of DAC channel 1 */
 864:Drivers/STM32G4xx_HAL_Driver/Src/stm32g4xx_hal_dac.c ****     if (__HAL_DAC_GET_FLAG(hdac, DAC_FLAG_DMAUDR1))
 865:Drivers/STM32G4xx_HAL_Driver/Src/stm32g4xx_hal_dac.c ****     {
 866:Drivers/STM32G4xx_HAL_Driver/Src/stm32g4xx_hal_dac.c ****       /* Change DAC state to error state */
 867:Drivers/STM32G4xx_HAL_Driver/Src/stm32g4xx_hal_dac.c ****       hdac->State = HAL_DAC_STATE_ERROR;
 868:Drivers/STM32G4xx_HAL_Driver/Src/stm32g4xx_hal_dac.c **** 
 869:Drivers/STM32G4xx_HAL_Driver/Src/stm32g4xx_hal_dac.c ****       /* Set DAC error code to chanel1 DMA underrun error */
 870:Drivers/STM32G4xx_HAL_Driver/Src/stm32g4xx_hal_dac.c ****       SET_BIT(hdac->ErrorCode, HAL_DAC_ERROR_DMAUNDERRUNCH1);
 871:Drivers/STM32G4xx_HAL_Driver/Src/stm32g4xx_hal_dac.c **** 
 872:Drivers/STM32G4xx_HAL_Driver/Src/stm32g4xx_hal_dac.c ****       /* Clear the underrun flag */
 873:Drivers/STM32G4xx_HAL_Driver/Src/stm32g4xx_hal_dac.c ****       __HAL_DAC_CLEAR_FLAG(hdac, DAC_FLAG_DMAUDR1);
 874:Drivers/STM32G4xx_HAL_Driver/Src/stm32g4xx_hal_dac.c **** 
 875:Drivers/STM32G4xx_HAL_Driver/Src/stm32g4xx_hal_dac.c ****       /* Disable the selected DAC channel1 DMA request */
 876:Drivers/STM32G4xx_HAL_Driver/Src/stm32g4xx_hal_dac.c ****       CLEAR_BIT(hdac->Instance->CR, DAC_CR_DMAEN1);
 877:Drivers/STM32G4xx_HAL_Driver/Src/stm32g4xx_hal_dac.c **** 
 878:Drivers/STM32G4xx_HAL_Driver/Src/stm32g4xx_hal_dac.c ****       /* Error callback */
 879:Drivers/STM32G4xx_HAL_Driver/Src/stm32g4xx_hal_dac.c **** #if (USE_HAL_DAC_REGISTER_CALLBACKS == 1)
 880:Drivers/STM32G4xx_HAL_Driver/Src/stm32g4xx_hal_dac.c ****       hdac->DMAUnderrunCallbackCh1(hdac);
 881:Drivers/STM32G4xx_HAL_Driver/Src/stm32g4xx_hal_dac.c **** #else
 882:Drivers/STM32G4xx_HAL_Driver/Src/stm32g4xx_hal_dac.c ****       HAL_DAC_DMAUnderrunCallbackCh1(hdac);
 883:Drivers/STM32G4xx_HAL_Driver/Src/stm32g4xx_hal_dac.c **** #endif /* USE_HAL_DAC_REGISTER_CALLBACKS */
 884:Drivers/STM32G4xx_HAL_Driver/Src/stm32g4xx_hal_dac.c ****     }
 885:Drivers/STM32G4xx_HAL_Driver/Src/stm32g4xx_hal_dac.c ****   }
 886:Drivers/STM32G4xx_HAL_Driver/Src/stm32g4xx_hal_dac.c **** 
 887:Drivers/STM32G4xx_HAL_Driver/Src/stm32g4xx_hal_dac.c ****   if (__HAL_DAC_GET_IT_SOURCE(hdac, DAC_IT_DMAUDR2))
 888:Drivers/STM32G4xx_HAL_Driver/Src/stm32g4xx_hal_dac.c ****   {
 889:Drivers/STM32G4xx_HAL_Driver/Src/stm32g4xx_hal_dac.c ****     /* Check underrun flag of DAC channel 2 */
 890:Drivers/STM32G4xx_HAL_Driver/Src/stm32g4xx_hal_dac.c ****     if (__HAL_DAC_GET_FLAG(hdac, DAC_FLAG_DMAUDR2))
 891:Drivers/STM32G4xx_HAL_Driver/Src/stm32g4xx_hal_dac.c ****     {
 892:Drivers/STM32G4xx_HAL_Driver/Src/stm32g4xx_hal_dac.c ****       /* Change DAC state to error state */
 893:Drivers/STM32G4xx_HAL_Driver/Src/stm32g4xx_hal_dac.c ****       hdac->State = HAL_DAC_STATE_ERROR;
 894:Drivers/STM32G4xx_HAL_Driver/Src/stm32g4xx_hal_dac.c **** 
 895:Drivers/STM32G4xx_HAL_Driver/Src/stm32g4xx_hal_dac.c ****       /* Set DAC error code to channel2 DMA underrun error */
 896:Drivers/STM32G4xx_HAL_Driver/Src/stm32g4xx_hal_dac.c ****       SET_BIT(hdac->ErrorCode, HAL_DAC_ERROR_DMAUNDERRUNCH2);
 897:Drivers/STM32G4xx_HAL_Driver/Src/stm32g4xx_hal_dac.c **** 
 898:Drivers/STM32G4xx_HAL_Driver/Src/stm32g4xx_hal_dac.c ****       /* Clear the underrun flag */
 899:Drivers/STM32G4xx_HAL_Driver/Src/stm32g4xx_hal_dac.c ****       __HAL_DAC_CLEAR_FLAG(hdac, DAC_FLAG_DMAUDR2);
 900:Drivers/STM32G4xx_HAL_Driver/Src/stm32g4xx_hal_dac.c **** 
 901:Drivers/STM32G4xx_HAL_Driver/Src/stm32g4xx_hal_dac.c ****       /* Disable the selected DAC channel2 DMA request */
 902:Drivers/STM32G4xx_HAL_Driver/Src/stm32g4xx_hal_dac.c ****       CLEAR_BIT(hdac->Instance->CR, DAC_CR_DMAEN2);
 903:Drivers/STM32G4xx_HAL_Driver/Src/stm32g4xx_hal_dac.c **** 
 904:Drivers/STM32G4xx_HAL_Driver/Src/stm32g4xx_hal_dac.c ****       /* Error callback */
 905:Drivers/STM32G4xx_HAL_Driver/Src/stm32g4xx_hal_dac.c **** #if (USE_HAL_DAC_REGISTER_CALLBACKS == 1)
 906:Drivers/STM32G4xx_HAL_Driver/Src/stm32g4xx_hal_dac.c ****       hdac->DMAUnderrunCallbackCh2(hdac);
 907:Drivers/STM32G4xx_HAL_Driver/Src/stm32g4xx_hal_dac.c **** #else
 908:Drivers/STM32G4xx_HAL_Driver/Src/stm32g4xx_hal_dac.c ****       HAL_DACEx_DMAUnderrunCallbackCh2(hdac);
 909:Drivers/STM32G4xx_HAL_Driver/Src/stm32g4xx_hal_dac.c **** #endif /* USE_HAL_DAC_REGISTER_CALLBACKS */
 910:Drivers/STM32G4xx_HAL_Driver/Src/stm32g4xx_hal_dac.c ****     }
 911:Drivers/STM32G4xx_HAL_Driver/Src/stm32g4xx_hal_dac.c ****   }
 912:Drivers/STM32G4xx_HAL_Driver/Src/stm32g4xx_hal_dac.c **** }
 913:Drivers/STM32G4xx_HAL_Driver/Src/stm32g4xx_hal_dac.c **** 
 914:Drivers/STM32G4xx_HAL_Driver/Src/stm32g4xx_hal_dac.c **** /**
 915:Drivers/STM32G4xx_HAL_Driver/Src/stm32g4xx_hal_dac.c ****   * @brief  Set the specified data holding register value for DAC channel.
ARM GAS  /tmp/ccHGeJqL.s 			page 31


 916:Drivers/STM32G4xx_HAL_Driver/Src/stm32g4xx_hal_dac.c ****   * @param  hdac pointer to a DAC_HandleTypeDef structure that contains
 917:Drivers/STM32G4xx_HAL_Driver/Src/stm32g4xx_hal_dac.c ****   *         the configuration information for the specified DAC.
 918:Drivers/STM32G4xx_HAL_Driver/Src/stm32g4xx_hal_dac.c ****   * @param  Channel The selected DAC channel.
 919:Drivers/STM32G4xx_HAL_Driver/Src/stm32g4xx_hal_dac.c ****   *          This parameter can be one of the following values:
 920:Drivers/STM32G4xx_HAL_Driver/Src/stm32g4xx_hal_dac.c ****   *            @arg DAC_CHANNEL_1: DAC Channel1 selected
 921:Drivers/STM32G4xx_HAL_Driver/Src/stm32g4xx_hal_dac.c ****   *            @arg DAC_CHANNEL_2: DAC Channel2 selected (1)
 922:Drivers/STM32G4xx_HAL_Driver/Src/stm32g4xx_hal_dac.c ****   *
 923:Drivers/STM32G4xx_HAL_Driver/Src/stm32g4xx_hal_dac.c ****   *         (1) On this STM32 serie, parameter not available on all instances.
 924:Drivers/STM32G4xx_HAL_Driver/Src/stm32g4xx_hal_dac.c ****   *             Refer to device datasheet for channels availability.
 925:Drivers/STM32G4xx_HAL_Driver/Src/stm32g4xx_hal_dac.c ****   * @param  Alignment Specifies the data alignment.
 926:Drivers/STM32G4xx_HAL_Driver/Src/stm32g4xx_hal_dac.c ****   *          This parameter can be one of the following values:
 927:Drivers/STM32G4xx_HAL_Driver/Src/stm32g4xx_hal_dac.c ****   *            @arg DAC_ALIGN_8B_R: 8bit right data alignment selected
 928:Drivers/STM32G4xx_HAL_Driver/Src/stm32g4xx_hal_dac.c ****   *            @arg DAC_ALIGN_12B_L: 12bit left data alignment selected
 929:Drivers/STM32G4xx_HAL_Driver/Src/stm32g4xx_hal_dac.c ****   *            @arg DAC_ALIGN_12B_R: 12bit right data alignment selected
 930:Drivers/STM32G4xx_HAL_Driver/Src/stm32g4xx_hal_dac.c ****   * @param  Data Data to be loaded in the selected data holding register.
 931:Drivers/STM32G4xx_HAL_Driver/Src/stm32g4xx_hal_dac.c ****   * @retval HAL status
 932:Drivers/STM32G4xx_HAL_Driver/Src/stm32g4xx_hal_dac.c ****   */
 933:Drivers/STM32G4xx_HAL_Driver/Src/stm32g4xx_hal_dac.c **** HAL_StatusTypeDef HAL_DAC_SetValue(DAC_HandleTypeDef *hdac, uint32_t Channel, uint32_t Alignment, u
 934:Drivers/STM32G4xx_HAL_Driver/Src/stm32g4xx_hal_dac.c **** {
 705              		.loc 1 934 1 is_stmt 1 view -0
 706              		.cfi_startproc
 707              		@ args = 0, pretend = 0, frame = 8
 708              		@ frame_needed = 0, uses_anonymous_args = 0
 935:Drivers/STM32G4xx_HAL_Driver/Src/stm32g4xx_hal_dac.c ****   __IO uint32_t tmp = 0;
 709              		.loc 1 935 3 view .LVU220
 934:Drivers/STM32G4xx_HAL_Driver/Src/stm32g4xx_hal_dac.c ****   __IO uint32_t tmp = 0;
 710              		.loc 1 934 1 is_stmt 0 view .LVU221
 711 0000 13B5     		push	{r0, r1, r4, lr}
 712              	.LCFI6:
 713              		.cfi_def_cfa_offset 16
 714              		.cfi_offset 4, -8
 715              		.cfi_offset 14, -4
 936:Drivers/STM32G4xx_HAL_Driver/Src/stm32g4xx_hal_dac.c **** 
 937:Drivers/STM32G4xx_HAL_Driver/Src/stm32g4xx_hal_dac.c ****   /* Check the parameters */
 938:Drivers/STM32G4xx_HAL_Driver/Src/stm32g4xx_hal_dac.c ****   assert_param(IS_DAC_CHANNEL(hdac->Instance, Channel));
 939:Drivers/STM32G4xx_HAL_Driver/Src/stm32g4xx_hal_dac.c ****   assert_param(IS_DAC_ALIGN(Alignment));
 940:Drivers/STM32G4xx_HAL_Driver/Src/stm32g4xx_hal_dac.c ****   /* In case DMA Double data mode is activated, DATA range is almost full uin32_t one: no check */
 941:Drivers/STM32G4xx_HAL_Driver/Src/stm32g4xx_hal_dac.c ****   if ((hdac->Instance->MCR & (DAC_MCR_DMADOUBLE1 << (Channel & 0x10UL))) == 0UL)
 716              		.loc 1 941 12 view .LVU222
 717 0002 0068     		ldr	r0, [r0]
 718              	.LVL48:
 935:Drivers/STM32G4xx_HAL_Driver/Src/stm32g4xx_hal_dac.c **** 
 719              		.loc 1 935 17 view .LVU223
 720 0004 0024     		movs	r4, #0
 721 0006 0194     		str	r4, [sp, #4]
 938:Drivers/STM32G4xx_HAL_Driver/Src/stm32g4xx_hal_dac.c ****   assert_param(IS_DAC_ALIGN(Alignment));
 722              		.loc 1 938 3 is_stmt 1 view .LVU224
 939:Drivers/STM32G4xx_HAL_Driver/Src/stm32g4xx_hal_dac.c ****   /* In case DMA Double data mode is activated, DATA range is almost full uin32_t one: no check */
 723              		.loc 1 939 3 view .LVU225
 724              		.loc 1 941 3 view .LVU226
 725              		.loc 1 941 22 is_stmt 0 view .LVU227
 726 0008 C46B     		ldr	r4, [r0, #60]
 942:Drivers/STM32G4xx_HAL_Driver/Src/stm32g4xx_hal_dac.c ****   {
 943:Drivers/STM32G4xx_HAL_Driver/Src/stm32g4xx_hal_dac.c ****     assert_param(IS_DAC_DATA(Data));
 727              		.loc 1 943 5 is_stmt 1 view .LVU228
 944:Drivers/STM32G4xx_HAL_Driver/Src/stm32g4xx_hal_dac.c ****   }
 945:Drivers/STM32G4xx_HAL_Driver/Src/stm32g4xx_hal_dac.c **** 
ARM GAS  /tmp/ccHGeJqL.s 			page 32


 946:Drivers/STM32G4xx_HAL_Driver/Src/stm32g4xx_hal_dac.c ****   tmp = (uint32_t)hdac->Instance;
 728              		.loc 1 946 3 view .LVU229
 729              		.loc 1 946 7 is_stmt 0 view .LVU230
 730 000a 0190     		str	r0, [sp, #4]
 947:Drivers/STM32G4xx_HAL_Driver/Src/stm32g4xx_hal_dac.c ****   if (Channel == DAC_CHANNEL_1)
 731              		.loc 1 947 3 is_stmt 1 view .LVU231
 732              		.loc 1 947 6 is_stmt 0 view .LVU232
 733 000c 41B9     		cbnz	r1, .L42
 948:Drivers/STM32G4xx_HAL_Driver/Src/stm32g4xx_hal_dac.c ****   {
 949:Drivers/STM32G4xx_HAL_Driver/Src/stm32g4xx_hal_dac.c ****     tmp += DAC_DHR12R1_ALIGNMENT(Alignment);
 734              		.loc 1 949 5 is_stmt 1 view .LVU233
 735              		.loc 1 949 9 is_stmt 0 view .LVU234
 736 000e 0199     		ldr	r1, [sp, #4]
 737              	.LVL49:
 738              		.loc 1 949 9 view .LVU235
 739 0010 0831     		adds	r1, r1, #8
 740              	.L44:
 950:Drivers/STM32G4xx_HAL_Driver/Src/stm32g4xx_hal_dac.c ****   }
 951:Drivers/STM32G4xx_HAL_Driver/Src/stm32g4xx_hal_dac.c ****   else
 952:Drivers/STM32G4xx_HAL_Driver/Src/stm32g4xx_hal_dac.c ****   {
 953:Drivers/STM32G4xx_HAL_Driver/Src/stm32g4xx_hal_dac.c ****     tmp += DAC_DHR12R2_ALIGNMENT(Alignment);
 741              		.loc 1 953 9 view .LVU236
 742 0012 0A44     		add	r2, r2, r1
 743              	.LVL50:
 744              		.loc 1 953 9 view .LVU237
 745 0014 0192     		str	r2, [sp, #4]
 954:Drivers/STM32G4xx_HAL_Driver/Src/stm32g4xx_hal_dac.c ****   }
 955:Drivers/STM32G4xx_HAL_Driver/Src/stm32g4xx_hal_dac.c **** 
 956:Drivers/STM32G4xx_HAL_Driver/Src/stm32g4xx_hal_dac.c ****   /* Set the DAC channel selected data holding register */
 957:Drivers/STM32G4xx_HAL_Driver/Src/stm32g4xx_hal_dac.c ****   *(__IO uint32_t *) tmp = Data;
 746              		.loc 1 957 3 is_stmt 1 view .LVU238
 747              		.loc 1 957 4 is_stmt 0 view .LVU239
 748 0016 019A     		ldr	r2, [sp, #4]
 958:Drivers/STM32G4xx_HAL_Driver/Src/stm32g4xx_hal_dac.c **** 
 959:Drivers/STM32G4xx_HAL_Driver/Src/stm32g4xx_hal_dac.c ****   /* Return function status */
 960:Drivers/STM32G4xx_HAL_Driver/Src/stm32g4xx_hal_dac.c ****   return HAL_OK;
 961:Drivers/STM32G4xx_HAL_Driver/Src/stm32g4xx_hal_dac.c **** }
 749              		.loc 1 961 1 view .LVU240
 750 0018 0020     		movs	r0, #0
 957:Drivers/STM32G4xx_HAL_Driver/Src/stm32g4xx_hal_dac.c **** 
 751              		.loc 1 957 26 view .LVU241
 752 001a 1360     		str	r3, [r2]
 960:Drivers/STM32G4xx_HAL_Driver/Src/stm32g4xx_hal_dac.c **** }
 753              		.loc 1 960 3 is_stmt 1 view .LVU242
 754              		.loc 1 961 1 is_stmt 0 view .LVU243
 755 001c 02B0     		add	sp, sp, #8
 756              	.LCFI7:
 757              		.cfi_remember_state
 758              		.cfi_def_cfa_offset 8
 759              		@ sp needed
 760 001e 10BD     		pop	{r4, pc}
 761              	.LVL51:
 762              	.L42:
 763              	.LCFI8:
 764              		.cfi_restore_state
 953:Drivers/STM32G4xx_HAL_Driver/Src/stm32g4xx_hal_dac.c ****   }
 765              		.loc 1 953 5 is_stmt 1 view .LVU244
ARM GAS  /tmp/ccHGeJqL.s 			page 33


 953:Drivers/STM32G4xx_HAL_Driver/Src/stm32g4xx_hal_dac.c ****   }
 766              		.loc 1 953 9 is_stmt 0 view .LVU245
 767 0020 0199     		ldr	r1, [sp, #4]
 768              	.LVL52:
 953:Drivers/STM32G4xx_HAL_Driver/Src/stm32g4xx_hal_dac.c ****   }
 769              		.loc 1 953 9 view .LVU246
 770 0022 1431     		adds	r1, r1, #20
 771 0024 F5E7     		b	.L44
 772              		.cfi_endproc
 773              	.LFE366:
 775              		.section	.text.HAL_DAC_ConvCpltCallbackCh1,"ax",%progbits
 776              		.align	1
 777              		.weak	HAL_DAC_ConvCpltCallbackCh1
 778              		.syntax unified
 779              		.thumb
 780              		.thumb_func
 781              		.fpu fpv4-sp-d16
 783              	HAL_DAC_ConvCpltCallbackCh1:
 784              	.LFB381:
 785              		.cfi_startproc
 786              		@ args = 0, pretend = 0, frame = 0
 787              		@ frame_needed = 0, uses_anonymous_args = 0
 788              		@ link register save eliminated.
 789 0000 7047     		bx	lr
 790              		.cfi_endproc
 791              	.LFE381:
 793              		.section	.text.DAC_DMAConvCpltCh1,"ax",%progbits
 794              		.align	1
 795              		.global	DAC_DMAConvCpltCh1
 796              		.syntax unified
 797              		.thumb
 798              		.thumb_func
 799              		.fpu fpv4-sp-d16
 801              	DAC_DMAConvCpltCh1:
 802              	.LVL53:
 803              	.LFB375:
 962:Drivers/STM32G4xx_HAL_Driver/Src/stm32g4xx_hal_dac.c **** 
 963:Drivers/STM32G4xx_HAL_Driver/Src/stm32g4xx_hal_dac.c **** /**
 964:Drivers/STM32G4xx_HAL_Driver/Src/stm32g4xx_hal_dac.c ****   * @brief  Conversion complete callback in non-blocking mode for Channel1
 965:Drivers/STM32G4xx_HAL_Driver/Src/stm32g4xx_hal_dac.c ****   * @param  hdac pointer to a DAC_HandleTypeDef structure that contains
 966:Drivers/STM32G4xx_HAL_Driver/Src/stm32g4xx_hal_dac.c ****   *         the configuration information for the specified DAC.
 967:Drivers/STM32G4xx_HAL_Driver/Src/stm32g4xx_hal_dac.c ****   * @retval None
 968:Drivers/STM32G4xx_HAL_Driver/Src/stm32g4xx_hal_dac.c ****   */
 969:Drivers/STM32G4xx_HAL_Driver/Src/stm32g4xx_hal_dac.c **** __weak void HAL_DAC_ConvCpltCallbackCh1(DAC_HandleTypeDef *hdac)
 970:Drivers/STM32G4xx_HAL_Driver/Src/stm32g4xx_hal_dac.c **** {
 971:Drivers/STM32G4xx_HAL_Driver/Src/stm32g4xx_hal_dac.c ****   /* Prevent unused argument(s) compilation warning */
 972:Drivers/STM32G4xx_HAL_Driver/Src/stm32g4xx_hal_dac.c ****   UNUSED(hdac);
 973:Drivers/STM32G4xx_HAL_Driver/Src/stm32g4xx_hal_dac.c **** 
 974:Drivers/STM32G4xx_HAL_Driver/Src/stm32g4xx_hal_dac.c ****   /* NOTE : This function should not be modified, when the callback is needed,
 975:Drivers/STM32G4xx_HAL_Driver/Src/stm32g4xx_hal_dac.c ****             the HAL_DAC_ConvCpltCallbackCh1 could be implemented in the user file
 976:Drivers/STM32G4xx_HAL_Driver/Src/stm32g4xx_hal_dac.c ****    */
 977:Drivers/STM32G4xx_HAL_Driver/Src/stm32g4xx_hal_dac.c **** }
 978:Drivers/STM32G4xx_HAL_Driver/Src/stm32g4xx_hal_dac.c **** 
 979:Drivers/STM32G4xx_HAL_Driver/Src/stm32g4xx_hal_dac.c **** /**
 980:Drivers/STM32G4xx_HAL_Driver/Src/stm32g4xx_hal_dac.c ****   * @brief  Conversion half DMA transfer callback in non-blocking mode for Channel1
 981:Drivers/STM32G4xx_HAL_Driver/Src/stm32g4xx_hal_dac.c ****   * @param  hdac pointer to a DAC_HandleTypeDef structure that contains
 982:Drivers/STM32G4xx_HAL_Driver/Src/stm32g4xx_hal_dac.c ****   *         the configuration information for the specified DAC.
ARM GAS  /tmp/ccHGeJqL.s 			page 34


 983:Drivers/STM32G4xx_HAL_Driver/Src/stm32g4xx_hal_dac.c ****   * @retval None
 984:Drivers/STM32G4xx_HAL_Driver/Src/stm32g4xx_hal_dac.c ****   */
 985:Drivers/STM32G4xx_HAL_Driver/Src/stm32g4xx_hal_dac.c **** __weak void HAL_DAC_ConvHalfCpltCallbackCh1(DAC_HandleTypeDef *hdac)
 986:Drivers/STM32G4xx_HAL_Driver/Src/stm32g4xx_hal_dac.c **** {
 987:Drivers/STM32G4xx_HAL_Driver/Src/stm32g4xx_hal_dac.c ****   /* Prevent unused argument(s) compilation warning */
 988:Drivers/STM32G4xx_HAL_Driver/Src/stm32g4xx_hal_dac.c ****   UNUSED(hdac);
 989:Drivers/STM32G4xx_HAL_Driver/Src/stm32g4xx_hal_dac.c **** 
 990:Drivers/STM32G4xx_HAL_Driver/Src/stm32g4xx_hal_dac.c ****   /* NOTE : This function should not be modified, when the callback is needed,
 991:Drivers/STM32G4xx_HAL_Driver/Src/stm32g4xx_hal_dac.c ****             the HAL_DAC_ConvHalfCpltCallbackCh1 could be implemented in the user file
 992:Drivers/STM32G4xx_HAL_Driver/Src/stm32g4xx_hal_dac.c ****    */
 993:Drivers/STM32G4xx_HAL_Driver/Src/stm32g4xx_hal_dac.c **** }
 994:Drivers/STM32G4xx_HAL_Driver/Src/stm32g4xx_hal_dac.c **** 
 995:Drivers/STM32G4xx_HAL_Driver/Src/stm32g4xx_hal_dac.c **** /**
 996:Drivers/STM32G4xx_HAL_Driver/Src/stm32g4xx_hal_dac.c ****   * @brief  Error DAC callback for Channel1.
 997:Drivers/STM32G4xx_HAL_Driver/Src/stm32g4xx_hal_dac.c ****   * @param  hdac pointer to a DAC_HandleTypeDef structure that contains
 998:Drivers/STM32G4xx_HAL_Driver/Src/stm32g4xx_hal_dac.c ****   *         the configuration information for the specified DAC.
 999:Drivers/STM32G4xx_HAL_Driver/Src/stm32g4xx_hal_dac.c ****   * @retval None
1000:Drivers/STM32G4xx_HAL_Driver/Src/stm32g4xx_hal_dac.c ****   */
1001:Drivers/STM32G4xx_HAL_Driver/Src/stm32g4xx_hal_dac.c **** __weak void HAL_DAC_ErrorCallbackCh1(DAC_HandleTypeDef *hdac)
1002:Drivers/STM32G4xx_HAL_Driver/Src/stm32g4xx_hal_dac.c **** {
1003:Drivers/STM32G4xx_HAL_Driver/Src/stm32g4xx_hal_dac.c ****   /* Prevent unused argument(s) compilation warning */
1004:Drivers/STM32G4xx_HAL_Driver/Src/stm32g4xx_hal_dac.c ****   UNUSED(hdac);
1005:Drivers/STM32G4xx_HAL_Driver/Src/stm32g4xx_hal_dac.c **** 
1006:Drivers/STM32G4xx_HAL_Driver/Src/stm32g4xx_hal_dac.c ****   /* NOTE : This function should not be modified, when the callback is needed,
1007:Drivers/STM32G4xx_HAL_Driver/Src/stm32g4xx_hal_dac.c ****             the HAL_DAC_ErrorCallbackCh1 could be implemented in the user file
1008:Drivers/STM32G4xx_HAL_Driver/Src/stm32g4xx_hal_dac.c ****    */
1009:Drivers/STM32G4xx_HAL_Driver/Src/stm32g4xx_hal_dac.c **** }
1010:Drivers/STM32G4xx_HAL_Driver/Src/stm32g4xx_hal_dac.c **** 
1011:Drivers/STM32G4xx_HAL_Driver/Src/stm32g4xx_hal_dac.c **** /**
1012:Drivers/STM32G4xx_HAL_Driver/Src/stm32g4xx_hal_dac.c ****   * @brief  DMA underrun DAC callback for channel1.
1013:Drivers/STM32G4xx_HAL_Driver/Src/stm32g4xx_hal_dac.c ****   * @param  hdac pointer to a DAC_HandleTypeDef structure that contains
1014:Drivers/STM32G4xx_HAL_Driver/Src/stm32g4xx_hal_dac.c ****   *         the configuration information for the specified DAC.
1015:Drivers/STM32G4xx_HAL_Driver/Src/stm32g4xx_hal_dac.c ****   * @retval None
1016:Drivers/STM32G4xx_HAL_Driver/Src/stm32g4xx_hal_dac.c ****   */
1017:Drivers/STM32G4xx_HAL_Driver/Src/stm32g4xx_hal_dac.c **** __weak void HAL_DAC_DMAUnderrunCallbackCh1(DAC_HandleTypeDef *hdac)
1018:Drivers/STM32G4xx_HAL_Driver/Src/stm32g4xx_hal_dac.c **** {
1019:Drivers/STM32G4xx_HAL_Driver/Src/stm32g4xx_hal_dac.c ****   /* Prevent unused argument(s) compilation warning */
1020:Drivers/STM32G4xx_HAL_Driver/Src/stm32g4xx_hal_dac.c ****   UNUSED(hdac);
1021:Drivers/STM32G4xx_HAL_Driver/Src/stm32g4xx_hal_dac.c **** 
1022:Drivers/STM32G4xx_HAL_Driver/Src/stm32g4xx_hal_dac.c ****   /* NOTE : This function should not be modified, when the callback is needed,
1023:Drivers/STM32G4xx_HAL_Driver/Src/stm32g4xx_hal_dac.c ****             the HAL_DAC_DMAUnderrunCallbackCh1 could be implemented in the user file
1024:Drivers/STM32G4xx_HAL_Driver/Src/stm32g4xx_hal_dac.c ****    */
1025:Drivers/STM32G4xx_HAL_Driver/Src/stm32g4xx_hal_dac.c **** }
1026:Drivers/STM32G4xx_HAL_Driver/Src/stm32g4xx_hal_dac.c **** 
1027:Drivers/STM32G4xx_HAL_Driver/Src/stm32g4xx_hal_dac.c **** /**
1028:Drivers/STM32G4xx_HAL_Driver/Src/stm32g4xx_hal_dac.c ****   * @}
1029:Drivers/STM32G4xx_HAL_Driver/Src/stm32g4xx_hal_dac.c ****   */
1030:Drivers/STM32G4xx_HAL_Driver/Src/stm32g4xx_hal_dac.c **** 
1031:Drivers/STM32G4xx_HAL_Driver/Src/stm32g4xx_hal_dac.c **** /** @defgroup DAC_Exported_Functions_Group3 Peripheral Control functions
1032:Drivers/STM32G4xx_HAL_Driver/Src/stm32g4xx_hal_dac.c ****   *  @brief    Peripheral Control functions
1033:Drivers/STM32G4xx_HAL_Driver/Src/stm32g4xx_hal_dac.c ****   *
1034:Drivers/STM32G4xx_HAL_Driver/Src/stm32g4xx_hal_dac.c **** @verbatim
1035:Drivers/STM32G4xx_HAL_Driver/Src/stm32g4xx_hal_dac.c ****   ==============================================================================
1036:Drivers/STM32G4xx_HAL_Driver/Src/stm32g4xx_hal_dac.c ****              ##### Peripheral Control functions #####
1037:Drivers/STM32G4xx_HAL_Driver/Src/stm32g4xx_hal_dac.c ****   ==============================================================================
1038:Drivers/STM32G4xx_HAL_Driver/Src/stm32g4xx_hal_dac.c ****     [..]  This section provides functions allowing to:
1039:Drivers/STM32G4xx_HAL_Driver/Src/stm32g4xx_hal_dac.c ****       (+) Configure channels.
ARM GAS  /tmp/ccHGeJqL.s 			page 35


1040:Drivers/STM32G4xx_HAL_Driver/Src/stm32g4xx_hal_dac.c ****       (+) Set the specified data holding register value for DAC channel.
1041:Drivers/STM32G4xx_HAL_Driver/Src/stm32g4xx_hal_dac.c **** 
1042:Drivers/STM32G4xx_HAL_Driver/Src/stm32g4xx_hal_dac.c **** @endverbatim
1043:Drivers/STM32G4xx_HAL_Driver/Src/stm32g4xx_hal_dac.c ****   * @{
1044:Drivers/STM32G4xx_HAL_Driver/Src/stm32g4xx_hal_dac.c ****   */
1045:Drivers/STM32G4xx_HAL_Driver/Src/stm32g4xx_hal_dac.c **** 
1046:Drivers/STM32G4xx_HAL_Driver/Src/stm32g4xx_hal_dac.c **** /**
1047:Drivers/STM32G4xx_HAL_Driver/Src/stm32g4xx_hal_dac.c ****   * @brief  Returns the last data output value of the selected DAC channel.
1048:Drivers/STM32G4xx_HAL_Driver/Src/stm32g4xx_hal_dac.c ****   * @param  hdac pointer to a DAC_HandleTypeDef structure that contains
1049:Drivers/STM32G4xx_HAL_Driver/Src/stm32g4xx_hal_dac.c ****   *         the configuration information for the specified DAC.
1050:Drivers/STM32G4xx_HAL_Driver/Src/stm32g4xx_hal_dac.c ****   * @param  Channel The selected DAC channel.
1051:Drivers/STM32G4xx_HAL_Driver/Src/stm32g4xx_hal_dac.c ****   *          This parameter can be one of the following values:
1052:Drivers/STM32G4xx_HAL_Driver/Src/stm32g4xx_hal_dac.c ****   *            @arg DAC_CHANNEL_1: DAC Channel1 selected
1053:Drivers/STM32G4xx_HAL_Driver/Src/stm32g4xx_hal_dac.c ****   *            @arg DAC_CHANNEL_2: DAC Channel2 selected (1)
1054:Drivers/STM32G4xx_HAL_Driver/Src/stm32g4xx_hal_dac.c ****   *
1055:Drivers/STM32G4xx_HAL_Driver/Src/stm32g4xx_hal_dac.c ****   *         (1) On this STM32 serie, parameter not available on all instances.
1056:Drivers/STM32G4xx_HAL_Driver/Src/stm32g4xx_hal_dac.c ****   *             Refer to device datasheet for channels availability.
1057:Drivers/STM32G4xx_HAL_Driver/Src/stm32g4xx_hal_dac.c ****   * @retval The selected DAC channel data output value.
1058:Drivers/STM32G4xx_HAL_Driver/Src/stm32g4xx_hal_dac.c ****   */
1059:Drivers/STM32G4xx_HAL_Driver/Src/stm32g4xx_hal_dac.c **** uint32_t HAL_DAC_GetValue(DAC_HandleTypeDef *hdac, uint32_t Channel)
1060:Drivers/STM32G4xx_HAL_Driver/Src/stm32g4xx_hal_dac.c **** {
1061:Drivers/STM32G4xx_HAL_Driver/Src/stm32g4xx_hal_dac.c ****   /* Check the parameters */
1062:Drivers/STM32G4xx_HAL_Driver/Src/stm32g4xx_hal_dac.c ****   assert_param(IS_DAC_CHANNEL(hdac->Instance, Channel));
1063:Drivers/STM32G4xx_HAL_Driver/Src/stm32g4xx_hal_dac.c **** 
1064:Drivers/STM32G4xx_HAL_Driver/Src/stm32g4xx_hal_dac.c ****   /* Returns the DAC channel data output register value */
1065:Drivers/STM32G4xx_HAL_Driver/Src/stm32g4xx_hal_dac.c ****   if (Channel == DAC_CHANNEL_1)
1066:Drivers/STM32G4xx_HAL_Driver/Src/stm32g4xx_hal_dac.c ****   {
1067:Drivers/STM32G4xx_HAL_Driver/Src/stm32g4xx_hal_dac.c ****     return hdac->Instance->DOR1;
1068:Drivers/STM32G4xx_HAL_Driver/Src/stm32g4xx_hal_dac.c ****   }
1069:Drivers/STM32G4xx_HAL_Driver/Src/stm32g4xx_hal_dac.c ****   else
1070:Drivers/STM32G4xx_HAL_Driver/Src/stm32g4xx_hal_dac.c ****   {
1071:Drivers/STM32G4xx_HAL_Driver/Src/stm32g4xx_hal_dac.c ****     return hdac->Instance->DOR2;
1072:Drivers/STM32G4xx_HAL_Driver/Src/stm32g4xx_hal_dac.c ****   }
1073:Drivers/STM32G4xx_HAL_Driver/Src/stm32g4xx_hal_dac.c **** }
1074:Drivers/STM32G4xx_HAL_Driver/Src/stm32g4xx_hal_dac.c **** 
1075:Drivers/STM32G4xx_HAL_Driver/Src/stm32g4xx_hal_dac.c **** /**
1076:Drivers/STM32G4xx_HAL_Driver/Src/stm32g4xx_hal_dac.c ****   * @brief  Configures the selected DAC channel.
1077:Drivers/STM32G4xx_HAL_Driver/Src/stm32g4xx_hal_dac.c ****   * @note   By calling this function, the high frequency interface mode (HFSEL bits)
1078:Drivers/STM32G4xx_HAL_Driver/Src/stm32g4xx_hal_dac.c ****   *         will be set. This parameter scope is the DAC instance. As the function
1079:Drivers/STM32G4xx_HAL_Driver/Src/stm32g4xx_hal_dac.c ****   *         is called for each channel, the @ref DAC_HighFrequency of @arg sConfig
1080:Drivers/STM32G4xx_HAL_Driver/Src/stm32g4xx_hal_dac.c ****   *         must be the same at each call.
1081:Drivers/STM32G4xx_HAL_Driver/Src/stm32g4xx_hal_dac.c ****   *         (or DAC_HIGH_FREQUENCY_INTERFACE_MODE_AUTOMATIC self detect).
1082:Drivers/STM32G4xx_HAL_Driver/Src/stm32g4xx_hal_dac.c ****   * @param  hdac pointer to a DAC_HandleTypeDef structure that contains
1083:Drivers/STM32G4xx_HAL_Driver/Src/stm32g4xx_hal_dac.c ****   *         the configuration information for the specified DAC.
1084:Drivers/STM32G4xx_HAL_Driver/Src/stm32g4xx_hal_dac.c ****   * @param  sConfig DAC configuration structure.
1085:Drivers/STM32G4xx_HAL_Driver/Src/stm32g4xx_hal_dac.c ****   * @param  Channel The selected DAC channel.
1086:Drivers/STM32G4xx_HAL_Driver/Src/stm32g4xx_hal_dac.c ****   *          This parameter can be one of the following values:
1087:Drivers/STM32G4xx_HAL_Driver/Src/stm32g4xx_hal_dac.c ****   *            @arg DAC_CHANNEL_1: DAC Channel1 selected
1088:Drivers/STM32G4xx_HAL_Driver/Src/stm32g4xx_hal_dac.c ****   *            @arg DAC_CHANNEL_2: DAC Channel2 selected (1)
1089:Drivers/STM32G4xx_HAL_Driver/Src/stm32g4xx_hal_dac.c ****   *
1090:Drivers/STM32G4xx_HAL_Driver/Src/stm32g4xx_hal_dac.c ****   *         (1) On this STM32 serie, parameter not available on all instances.
1091:Drivers/STM32G4xx_HAL_Driver/Src/stm32g4xx_hal_dac.c ****   *             Refer to device datasheet for channels availability.
1092:Drivers/STM32G4xx_HAL_Driver/Src/stm32g4xx_hal_dac.c ****   * @retval HAL status
1093:Drivers/STM32G4xx_HAL_Driver/Src/stm32g4xx_hal_dac.c ****   */
1094:Drivers/STM32G4xx_HAL_Driver/Src/stm32g4xx_hal_dac.c **** HAL_StatusTypeDef HAL_DAC_ConfigChannel(DAC_HandleTypeDef *hdac, DAC_ChannelConfTypeDef *sConfig, u
1095:Drivers/STM32G4xx_HAL_Driver/Src/stm32g4xx_hal_dac.c **** {
1096:Drivers/STM32G4xx_HAL_Driver/Src/stm32g4xx_hal_dac.c ****   uint32_t tmpreg1;
ARM GAS  /tmp/ccHGeJqL.s 			page 36


1097:Drivers/STM32G4xx_HAL_Driver/Src/stm32g4xx_hal_dac.c ****   uint32_t tmpreg2;
1098:Drivers/STM32G4xx_HAL_Driver/Src/stm32g4xx_hal_dac.c ****   uint32_t tickstart = 0U;
1099:Drivers/STM32G4xx_HAL_Driver/Src/stm32g4xx_hal_dac.c ****   uint32_t hclkfreq;
1100:Drivers/STM32G4xx_HAL_Driver/Src/stm32g4xx_hal_dac.c ****   uint32_t connectOnChip;
1101:Drivers/STM32G4xx_HAL_Driver/Src/stm32g4xx_hal_dac.c **** 
1102:Drivers/STM32G4xx_HAL_Driver/Src/stm32g4xx_hal_dac.c ****   /* Check the DAC parameters */
1103:Drivers/STM32G4xx_HAL_Driver/Src/stm32g4xx_hal_dac.c ****   assert_param(IS_DAC_HIGH_FREQUENCY_MODE(sConfig->DAC_HighFrequency));
1104:Drivers/STM32G4xx_HAL_Driver/Src/stm32g4xx_hal_dac.c ****   assert_param(IS_DAC_TRIGGER(hdac->Instance, sConfig->DAC_Trigger));
1105:Drivers/STM32G4xx_HAL_Driver/Src/stm32g4xx_hal_dac.c ****   assert_param(IS_DAC_TRIGGER(hdac->Instance, sConfig->DAC_Trigger2));
1106:Drivers/STM32G4xx_HAL_Driver/Src/stm32g4xx_hal_dac.c ****   assert_param(IS_DAC_OUTPUT_BUFFER_STATE(sConfig->DAC_OutputBuffer));
1107:Drivers/STM32G4xx_HAL_Driver/Src/stm32g4xx_hal_dac.c ****   assert_param(IS_DAC_CHIP_CONNECTION(sConfig->DAC_ConnectOnChipPeripheral));
1108:Drivers/STM32G4xx_HAL_Driver/Src/stm32g4xx_hal_dac.c ****   assert_param(IS_DAC_TRIMMING(sConfig->DAC_UserTrimming));
1109:Drivers/STM32G4xx_HAL_Driver/Src/stm32g4xx_hal_dac.c ****   if ((sConfig->DAC_UserTrimming) == DAC_TRIMMING_USER)
1110:Drivers/STM32G4xx_HAL_Driver/Src/stm32g4xx_hal_dac.c ****   {
1111:Drivers/STM32G4xx_HAL_Driver/Src/stm32g4xx_hal_dac.c ****     assert_param(IS_DAC_TRIMMINGVALUE(sConfig->DAC_TrimmingValue));
1112:Drivers/STM32G4xx_HAL_Driver/Src/stm32g4xx_hal_dac.c ****   }
1113:Drivers/STM32G4xx_HAL_Driver/Src/stm32g4xx_hal_dac.c ****   assert_param(IS_DAC_SAMPLEANDHOLD(sConfig->DAC_SampleAndHold));
1114:Drivers/STM32G4xx_HAL_Driver/Src/stm32g4xx_hal_dac.c ****   if ((sConfig->DAC_SampleAndHold) == DAC_SAMPLEANDHOLD_ENABLE)
1115:Drivers/STM32G4xx_HAL_Driver/Src/stm32g4xx_hal_dac.c ****   {
1116:Drivers/STM32G4xx_HAL_Driver/Src/stm32g4xx_hal_dac.c ****     assert_param(IS_DAC_SAMPLETIME(sConfig->DAC_SampleAndHoldConfig.DAC_SampleTime));
1117:Drivers/STM32G4xx_HAL_Driver/Src/stm32g4xx_hal_dac.c ****     assert_param(IS_DAC_HOLDTIME(sConfig->DAC_SampleAndHoldConfig.DAC_HoldTime));
1118:Drivers/STM32G4xx_HAL_Driver/Src/stm32g4xx_hal_dac.c ****     assert_param(IS_DAC_REFRESHTIME(sConfig->DAC_SampleAndHoldConfig.DAC_RefreshTime));
1119:Drivers/STM32G4xx_HAL_Driver/Src/stm32g4xx_hal_dac.c ****   }
1120:Drivers/STM32G4xx_HAL_Driver/Src/stm32g4xx_hal_dac.c ****   assert_param(IS_DAC_CHANNEL(hdac->Instance, Channel));
1121:Drivers/STM32G4xx_HAL_Driver/Src/stm32g4xx_hal_dac.c ****   assert_param(IS_FUNCTIONAL_STATE(sConfig->DAC_DMADoubleDataMode));
1122:Drivers/STM32G4xx_HAL_Driver/Src/stm32g4xx_hal_dac.c ****   assert_param(IS_FUNCTIONAL_STATE(sConfig->DAC_SignedFormat));
1123:Drivers/STM32G4xx_HAL_Driver/Src/stm32g4xx_hal_dac.c **** 
1124:Drivers/STM32G4xx_HAL_Driver/Src/stm32g4xx_hal_dac.c ****   /* Process locked */
1125:Drivers/STM32G4xx_HAL_Driver/Src/stm32g4xx_hal_dac.c ****   __HAL_LOCK(hdac);
1126:Drivers/STM32G4xx_HAL_Driver/Src/stm32g4xx_hal_dac.c **** 
1127:Drivers/STM32G4xx_HAL_Driver/Src/stm32g4xx_hal_dac.c ****   /* Change DAC state */
1128:Drivers/STM32G4xx_HAL_Driver/Src/stm32g4xx_hal_dac.c ****   hdac->State = HAL_DAC_STATE_BUSY;
1129:Drivers/STM32G4xx_HAL_Driver/Src/stm32g4xx_hal_dac.c **** 
1130:Drivers/STM32G4xx_HAL_Driver/Src/stm32g4xx_hal_dac.c ****   if (sConfig->DAC_SampleAndHold == DAC_SAMPLEANDHOLD_ENABLE)
1131:Drivers/STM32G4xx_HAL_Driver/Src/stm32g4xx_hal_dac.c ****     /* Sample on old configuration */
1132:Drivers/STM32G4xx_HAL_Driver/Src/stm32g4xx_hal_dac.c ****   {
1133:Drivers/STM32G4xx_HAL_Driver/Src/stm32g4xx_hal_dac.c ****     /* SampleTime */
1134:Drivers/STM32G4xx_HAL_Driver/Src/stm32g4xx_hal_dac.c ****     if (Channel == DAC_CHANNEL_1)
1135:Drivers/STM32G4xx_HAL_Driver/Src/stm32g4xx_hal_dac.c ****     {
1136:Drivers/STM32G4xx_HAL_Driver/Src/stm32g4xx_hal_dac.c ****       /* Get timeout */
1137:Drivers/STM32G4xx_HAL_Driver/Src/stm32g4xx_hal_dac.c ****       tickstart = HAL_GetTick();
1138:Drivers/STM32G4xx_HAL_Driver/Src/stm32g4xx_hal_dac.c **** 
1139:Drivers/STM32G4xx_HAL_Driver/Src/stm32g4xx_hal_dac.c ****       /* SHSR1 can be written when BWST1 is cleared */
1140:Drivers/STM32G4xx_HAL_Driver/Src/stm32g4xx_hal_dac.c ****       while (((hdac->Instance->SR) & DAC_SR_BWST1) != 0UL)
1141:Drivers/STM32G4xx_HAL_Driver/Src/stm32g4xx_hal_dac.c ****       {
1142:Drivers/STM32G4xx_HAL_Driver/Src/stm32g4xx_hal_dac.c ****         /* Check for the Timeout */
1143:Drivers/STM32G4xx_HAL_Driver/Src/stm32g4xx_hal_dac.c ****         if ((HAL_GetTick() - tickstart) > TIMEOUT_DAC_CALIBCONFIG)
1144:Drivers/STM32G4xx_HAL_Driver/Src/stm32g4xx_hal_dac.c ****         {
1145:Drivers/STM32G4xx_HAL_Driver/Src/stm32g4xx_hal_dac.c ****           /* Update error code */
1146:Drivers/STM32G4xx_HAL_Driver/Src/stm32g4xx_hal_dac.c ****           SET_BIT(hdac->ErrorCode, HAL_DAC_ERROR_TIMEOUT);
1147:Drivers/STM32G4xx_HAL_Driver/Src/stm32g4xx_hal_dac.c **** 
1148:Drivers/STM32G4xx_HAL_Driver/Src/stm32g4xx_hal_dac.c ****           /* Change the DMA state */
1149:Drivers/STM32G4xx_HAL_Driver/Src/stm32g4xx_hal_dac.c ****           hdac->State = HAL_DAC_STATE_TIMEOUT;
1150:Drivers/STM32G4xx_HAL_Driver/Src/stm32g4xx_hal_dac.c **** 
1151:Drivers/STM32G4xx_HAL_Driver/Src/stm32g4xx_hal_dac.c ****           return HAL_TIMEOUT;
1152:Drivers/STM32G4xx_HAL_Driver/Src/stm32g4xx_hal_dac.c ****         }
1153:Drivers/STM32G4xx_HAL_Driver/Src/stm32g4xx_hal_dac.c ****       }
ARM GAS  /tmp/ccHGeJqL.s 			page 37


1154:Drivers/STM32G4xx_HAL_Driver/Src/stm32g4xx_hal_dac.c ****       HAL_Delay(1);
1155:Drivers/STM32G4xx_HAL_Driver/Src/stm32g4xx_hal_dac.c ****       hdac->Instance->SHSR1 = sConfig->DAC_SampleAndHoldConfig.DAC_SampleTime;
1156:Drivers/STM32G4xx_HAL_Driver/Src/stm32g4xx_hal_dac.c ****     }
1157:Drivers/STM32G4xx_HAL_Driver/Src/stm32g4xx_hal_dac.c ****     else /* Channel 2 */
1158:Drivers/STM32G4xx_HAL_Driver/Src/stm32g4xx_hal_dac.c ****     {
1159:Drivers/STM32G4xx_HAL_Driver/Src/stm32g4xx_hal_dac.c ****       /* SHSR2 can be written when BWST2 is cleared */
1160:Drivers/STM32G4xx_HAL_Driver/Src/stm32g4xx_hal_dac.c **** 
1161:Drivers/STM32G4xx_HAL_Driver/Src/stm32g4xx_hal_dac.c ****       while (((hdac->Instance->SR) & DAC_SR_BWST2) != 0UL)
1162:Drivers/STM32G4xx_HAL_Driver/Src/stm32g4xx_hal_dac.c ****       {
1163:Drivers/STM32G4xx_HAL_Driver/Src/stm32g4xx_hal_dac.c ****         /* Check for the Timeout */
1164:Drivers/STM32G4xx_HAL_Driver/Src/stm32g4xx_hal_dac.c ****         if ((HAL_GetTick() - tickstart) > TIMEOUT_DAC_CALIBCONFIG)
1165:Drivers/STM32G4xx_HAL_Driver/Src/stm32g4xx_hal_dac.c ****         {
1166:Drivers/STM32G4xx_HAL_Driver/Src/stm32g4xx_hal_dac.c ****           /* Update error code */
1167:Drivers/STM32G4xx_HAL_Driver/Src/stm32g4xx_hal_dac.c ****           SET_BIT(hdac->ErrorCode, HAL_DAC_ERROR_TIMEOUT);
1168:Drivers/STM32G4xx_HAL_Driver/Src/stm32g4xx_hal_dac.c **** 
1169:Drivers/STM32G4xx_HAL_Driver/Src/stm32g4xx_hal_dac.c ****           /* Change the DMA state */
1170:Drivers/STM32G4xx_HAL_Driver/Src/stm32g4xx_hal_dac.c ****           hdac->State = HAL_DAC_STATE_TIMEOUT;
1171:Drivers/STM32G4xx_HAL_Driver/Src/stm32g4xx_hal_dac.c **** 
1172:Drivers/STM32G4xx_HAL_Driver/Src/stm32g4xx_hal_dac.c ****           return HAL_TIMEOUT;
1173:Drivers/STM32G4xx_HAL_Driver/Src/stm32g4xx_hal_dac.c ****         }
1174:Drivers/STM32G4xx_HAL_Driver/Src/stm32g4xx_hal_dac.c ****       }
1175:Drivers/STM32G4xx_HAL_Driver/Src/stm32g4xx_hal_dac.c ****       HAL_Delay(1U);
1176:Drivers/STM32G4xx_HAL_Driver/Src/stm32g4xx_hal_dac.c ****       hdac->Instance->SHSR2 = sConfig->DAC_SampleAndHoldConfig.DAC_SampleTime;
1177:Drivers/STM32G4xx_HAL_Driver/Src/stm32g4xx_hal_dac.c ****     }
1178:Drivers/STM32G4xx_HAL_Driver/Src/stm32g4xx_hal_dac.c **** 
1179:Drivers/STM32G4xx_HAL_Driver/Src/stm32g4xx_hal_dac.c ****     /* HoldTime */
1180:Drivers/STM32G4xx_HAL_Driver/Src/stm32g4xx_hal_dac.c ****     MODIFY_REG(hdac->Instance->SHHR, DAC_SHHR_THOLD1 << (Channel & 0x10UL), (sConfig->DAC_SampleAnd
1181:Drivers/STM32G4xx_HAL_Driver/Src/stm32g4xx_hal_dac.c ****     /* RefreshTime */
1182:Drivers/STM32G4xx_HAL_Driver/Src/stm32g4xx_hal_dac.c ****     MODIFY_REG(hdac->Instance->SHRR, DAC_SHRR_TREFRESH1 << (Channel & 0x10UL), (sConfig->DAC_Sample
1183:Drivers/STM32G4xx_HAL_Driver/Src/stm32g4xx_hal_dac.c ****   }
1184:Drivers/STM32G4xx_HAL_Driver/Src/stm32g4xx_hal_dac.c **** 
1185:Drivers/STM32G4xx_HAL_Driver/Src/stm32g4xx_hal_dac.c ****   if (sConfig->DAC_UserTrimming == DAC_TRIMMING_USER)
1186:Drivers/STM32G4xx_HAL_Driver/Src/stm32g4xx_hal_dac.c ****     /* USER TRIMMING */
1187:Drivers/STM32G4xx_HAL_Driver/Src/stm32g4xx_hal_dac.c ****   {
1188:Drivers/STM32G4xx_HAL_Driver/Src/stm32g4xx_hal_dac.c ****     /* Get the DAC CCR value */
1189:Drivers/STM32G4xx_HAL_Driver/Src/stm32g4xx_hal_dac.c ****     tmpreg1 = hdac->Instance->CCR;
1190:Drivers/STM32G4xx_HAL_Driver/Src/stm32g4xx_hal_dac.c ****     /* Clear trimming value */
1191:Drivers/STM32G4xx_HAL_Driver/Src/stm32g4xx_hal_dac.c ****     tmpreg1 &= ~(((uint32_t)(DAC_CCR_OTRIM1)) << (Channel & 0x10UL));
1192:Drivers/STM32G4xx_HAL_Driver/Src/stm32g4xx_hal_dac.c ****     /* Configure for the selected trimming offset */
1193:Drivers/STM32G4xx_HAL_Driver/Src/stm32g4xx_hal_dac.c ****     tmpreg2 = sConfig->DAC_TrimmingValue;
1194:Drivers/STM32G4xx_HAL_Driver/Src/stm32g4xx_hal_dac.c ****     /* Calculate CCR register value depending on DAC_Channel */
1195:Drivers/STM32G4xx_HAL_Driver/Src/stm32g4xx_hal_dac.c ****     tmpreg1 |= tmpreg2 << (Channel & 0x10UL);
1196:Drivers/STM32G4xx_HAL_Driver/Src/stm32g4xx_hal_dac.c ****     /* Write to DAC CCR */
1197:Drivers/STM32G4xx_HAL_Driver/Src/stm32g4xx_hal_dac.c ****     hdac->Instance->CCR = tmpreg1;
1198:Drivers/STM32G4xx_HAL_Driver/Src/stm32g4xx_hal_dac.c ****   }
1199:Drivers/STM32G4xx_HAL_Driver/Src/stm32g4xx_hal_dac.c ****   /* else factory trimming is used (factory setting are available at reset)*/
1200:Drivers/STM32G4xx_HAL_Driver/Src/stm32g4xx_hal_dac.c ****   /* SW Nothing has nothing to do */
1201:Drivers/STM32G4xx_HAL_Driver/Src/stm32g4xx_hal_dac.c **** 
1202:Drivers/STM32G4xx_HAL_Driver/Src/stm32g4xx_hal_dac.c ****   /* Get the DAC MCR value */
1203:Drivers/STM32G4xx_HAL_Driver/Src/stm32g4xx_hal_dac.c ****   tmpreg1 = hdac->Instance->MCR;
1204:Drivers/STM32G4xx_HAL_Driver/Src/stm32g4xx_hal_dac.c ****   /* Clear DAC_MCR_MODEx bits */
1205:Drivers/STM32G4xx_HAL_Driver/Src/stm32g4xx_hal_dac.c ****   tmpreg1 &= ~(((uint32_t)(DAC_MCR_MODE1)) << (Channel & 0x10UL));
1206:Drivers/STM32G4xx_HAL_Driver/Src/stm32g4xx_hal_dac.c ****   /* Configure for the selected DAC channel: mode, buffer output & on chip peripheral connect */
1207:Drivers/STM32G4xx_HAL_Driver/Src/stm32g4xx_hal_dac.c ****   if ((sConfig->DAC_ConnectOnChipPeripheral & DAC_CHIPCONNECT_EXTERNAL) == DAC_CHIPCONNECT_EXTERNAL
1208:Drivers/STM32G4xx_HAL_Driver/Src/stm32g4xx_hal_dac.c ****   {
1209:Drivers/STM32G4xx_HAL_Driver/Src/stm32g4xx_hal_dac.c ****     connectOnChip = 0x00000000UL;
1210:Drivers/STM32G4xx_HAL_Driver/Src/stm32g4xx_hal_dac.c ****   }
ARM GAS  /tmp/ccHGeJqL.s 			page 38


1211:Drivers/STM32G4xx_HAL_Driver/Src/stm32g4xx_hal_dac.c ****   else if ((sConfig->DAC_ConnectOnChipPeripheral & DAC_CHIPCONNECT_INTERNAL) == DAC_CHIPCONNECT_INT
1212:Drivers/STM32G4xx_HAL_Driver/Src/stm32g4xx_hal_dac.c ****   {
1213:Drivers/STM32G4xx_HAL_Driver/Src/stm32g4xx_hal_dac.c ****     connectOnChip = DAC_MCR_MODE1_0;
1214:Drivers/STM32G4xx_HAL_Driver/Src/stm32g4xx_hal_dac.c ****   }
1215:Drivers/STM32G4xx_HAL_Driver/Src/stm32g4xx_hal_dac.c ****   else /* (sConfig->DAC_ConnectOnChipPeripheral & DAC_CHIPCONNECT_BOTH) == DAC_CHIPCONNECT_BOTH */
1216:Drivers/STM32G4xx_HAL_Driver/Src/stm32g4xx_hal_dac.c ****   {
1217:Drivers/STM32G4xx_HAL_Driver/Src/stm32g4xx_hal_dac.c ****     if (sConfig->DAC_OutputBuffer == DAC_OUTPUTBUFFER_ENABLE)
1218:Drivers/STM32G4xx_HAL_Driver/Src/stm32g4xx_hal_dac.c ****     {
1219:Drivers/STM32G4xx_HAL_Driver/Src/stm32g4xx_hal_dac.c ****       connectOnChip = DAC_MCR_MODE1_0;
1220:Drivers/STM32G4xx_HAL_Driver/Src/stm32g4xx_hal_dac.c ****     }
1221:Drivers/STM32G4xx_HAL_Driver/Src/stm32g4xx_hal_dac.c ****     else
1222:Drivers/STM32G4xx_HAL_Driver/Src/stm32g4xx_hal_dac.c ****     {
1223:Drivers/STM32G4xx_HAL_Driver/Src/stm32g4xx_hal_dac.c ****       connectOnChip = 0x00000000UL;
1224:Drivers/STM32G4xx_HAL_Driver/Src/stm32g4xx_hal_dac.c ****     }
1225:Drivers/STM32G4xx_HAL_Driver/Src/stm32g4xx_hal_dac.c ****   }
1226:Drivers/STM32G4xx_HAL_Driver/Src/stm32g4xx_hal_dac.c ****   tmpreg2 = (sConfig->DAC_SampleAndHold | sConfig->DAC_OutputBuffer | connectOnChip);
1227:Drivers/STM32G4xx_HAL_Driver/Src/stm32g4xx_hal_dac.c ****   /* Clear DAC_MCR_DMADOUBLEx */
1228:Drivers/STM32G4xx_HAL_Driver/Src/stm32g4xx_hal_dac.c ****   tmpreg1 &= ~(((uint32_t)(DAC_MCR_DMADOUBLE1)) << (Channel & 0x10UL));
1229:Drivers/STM32G4xx_HAL_Driver/Src/stm32g4xx_hal_dac.c ****   /* Configure for the selected DAC channel: DMA double data mode */
1230:Drivers/STM32G4xx_HAL_Driver/Src/stm32g4xx_hal_dac.c ****   tmpreg2 |= (sConfig->DAC_DMADoubleDataMode == ENABLE) ? DAC_MCR_DMADOUBLE1 : 0UL;
1231:Drivers/STM32G4xx_HAL_Driver/Src/stm32g4xx_hal_dac.c ****   /* Clear DAC_MCR_SINFORMATx */
1232:Drivers/STM32G4xx_HAL_Driver/Src/stm32g4xx_hal_dac.c ****   tmpreg1 &= ~(((uint32_t)(DAC_MCR_SINFORMAT1)) << (Channel & 0x10UL));
1233:Drivers/STM32G4xx_HAL_Driver/Src/stm32g4xx_hal_dac.c ****   /* Configure for the selected DAC channel: Signed format */
1234:Drivers/STM32G4xx_HAL_Driver/Src/stm32g4xx_hal_dac.c ****   tmpreg2 |= (sConfig->DAC_SignedFormat == ENABLE) ? DAC_MCR_SINFORMAT1 : 0UL;
1235:Drivers/STM32G4xx_HAL_Driver/Src/stm32g4xx_hal_dac.c ****   /* Clear DAC_MCR_HFSEL bits */
1236:Drivers/STM32G4xx_HAL_Driver/Src/stm32g4xx_hal_dac.c ****   tmpreg1 &= ~(DAC_MCR_HFSEL);
1237:Drivers/STM32G4xx_HAL_Driver/Src/stm32g4xx_hal_dac.c ****   /* Configure for both DAC channels: high frequency mode */
1238:Drivers/STM32G4xx_HAL_Driver/Src/stm32g4xx_hal_dac.c ****   if (DAC_HIGH_FREQUENCY_INTERFACE_MODE_AUTOMATIC == sConfig->DAC_HighFrequency)
1239:Drivers/STM32G4xx_HAL_Driver/Src/stm32g4xx_hal_dac.c ****   {
1240:Drivers/STM32G4xx_HAL_Driver/Src/stm32g4xx_hal_dac.c ****     hclkfreq = HAL_RCC_GetHCLKFreq();
1241:Drivers/STM32G4xx_HAL_Driver/Src/stm32g4xx_hal_dac.c ****     if (hclkfreq > HFSEL_ENABLE_THRESHOLD_160MHZ)
1242:Drivers/STM32G4xx_HAL_Driver/Src/stm32g4xx_hal_dac.c ****     {
1243:Drivers/STM32G4xx_HAL_Driver/Src/stm32g4xx_hal_dac.c ****       tmpreg1 |= DAC_HIGH_FREQUENCY_INTERFACE_MODE_ABOVE_160MHZ;
1244:Drivers/STM32G4xx_HAL_Driver/Src/stm32g4xx_hal_dac.c ****     }
1245:Drivers/STM32G4xx_HAL_Driver/Src/stm32g4xx_hal_dac.c ****     else if (hclkfreq > HFSEL_ENABLE_THRESHOLD_80MHZ)
1246:Drivers/STM32G4xx_HAL_Driver/Src/stm32g4xx_hal_dac.c ****     {
1247:Drivers/STM32G4xx_HAL_Driver/Src/stm32g4xx_hal_dac.c ****       tmpreg1 |= DAC_HIGH_FREQUENCY_INTERFACE_MODE_ABOVE_80MHZ;
1248:Drivers/STM32G4xx_HAL_Driver/Src/stm32g4xx_hal_dac.c ****     }
1249:Drivers/STM32G4xx_HAL_Driver/Src/stm32g4xx_hal_dac.c ****     else
1250:Drivers/STM32G4xx_HAL_Driver/Src/stm32g4xx_hal_dac.c ****     {
1251:Drivers/STM32G4xx_HAL_Driver/Src/stm32g4xx_hal_dac.c ****       tmpreg1 |= DAC_HIGH_FREQUENCY_INTERFACE_MODE_DISABLE;
1252:Drivers/STM32G4xx_HAL_Driver/Src/stm32g4xx_hal_dac.c ****     }
1253:Drivers/STM32G4xx_HAL_Driver/Src/stm32g4xx_hal_dac.c ****   }
1254:Drivers/STM32G4xx_HAL_Driver/Src/stm32g4xx_hal_dac.c ****   else
1255:Drivers/STM32G4xx_HAL_Driver/Src/stm32g4xx_hal_dac.c ****   {
1256:Drivers/STM32G4xx_HAL_Driver/Src/stm32g4xx_hal_dac.c ****     tmpreg1 |= sConfig->DAC_HighFrequency;
1257:Drivers/STM32G4xx_HAL_Driver/Src/stm32g4xx_hal_dac.c ****   }
1258:Drivers/STM32G4xx_HAL_Driver/Src/stm32g4xx_hal_dac.c ****   /* Calculate MCR register value depending on DAC_Channel */
1259:Drivers/STM32G4xx_HAL_Driver/Src/stm32g4xx_hal_dac.c ****   tmpreg1 |= tmpreg2 << (Channel & 0x10UL);
1260:Drivers/STM32G4xx_HAL_Driver/Src/stm32g4xx_hal_dac.c ****   /* Write to DAC MCR */
1261:Drivers/STM32G4xx_HAL_Driver/Src/stm32g4xx_hal_dac.c ****   hdac->Instance->MCR = tmpreg1;
1262:Drivers/STM32G4xx_HAL_Driver/Src/stm32g4xx_hal_dac.c **** 
1263:Drivers/STM32G4xx_HAL_Driver/Src/stm32g4xx_hal_dac.c ****   /* DAC in normal operating mode hence clear DAC_CR_CENx bit */
1264:Drivers/STM32G4xx_HAL_Driver/Src/stm32g4xx_hal_dac.c ****   CLEAR_BIT(hdac->Instance->CR, DAC_CR_CEN1 << (Channel & 0x10UL));
1265:Drivers/STM32G4xx_HAL_Driver/Src/stm32g4xx_hal_dac.c **** 
1266:Drivers/STM32G4xx_HAL_Driver/Src/stm32g4xx_hal_dac.c ****   /* Get the DAC CR value */
1267:Drivers/STM32G4xx_HAL_Driver/Src/stm32g4xx_hal_dac.c ****   tmpreg1 = hdac->Instance->CR;
ARM GAS  /tmp/ccHGeJqL.s 			page 39


1268:Drivers/STM32G4xx_HAL_Driver/Src/stm32g4xx_hal_dac.c ****   /* Clear TENx, TSELx, WAVEx and MAMPx bits */
1269:Drivers/STM32G4xx_HAL_Driver/Src/stm32g4xx_hal_dac.c ****   tmpreg1 &= ~(((uint32_t)(DAC_CR_MAMP1 | DAC_CR_WAVE1 | DAC_CR_TSEL1 | DAC_CR_TEN1)) << (Channel &
1270:Drivers/STM32G4xx_HAL_Driver/Src/stm32g4xx_hal_dac.c ****   /* Configure for the selected DAC channel: trigger */
1271:Drivers/STM32G4xx_HAL_Driver/Src/stm32g4xx_hal_dac.c ****   /* Set TSELx and TENx bits according to DAC_Trigger value */
1272:Drivers/STM32G4xx_HAL_Driver/Src/stm32g4xx_hal_dac.c ****   tmpreg2 = sConfig->DAC_Trigger;
1273:Drivers/STM32G4xx_HAL_Driver/Src/stm32g4xx_hal_dac.c ****   /* Calculate CR register value depending on DAC_Channel */
1274:Drivers/STM32G4xx_HAL_Driver/Src/stm32g4xx_hal_dac.c ****   tmpreg1 |= tmpreg2 << (Channel & 0x10UL);
1275:Drivers/STM32G4xx_HAL_Driver/Src/stm32g4xx_hal_dac.c ****   /* Write to DAC CR */
1276:Drivers/STM32G4xx_HAL_Driver/Src/stm32g4xx_hal_dac.c ****   hdac->Instance->CR = tmpreg1;
1277:Drivers/STM32G4xx_HAL_Driver/Src/stm32g4xx_hal_dac.c ****   /* Disable wave generation */
1278:Drivers/STM32G4xx_HAL_Driver/Src/stm32g4xx_hal_dac.c ****   hdac->Instance->CR &= ~(DAC_CR_WAVE1 << (Channel & 0x10UL));
1279:Drivers/STM32G4xx_HAL_Driver/Src/stm32g4xx_hal_dac.c **** 
1280:Drivers/STM32G4xx_HAL_Driver/Src/stm32g4xx_hal_dac.c ****   /* Set STRSTTRIGSELx and STINCTRIGSELx bits according to DAC_Trigger & DAC_Trigger2 values */
1281:Drivers/STM32G4xx_HAL_Driver/Src/stm32g4xx_hal_dac.c ****   tmpreg2 = ((sConfig->DAC_Trigger & DAC_CR_TSEL1) >> DAC_CR_TSEL1_Pos) << DAC_STMODR_STRSTTRIGSEL1
1282:Drivers/STM32G4xx_HAL_Driver/Src/stm32g4xx_hal_dac.c ****   tmpreg2 |= ((sConfig->DAC_Trigger2 & DAC_CR_TSEL1) >> DAC_CR_TSEL1_Pos) << DAC_STMODR_STINCTRIGSE
1283:Drivers/STM32G4xx_HAL_Driver/Src/stm32g4xx_hal_dac.c ****   /* Modify STMODR register value depending on DAC_Channel */
1284:Drivers/STM32G4xx_HAL_Driver/Src/stm32g4xx_hal_dac.c ****   MODIFY_REG(hdac->Instance->STMODR, (DAC_STMODR_STINCTRIGSEL1 | DAC_STMODR_STRSTTRIGSEL1) << (Chan
1285:Drivers/STM32G4xx_HAL_Driver/Src/stm32g4xx_hal_dac.c ****   /* Change DAC state */
1286:Drivers/STM32G4xx_HAL_Driver/Src/stm32g4xx_hal_dac.c ****   hdac->State = HAL_DAC_STATE_READY;
1287:Drivers/STM32G4xx_HAL_Driver/Src/stm32g4xx_hal_dac.c **** 
1288:Drivers/STM32G4xx_HAL_Driver/Src/stm32g4xx_hal_dac.c ****   /* Process unlocked */
1289:Drivers/STM32G4xx_HAL_Driver/Src/stm32g4xx_hal_dac.c ****   __HAL_UNLOCK(hdac);
1290:Drivers/STM32G4xx_HAL_Driver/Src/stm32g4xx_hal_dac.c **** 
1291:Drivers/STM32G4xx_HAL_Driver/Src/stm32g4xx_hal_dac.c ****   /* Return function status */
1292:Drivers/STM32G4xx_HAL_Driver/Src/stm32g4xx_hal_dac.c ****   return HAL_OK;
1293:Drivers/STM32G4xx_HAL_Driver/Src/stm32g4xx_hal_dac.c **** }
1294:Drivers/STM32G4xx_HAL_Driver/Src/stm32g4xx_hal_dac.c **** 
1295:Drivers/STM32G4xx_HAL_Driver/Src/stm32g4xx_hal_dac.c **** /**
1296:Drivers/STM32G4xx_HAL_Driver/Src/stm32g4xx_hal_dac.c ****   * @}
1297:Drivers/STM32G4xx_HAL_Driver/Src/stm32g4xx_hal_dac.c ****   */
1298:Drivers/STM32G4xx_HAL_Driver/Src/stm32g4xx_hal_dac.c **** 
1299:Drivers/STM32G4xx_HAL_Driver/Src/stm32g4xx_hal_dac.c **** /** @defgroup DAC_Exported_Functions_Group4 Peripheral State and Errors functions
1300:Drivers/STM32G4xx_HAL_Driver/Src/stm32g4xx_hal_dac.c ****   *  @brief   Peripheral State and Errors functions
1301:Drivers/STM32G4xx_HAL_Driver/Src/stm32g4xx_hal_dac.c ****   *
1302:Drivers/STM32G4xx_HAL_Driver/Src/stm32g4xx_hal_dac.c **** @verbatim
1303:Drivers/STM32G4xx_HAL_Driver/Src/stm32g4xx_hal_dac.c ****   ==============================================================================
1304:Drivers/STM32G4xx_HAL_Driver/Src/stm32g4xx_hal_dac.c ****             ##### Peripheral State and Errors functions #####
1305:Drivers/STM32G4xx_HAL_Driver/Src/stm32g4xx_hal_dac.c ****   ==============================================================================
1306:Drivers/STM32G4xx_HAL_Driver/Src/stm32g4xx_hal_dac.c ****     [..]
1307:Drivers/STM32G4xx_HAL_Driver/Src/stm32g4xx_hal_dac.c ****     This subsection provides functions allowing to
1308:Drivers/STM32G4xx_HAL_Driver/Src/stm32g4xx_hal_dac.c ****       (+) Check the DAC state.
1309:Drivers/STM32G4xx_HAL_Driver/Src/stm32g4xx_hal_dac.c ****       (+) Check the DAC Errors.
1310:Drivers/STM32G4xx_HAL_Driver/Src/stm32g4xx_hal_dac.c **** 
1311:Drivers/STM32G4xx_HAL_Driver/Src/stm32g4xx_hal_dac.c **** @endverbatim
1312:Drivers/STM32G4xx_HAL_Driver/Src/stm32g4xx_hal_dac.c ****   * @{
1313:Drivers/STM32G4xx_HAL_Driver/Src/stm32g4xx_hal_dac.c ****   */
1314:Drivers/STM32G4xx_HAL_Driver/Src/stm32g4xx_hal_dac.c **** 
1315:Drivers/STM32G4xx_HAL_Driver/Src/stm32g4xx_hal_dac.c **** /**
1316:Drivers/STM32G4xx_HAL_Driver/Src/stm32g4xx_hal_dac.c ****   * @brief  return the DAC handle state
1317:Drivers/STM32G4xx_HAL_Driver/Src/stm32g4xx_hal_dac.c ****   * @param  hdac pointer to a DAC_HandleTypeDef structure that contains
1318:Drivers/STM32G4xx_HAL_Driver/Src/stm32g4xx_hal_dac.c ****   *         the configuration information for the specified DAC.
1319:Drivers/STM32G4xx_HAL_Driver/Src/stm32g4xx_hal_dac.c ****   * @retval HAL state
1320:Drivers/STM32G4xx_HAL_Driver/Src/stm32g4xx_hal_dac.c ****   */
1321:Drivers/STM32G4xx_HAL_Driver/Src/stm32g4xx_hal_dac.c **** HAL_DAC_StateTypeDef HAL_DAC_GetState(DAC_HandleTypeDef *hdac)
1322:Drivers/STM32G4xx_HAL_Driver/Src/stm32g4xx_hal_dac.c **** {
1323:Drivers/STM32G4xx_HAL_Driver/Src/stm32g4xx_hal_dac.c ****   /* Return DAC handle state */
1324:Drivers/STM32G4xx_HAL_Driver/Src/stm32g4xx_hal_dac.c ****   return hdac->State;
ARM GAS  /tmp/ccHGeJqL.s 			page 40


1325:Drivers/STM32G4xx_HAL_Driver/Src/stm32g4xx_hal_dac.c **** }
1326:Drivers/STM32G4xx_HAL_Driver/Src/stm32g4xx_hal_dac.c **** 
1327:Drivers/STM32G4xx_HAL_Driver/Src/stm32g4xx_hal_dac.c **** 
1328:Drivers/STM32G4xx_HAL_Driver/Src/stm32g4xx_hal_dac.c **** /**
1329:Drivers/STM32G4xx_HAL_Driver/Src/stm32g4xx_hal_dac.c ****   * @brief  Return the DAC error code
1330:Drivers/STM32G4xx_HAL_Driver/Src/stm32g4xx_hal_dac.c ****   * @param  hdac pointer to a DAC_HandleTypeDef structure that contains
1331:Drivers/STM32G4xx_HAL_Driver/Src/stm32g4xx_hal_dac.c ****   *         the configuration information for the specified DAC.
1332:Drivers/STM32G4xx_HAL_Driver/Src/stm32g4xx_hal_dac.c ****   * @retval DAC Error Code
1333:Drivers/STM32G4xx_HAL_Driver/Src/stm32g4xx_hal_dac.c ****   */
1334:Drivers/STM32G4xx_HAL_Driver/Src/stm32g4xx_hal_dac.c **** uint32_t HAL_DAC_GetError(DAC_HandleTypeDef *hdac)
1335:Drivers/STM32G4xx_HAL_Driver/Src/stm32g4xx_hal_dac.c **** {
1336:Drivers/STM32G4xx_HAL_Driver/Src/stm32g4xx_hal_dac.c ****   return hdac->ErrorCode;
1337:Drivers/STM32G4xx_HAL_Driver/Src/stm32g4xx_hal_dac.c **** }
1338:Drivers/STM32G4xx_HAL_Driver/Src/stm32g4xx_hal_dac.c **** 
1339:Drivers/STM32G4xx_HAL_Driver/Src/stm32g4xx_hal_dac.c **** /**
1340:Drivers/STM32G4xx_HAL_Driver/Src/stm32g4xx_hal_dac.c ****   * @}
1341:Drivers/STM32G4xx_HAL_Driver/Src/stm32g4xx_hal_dac.c ****   */
1342:Drivers/STM32G4xx_HAL_Driver/Src/stm32g4xx_hal_dac.c **** 
1343:Drivers/STM32G4xx_HAL_Driver/Src/stm32g4xx_hal_dac.c **** /**
1344:Drivers/STM32G4xx_HAL_Driver/Src/stm32g4xx_hal_dac.c ****   * @}
1345:Drivers/STM32G4xx_HAL_Driver/Src/stm32g4xx_hal_dac.c ****   */
1346:Drivers/STM32G4xx_HAL_Driver/Src/stm32g4xx_hal_dac.c **** 
1347:Drivers/STM32G4xx_HAL_Driver/Src/stm32g4xx_hal_dac.c **** /** @addtogroup DAC_Exported_Functions
1348:Drivers/STM32G4xx_HAL_Driver/Src/stm32g4xx_hal_dac.c ****   * @{
1349:Drivers/STM32G4xx_HAL_Driver/Src/stm32g4xx_hal_dac.c ****   */
1350:Drivers/STM32G4xx_HAL_Driver/Src/stm32g4xx_hal_dac.c **** 
1351:Drivers/STM32G4xx_HAL_Driver/Src/stm32g4xx_hal_dac.c **** /** @addtogroup DAC_Exported_Functions_Group1
1352:Drivers/STM32G4xx_HAL_Driver/Src/stm32g4xx_hal_dac.c ****   * @{
1353:Drivers/STM32G4xx_HAL_Driver/Src/stm32g4xx_hal_dac.c ****   */
1354:Drivers/STM32G4xx_HAL_Driver/Src/stm32g4xx_hal_dac.c **** #if (USE_HAL_DAC_REGISTER_CALLBACKS == 1)
1355:Drivers/STM32G4xx_HAL_Driver/Src/stm32g4xx_hal_dac.c **** /**
1356:Drivers/STM32G4xx_HAL_Driver/Src/stm32g4xx_hal_dac.c ****   * @brief  Register a User DAC Callback
1357:Drivers/STM32G4xx_HAL_Driver/Src/stm32g4xx_hal_dac.c ****   *         To be used instead of the weak (surcharged) predefined callback
1358:Drivers/STM32G4xx_HAL_Driver/Src/stm32g4xx_hal_dac.c ****   * @param  hdac DAC handle
1359:Drivers/STM32G4xx_HAL_Driver/Src/stm32g4xx_hal_dac.c ****   * @param  CallbackID ID of the callback to be registered
1360:Drivers/STM32G4xx_HAL_Driver/Src/stm32g4xx_hal_dac.c ****   *         This parameter can be one of the following values:
1361:Drivers/STM32G4xx_HAL_Driver/Src/stm32g4xx_hal_dac.c ****   *          @arg @ref HAL_DAC_ERROR_INVALID_CALLBACK   DAC Error Callback ID
1362:Drivers/STM32G4xx_HAL_Driver/Src/stm32g4xx_hal_dac.c ****   *          @arg @ref HAL_DAC_CH1_COMPLETE_CB_ID       DAC CH1 Complete Callback ID
1363:Drivers/STM32G4xx_HAL_Driver/Src/stm32g4xx_hal_dac.c ****   *          @arg @ref HAL_DAC_CH1_HALF_COMPLETE_CB_ID  DAC CH1 Half Complete Callback ID
1364:Drivers/STM32G4xx_HAL_Driver/Src/stm32g4xx_hal_dac.c ****   *          @arg @ref HAL_DAC_CH1_ERROR_ID             DAC CH1 Error Callback ID
1365:Drivers/STM32G4xx_HAL_Driver/Src/stm32g4xx_hal_dac.c ****   *          @arg @ref HAL_DAC_CH1_UNDERRUN_CB_ID       DAC CH1 UnderRun Callback ID
1366:Drivers/STM32G4xx_HAL_Driver/Src/stm32g4xx_hal_dac.c ****   *          @arg @ref HAL_DAC_CH2_COMPLETE_CB_ID       DAC CH2 Complete Callback ID
1367:Drivers/STM32G4xx_HAL_Driver/Src/stm32g4xx_hal_dac.c ****   *          @arg @ref HAL_DAC_CH2_HALF_COMPLETE_CB_ID  DAC CH2 Half Complete Callback ID
1368:Drivers/STM32G4xx_HAL_Driver/Src/stm32g4xx_hal_dac.c ****   *          @arg @ref HAL_DAC_CH2_ERROR_ID             DAC CH2 Error Callback ID
1369:Drivers/STM32G4xx_HAL_Driver/Src/stm32g4xx_hal_dac.c ****   *          @arg @ref HAL_DAC_CH2_UNDERRUN_CB_ID       DAC CH2 UnderRun Callback ID
1370:Drivers/STM32G4xx_HAL_Driver/Src/stm32g4xx_hal_dac.c ****   *          @arg @ref HAL_DAC_MSPINIT_CB_ID            DAC MSP Init Callback ID
1371:Drivers/STM32G4xx_HAL_Driver/Src/stm32g4xx_hal_dac.c ****   *          @arg @ref HAL_DAC_MSPDEINIT_CB_ID          DAC MSP DeInit Callback ID
1372:Drivers/STM32G4xx_HAL_Driver/Src/stm32g4xx_hal_dac.c ****   *
1373:Drivers/STM32G4xx_HAL_Driver/Src/stm32g4xx_hal_dac.c ****   * @param  pCallback pointer to the Callback function
1374:Drivers/STM32G4xx_HAL_Driver/Src/stm32g4xx_hal_dac.c ****   * @retval status
1375:Drivers/STM32G4xx_HAL_Driver/Src/stm32g4xx_hal_dac.c ****   */
1376:Drivers/STM32G4xx_HAL_Driver/Src/stm32g4xx_hal_dac.c **** HAL_StatusTypeDef HAL_DAC_RegisterCallback(DAC_HandleTypeDef *hdac, HAL_DAC_CallbackIDTypeDef Callb
1377:Drivers/STM32G4xx_HAL_Driver/Src/stm32g4xx_hal_dac.c ****                                            pDAC_CallbackTypeDef pCallback)
1378:Drivers/STM32G4xx_HAL_Driver/Src/stm32g4xx_hal_dac.c **** {
1379:Drivers/STM32G4xx_HAL_Driver/Src/stm32g4xx_hal_dac.c ****   HAL_StatusTypeDef status = HAL_OK;
1380:Drivers/STM32G4xx_HAL_Driver/Src/stm32g4xx_hal_dac.c **** 
1381:Drivers/STM32G4xx_HAL_Driver/Src/stm32g4xx_hal_dac.c ****   if (pCallback == NULL)
ARM GAS  /tmp/ccHGeJqL.s 			page 41


1382:Drivers/STM32G4xx_HAL_Driver/Src/stm32g4xx_hal_dac.c ****   {
1383:Drivers/STM32G4xx_HAL_Driver/Src/stm32g4xx_hal_dac.c ****     /* Update the error code */
1384:Drivers/STM32G4xx_HAL_Driver/Src/stm32g4xx_hal_dac.c ****     hdac->ErrorCode |= HAL_DAC_ERROR_INVALID_CALLBACK;
1385:Drivers/STM32G4xx_HAL_Driver/Src/stm32g4xx_hal_dac.c ****     return HAL_ERROR;
1386:Drivers/STM32G4xx_HAL_Driver/Src/stm32g4xx_hal_dac.c ****   }
1387:Drivers/STM32G4xx_HAL_Driver/Src/stm32g4xx_hal_dac.c **** 
1388:Drivers/STM32G4xx_HAL_Driver/Src/stm32g4xx_hal_dac.c ****   /* Process locked */
1389:Drivers/STM32G4xx_HAL_Driver/Src/stm32g4xx_hal_dac.c ****   __HAL_LOCK(hdac);
1390:Drivers/STM32G4xx_HAL_Driver/Src/stm32g4xx_hal_dac.c **** 
1391:Drivers/STM32G4xx_HAL_Driver/Src/stm32g4xx_hal_dac.c ****   if (hdac->State == HAL_DAC_STATE_READY)
1392:Drivers/STM32G4xx_HAL_Driver/Src/stm32g4xx_hal_dac.c ****   {
1393:Drivers/STM32G4xx_HAL_Driver/Src/stm32g4xx_hal_dac.c ****     switch (CallbackID)
1394:Drivers/STM32G4xx_HAL_Driver/Src/stm32g4xx_hal_dac.c ****     {
1395:Drivers/STM32G4xx_HAL_Driver/Src/stm32g4xx_hal_dac.c ****       case HAL_DAC_CH1_COMPLETE_CB_ID :
1396:Drivers/STM32G4xx_HAL_Driver/Src/stm32g4xx_hal_dac.c ****         hdac->ConvCpltCallbackCh1 = pCallback;
1397:Drivers/STM32G4xx_HAL_Driver/Src/stm32g4xx_hal_dac.c ****         break;
1398:Drivers/STM32G4xx_HAL_Driver/Src/stm32g4xx_hal_dac.c ****       case HAL_DAC_CH1_HALF_COMPLETE_CB_ID :
1399:Drivers/STM32G4xx_HAL_Driver/Src/stm32g4xx_hal_dac.c ****         hdac->ConvHalfCpltCallbackCh1 = pCallback;
1400:Drivers/STM32G4xx_HAL_Driver/Src/stm32g4xx_hal_dac.c ****         break;
1401:Drivers/STM32G4xx_HAL_Driver/Src/stm32g4xx_hal_dac.c ****       case HAL_DAC_CH1_ERROR_ID :
1402:Drivers/STM32G4xx_HAL_Driver/Src/stm32g4xx_hal_dac.c ****         hdac->ErrorCallbackCh1 = pCallback;
1403:Drivers/STM32G4xx_HAL_Driver/Src/stm32g4xx_hal_dac.c ****         break;
1404:Drivers/STM32G4xx_HAL_Driver/Src/stm32g4xx_hal_dac.c ****       case HAL_DAC_CH1_UNDERRUN_CB_ID :
1405:Drivers/STM32G4xx_HAL_Driver/Src/stm32g4xx_hal_dac.c ****         hdac->DMAUnderrunCallbackCh1 = pCallback;
1406:Drivers/STM32G4xx_HAL_Driver/Src/stm32g4xx_hal_dac.c ****         break;
1407:Drivers/STM32G4xx_HAL_Driver/Src/stm32g4xx_hal_dac.c ****       case HAL_DAC_CH2_COMPLETE_CB_ID :
1408:Drivers/STM32G4xx_HAL_Driver/Src/stm32g4xx_hal_dac.c ****         hdac->ConvCpltCallbackCh2 = pCallback;
1409:Drivers/STM32G4xx_HAL_Driver/Src/stm32g4xx_hal_dac.c ****         break;
1410:Drivers/STM32G4xx_HAL_Driver/Src/stm32g4xx_hal_dac.c ****       case HAL_DAC_CH2_HALF_COMPLETE_CB_ID :
1411:Drivers/STM32G4xx_HAL_Driver/Src/stm32g4xx_hal_dac.c ****         hdac->ConvHalfCpltCallbackCh2 = pCallback;
1412:Drivers/STM32G4xx_HAL_Driver/Src/stm32g4xx_hal_dac.c ****         break;
1413:Drivers/STM32G4xx_HAL_Driver/Src/stm32g4xx_hal_dac.c ****       case HAL_DAC_CH2_ERROR_ID :
1414:Drivers/STM32G4xx_HAL_Driver/Src/stm32g4xx_hal_dac.c ****         hdac->ErrorCallbackCh2 = pCallback;
1415:Drivers/STM32G4xx_HAL_Driver/Src/stm32g4xx_hal_dac.c ****         break;
1416:Drivers/STM32G4xx_HAL_Driver/Src/stm32g4xx_hal_dac.c ****       case HAL_DAC_CH2_UNDERRUN_CB_ID :
1417:Drivers/STM32G4xx_HAL_Driver/Src/stm32g4xx_hal_dac.c ****         hdac->DMAUnderrunCallbackCh2 = pCallback;
1418:Drivers/STM32G4xx_HAL_Driver/Src/stm32g4xx_hal_dac.c ****         break;
1419:Drivers/STM32G4xx_HAL_Driver/Src/stm32g4xx_hal_dac.c ****       case HAL_DAC_MSPINIT_CB_ID :
1420:Drivers/STM32G4xx_HAL_Driver/Src/stm32g4xx_hal_dac.c ****         hdac->MspInitCallback = pCallback;
1421:Drivers/STM32G4xx_HAL_Driver/Src/stm32g4xx_hal_dac.c ****         break;
1422:Drivers/STM32G4xx_HAL_Driver/Src/stm32g4xx_hal_dac.c ****       case HAL_DAC_MSPDEINIT_CB_ID :
1423:Drivers/STM32G4xx_HAL_Driver/Src/stm32g4xx_hal_dac.c ****         hdac->MspDeInitCallback = pCallback;
1424:Drivers/STM32G4xx_HAL_Driver/Src/stm32g4xx_hal_dac.c ****         break;
1425:Drivers/STM32G4xx_HAL_Driver/Src/stm32g4xx_hal_dac.c ****       default :
1426:Drivers/STM32G4xx_HAL_Driver/Src/stm32g4xx_hal_dac.c ****         /* Update the error code */
1427:Drivers/STM32G4xx_HAL_Driver/Src/stm32g4xx_hal_dac.c ****         hdac->ErrorCode |= HAL_DAC_ERROR_INVALID_CALLBACK;
1428:Drivers/STM32G4xx_HAL_Driver/Src/stm32g4xx_hal_dac.c ****         /* update return status */
1429:Drivers/STM32G4xx_HAL_Driver/Src/stm32g4xx_hal_dac.c ****         status =  HAL_ERROR;
1430:Drivers/STM32G4xx_HAL_Driver/Src/stm32g4xx_hal_dac.c ****         break;
1431:Drivers/STM32G4xx_HAL_Driver/Src/stm32g4xx_hal_dac.c ****     }
1432:Drivers/STM32G4xx_HAL_Driver/Src/stm32g4xx_hal_dac.c ****   }
1433:Drivers/STM32G4xx_HAL_Driver/Src/stm32g4xx_hal_dac.c ****   else if (hdac->State == HAL_DAC_STATE_RESET)
1434:Drivers/STM32G4xx_HAL_Driver/Src/stm32g4xx_hal_dac.c ****   {
1435:Drivers/STM32G4xx_HAL_Driver/Src/stm32g4xx_hal_dac.c ****     switch (CallbackID)
1436:Drivers/STM32G4xx_HAL_Driver/Src/stm32g4xx_hal_dac.c ****     {
1437:Drivers/STM32G4xx_HAL_Driver/Src/stm32g4xx_hal_dac.c ****       case HAL_DAC_MSPINIT_CB_ID :
1438:Drivers/STM32G4xx_HAL_Driver/Src/stm32g4xx_hal_dac.c ****         hdac->MspInitCallback = pCallback;
ARM GAS  /tmp/ccHGeJqL.s 			page 42


1439:Drivers/STM32G4xx_HAL_Driver/Src/stm32g4xx_hal_dac.c ****         break;
1440:Drivers/STM32G4xx_HAL_Driver/Src/stm32g4xx_hal_dac.c ****       case HAL_DAC_MSPDEINIT_CB_ID :
1441:Drivers/STM32G4xx_HAL_Driver/Src/stm32g4xx_hal_dac.c ****         hdac->MspDeInitCallback = pCallback;
1442:Drivers/STM32G4xx_HAL_Driver/Src/stm32g4xx_hal_dac.c ****         break;
1443:Drivers/STM32G4xx_HAL_Driver/Src/stm32g4xx_hal_dac.c ****       default :
1444:Drivers/STM32G4xx_HAL_Driver/Src/stm32g4xx_hal_dac.c ****         /* Update the error code */
1445:Drivers/STM32G4xx_HAL_Driver/Src/stm32g4xx_hal_dac.c ****         hdac->ErrorCode |= HAL_DAC_ERROR_INVALID_CALLBACK;
1446:Drivers/STM32G4xx_HAL_Driver/Src/stm32g4xx_hal_dac.c ****         /* update return status */
1447:Drivers/STM32G4xx_HAL_Driver/Src/stm32g4xx_hal_dac.c ****         status =  HAL_ERROR;
1448:Drivers/STM32G4xx_HAL_Driver/Src/stm32g4xx_hal_dac.c ****         break;
1449:Drivers/STM32G4xx_HAL_Driver/Src/stm32g4xx_hal_dac.c ****     }
1450:Drivers/STM32G4xx_HAL_Driver/Src/stm32g4xx_hal_dac.c ****   }
1451:Drivers/STM32G4xx_HAL_Driver/Src/stm32g4xx_hal_dac.c ****   else
1452:Drivers/STM32G4xx_HAL_Driver/Src/stm32g4xx_hal_dac.c ****   {
1453:Drivers/STM32G4xx_HAL_Driver/Src/stm32g4xx_hal_dac.c ****     /* Update the error code */
1454:Drivers/STM32G4xx_HAL_Driver/Src/stm32g4xx_hal_dac.c ****     hdac->ErrorCode |= HAL_DAC_ERROR_INVALID_CALLBACK;
1455:Drivers/STM32G4xx_HAL_Driver/Src/stm32g4xx_hal_dac.c ****     /* update return status */
1456:Drivers/STM32G4xx_HAL_Driver/Src/stm32g4xx_hal_dac.c ****     status =  HAL_ERROR;
1457:Drivers/STM32G4xx_HAL_Driver/Src/stm32g4xx_hal_dac.c ****   }
1458:Drivers/STM32G4xx_HAL_Driver/Src/stm32g4xx_hal_dac.c **** 
1459:Drivers/STM32G4xx_HAL_Driver/Src/stm32g4xx_hal_dac.c ****   /* Release Lock */
1460:Drivers/STM32G4xx_HAL_Driver/Src/stm32g4xx_hal_dac.c ****   __HAL_UNLOCK(hdac);
1461:Drivers/STM32G4xx_HAL_Driver/Src/stm32g4xx_hal_dac.c ****   return status;
1462:Drivers/STM32G4xx_HAL_Driver/Src/stm32g4xx_hal_dac.c **** }
1463:Drivers/STM32G4xx_HAL_Driver/Src/stm32g4xx_hal_dac.c **** 
1464:Drivers/STM32G4xx_HAL_Driver/Src/stm32g4xx_hal_dac.c **** /**
1465:Drivers/STM32G4xx_HAL_Driver/Src/stm32g4xx_hal_dac.c ****   * @brief  Unregister a User DAC Callback
1466:Drivers/STM32G4xx_HAL_Driver/Src/stm32g4xx_hal_dac.c ****   *         DAC Callback is redirected to the weak (surcharged) predefined callback
1467:Drivers/STM32G4xx_HAL_Driver/Src/stm32g4xx_hal_dac.c ****   * @param  hdac DAC handle
1468:Drivers/STM32G4xx_HAL_Driver/Src/stm32g4xx_hal_dac.c ****   * @param  CallbackID ID of the callback to be unregistered
1469:Drivers/STM32G4xx_HAL_Driver/Src/stm32g4xx_hal_dac.c ****   *         This parameter can be one of the following values:
1470:Drivers/STM32G4xx_HAL_Driver/Src/stm32g4xx_hal_dac.c ****   *          @arg @ref HAL_DAC_CH1_COMPLETE_CB_ID          DAC CH1 tranfer Complete Callback ID
1471:Drivers/STM32G4xx_HAL_Driver/Src/stm32g4xx_hal_dac.c ****   *          @arg @ref HAL_DAC_CH1_HALF_COMPLETE_CB_ID     DAC CH1 Half Complete Callback ID
1472:Drivers/STM32G4xx_HAL_Driver/Src/stm32g4xx_hal_dac.c ****   *          @arg @ref HAL_DAC_CH1_ERROR_ID                DAC CH1 Error Callback ID
1473:Drivers/STM32G4xx_HAL_Driver/Src/stm32g4xx_hal_dac.c ****   *          @arg @ref HAL_DAC_CH1_UNDERRUN_CB_ID          DAC CH1 UnderRun Callback ID
1474:Drivers/STM32G4xx_HAL_Driver/Src/stm32g4xx_hal_dac.c ****   *          @arg @ref HAL_DAC_CH2_COMPLETE_CB_ID          DAC CH2 Complete Callback ID
1475:Drivers/STM32G4xx_HAL_Driver/Src/stm32g4xx_hal_dac.c ****   *          @arg @ref HAL_DAC_CH2_HALF_COMPLETE_CB_ID     DAC CH2 Half Complete Callback ID
1476:Drivers/STM32G4xx_HAL_Driver/Src/stm32g4xx_hal_dac.c ****   *          @arg @ref HAL_DAC_CH2_ERROR_ID                DAC CH2 Error Callback ID
1477:Drivers/STM32G4xx_HAL_Driver/Src/stm32g4xx_hal_dac.c ****   *          @arg @ref HAL_DAC_CH2_UNDERRUN_CB_ID          DAC CH2 UnderRun Callback ID
1478:Drivers/STM32G4xx_HAL_Driver/Src/stm32g4xx_hal_dac.c ****   *          @arg @ref HAL_DAC_MSPINIT_CB_ID               DAC MSP Init Callback ID
1479:Drivers/STM32G4xx_HAL_Driver/Src/stm32g4xx_hal_dac.c ****   *          @arg @ref HAL_DAC_MSPDEINIT_CB_ID             DAC MSP DeInit Callback ID
1480:Drivers/STM32G4xx_HAL_Driver/Src/stm32g4xx_hal_dac.c ****   *          @arg @ref HAL_DAC_ALL_CB_ID                   DAC All callbacks
1481:Drivers/STM32G4xx_HAL_Driver/Src/stm32g4xx_hal_dac.c ****   * @retval status
1482:Drivers/STM32G4xx_HAL_Driver/Src/stm32g4xx_hal_dac.c ****   */
1483:Drivers/STM32G4xx_HAL_Driver/Src/stm32g4xx_hal_dac.c **** HAL_StatusTypeDef HAL_DAC_UnRegisterCallback(DAC_HandleTypeDef *hdac, HAL_DAC_CallbackIDTypeDef Cal
1484:Drivers/STM32G4xx_HAL_Driver/Src/stm32g4xx_hal_dac.c **** {
1485:Drivers/STM32G4xx_HAL_Driver/Src/stm32g4xx_hal_dac.c ****   HAL_StatusTypeDef status = HAL_OK;
1486:Drivers/STM32G4xx_HAL_Driver/Src/stm32g4xx_hal_dac.c **** 
1487:Drivers/STM32G4xx_HAL_Driver/Src/stm32g4xx_hal_dac.c ****   /* Process locked */
1488:Drivers/STM32G4xx_HAL_Driver/Src/stm32g4xx_hal_dac.c ****   __HAL_LOCK(hdac);
1489:Drivers/STM32G4xx_HAL_Driver/Src/stm32g4xx_hal_dac.c **** 
1490:Drivers/STM32G4xx_HAL_Driver/Src/stm32g4xx_hal_dac.c ****   if (hdac->State == HAL_DAC_STATE_READY)
1491:Drivers/STM32G4xx_HAL_Driver/Src/stm32g4xx_hal_dac.c ****   {
1492:Drivers/STM32G4xx_HAL_Driver/Src/stm32g4xx_hal_dac.c ****     switch (CallbackID)
1493:Drivers/STM32G4xx_HAL_Driver/Src/stm32g4xx_hal_dac.c ****     {
1494:Drivers/STM32G4xx_HAL_Driver/Src/stm32g4xx_hal_dac.c ****       case HAL_DAC_CH1_COMPLETE_CB_ID :
1495:Drivers/STM32G4xx_HAL_Driver/Src/stm32g4xx_hal_dac.c ****         hdac->ConvCpltCallbackCh1 = HAL_DAC_ConvCpltCallbackCh1;
ARM GAS  /tmp/ccHGeJqL.s 			page 43


1496:Drivers/STM32G4xx_HAL_Driver/Src/stm32g4xx_hal_dac.c ****         break;
1497:Drivers/STM32G4xx_HAL_Driver/Src/stm32g4xx_hal_dac.c ****       case HAL_DAC_CH1_HALF_COMPLETE_CB_ID :
1498:Drivers/STM32G4xx_HAL_Driver/Src/stm32g4xx_hal_dac.c ****         hdac->ConvHalfCpltCallbackCh1 = HAL_DAC_ConvHalfCpltCallbackCh1;
1499:Drivers/STM32G4xx_HAL_Driver/Src/stm32g4xx_hal_dac.c ****         break;
1500:Drivers/STM32G4xx_HAL_Driver/Src/stm32g4xx_hal_dac.c ****       case HAL_DAC_CH1_ERROR_ID :
1501:Drivers/STM32G4xx_HAL_Driver/Src/stm32g4xx_hal_dac.c ****         hdac->ErrorCallbackCh1 = HAL_DAC_ErrorCallbackCh1;
1502:Drivers/STM32G4xx_HAL_Driver/Src/stm32g4xx_hal_dac.c ****         break;
1503:Drivers/STM32G4xx_HAL_Driver/Src/stm32g4xx_hal_dac.c ****       case HAL_DAC_CH1_UNDERRUN_CB_ID :
1504:Drivers/STM32G4xx_HAL_Driver/Src/stm32g4xx_hal_dac.c ****         hdac->DMAUnderrunCallbackCh1 = HAL_DAC_DMAUnderrunCallbackCh1;
1505:Drivers/STM32G4xx_HAL_Driver/Src/stm32g4xx_hal_dac.c ****         break;
1506:Drivers/STM32G4xx_HAL_Driver/Src/stm32g4xx_hal_dac.c ****       case HAL_DAC_CH2_COMPLETE_CB_ID :
1507:Drivers/STM32G4xx_HAL_Driver/Src/stm32g4xx_hal_dac.c ****         hdac->ConvCpltCallbackCh2 = HAL_DACEx_ConvCpltCallbackCh2;
1508:Drivers/STM32G4xx_HAL_Driver/Src/stm32g4xx_hal_dac.c ****         break;
1509:Drivers/STM32G4xx_HAL_Driver/Src/stm32g4xx_hal_dac.c ****       case HAL_DAC_CH2_HALF_COMPLETE_CB_ID :
1510:Drivers/STM32G4xx_HAL_Driver/Src/stm32g4xx_hal_dac.c ****         hdac->ConvHalfCpltCallbackCh2 = HAL_DACEx_ConvHalfCpltCallbackCh2;
1511:Drivers/STM32G4xx_HAL_Driver/Src/stm32g4xx_hal_dac.c ****         break;
1512:Drivers/STM32G4xx_HAL_Driver/Src/stm32g4xx_hal_dac.c ****       case HAL_DAC_CH2_ERROR_ID :
1513:Drivers/STM32G4xx_HAL_Driver/Src/stm32g4xx_hal_dac.c ****         hdac->ErrorCallbackCh2 = HAL_DACEx_ErrorCallbackCh2;
1514:Drivers/STM32G4xx_HAL_Driver/Src/stm32g4xx_hal_dac.c ****         break;
1515:Drivers/STM32G4xx_HAL_Driver/Src/stm32g4xx_hal_dac.c ****       case HAL_DAC_CH2_UNDERRUN_CB_ID :
1516:Drivers/STM32G4xx_HAL_Driver/Src/stm32g4xx_hal_dac.c ****         hdac->DMAUnderrunCallbackCh2 = HAL_DACEx_DMAUnderrunCallbackCh2;
1517:Drivers/STM32G4xx_HAL_Driver/Src/stm32g4xx_hal_dac.c ****         break;
1518:Drivers/STM32G4xx_HAL_Driver/Src/stm32g4xx_hal_dac.c ****       case HAL_DAC_MSPINIT_CB_ID :
1519:Drivers/STM32G4xx_HAL_Driver/Src/stm32g4xx_hal_dac.c ****         hdac->MspInitCallback = HAL_DAC_MspInit;
1520:Drivers/STM32G4xx_HAL_Driver/Src/stm32g4xx_hal_dac.c ****         break;
1521:Drivers/STM32G4xx_HAL_Driver/Src/stm32g4xx_hal_dac.c ****       case HAL_DAC_MSPDEINIT_CB_ID :
1522:Drivers/STM32G4xx_HAL_Driver/Src/stm32g4xx_hal_dac.c ****         hdac->MspDeInitCallback = HAL_DAC_MspDeInit;
1523:Drivers/STM32G4xx_HAL_Driver/Src/stm32g4xx_hal_dac.c ****         break;
1524:Drivers/STM32G4xx_HAL_Driver/Src/stm32g4xx_hal_dac.c ****       case HAL_DAC_ALL_CB_ID :
1525:Drivers/STM32G4xx_HAL_Driver/Src/stm32g4xx_hal_dac.c ****         hdac->ConvCpltCallbackCh1 = HAL_DAC_ConvCpltCallbackCh1;
1526:Drivers/STM32G4xx_HAL_Driver/Src/stm32g4xx_hal_dac.c ****         hdac->ConvHalfCpltCallbackCh1 = HAL_DAC_ConvHalfCpltCallbackCh1;
1527:Drivers/STM32G4xx_HAL_Driver/Src/stm32g4xx_hal_dac.c ****         hdac->ErrorCallbackCh1 = HAL_DAC_ErrorCallbackCh1;
1528:Drivers/STM32G4xx_HAL_Driver/Src/stm32g4xx_hal_dac.c ****         hdac->DMAUnderrunCallbackCh1 = HAL_DAC_DMAUnderrunCallbackCh1;
1529:Drivers/STM32G4xx_HAL_Driver/Src/stm32g4xx_hal_dac.c ****         hdac->ConvCpltCallbackCh2 = HAL_DACEx_ConvCpltCallbackCh2;
1530:Drivers/STM32G4xx_HAL_Driver/Src/stm32g4xx_hal_dac.c ****         hdac->ConvHalfCpltCallbackCh2 = HAL_DACEx_ConvHalfCpltCallbackCh2;
1531:Drivers/STM32G4xx_HAL_Driver/Src/stm32g4xx_hal_dac.c ****         hdac->ErrorCallbackCh2 = HAL_DACEx_ErrorCallbackCh2;
1532:Drivers/STM32G4xx_HAL_Driver/Src/stm32g4xx_hal_dac.c ****         hdac->DMAUnderrunCallbackCh2 = HAL_DACEx_DMAUnderrunCallbackCh2;
1533:Drivers/STM32G4xx_HAL_Driver/Src/stm32g4xx_hal_dac.c ****         hdac->MspInitCallback = HAL_DAC_MspInit;
1534:Drivers/STM32G4xx_HAL_Driver/Src/stm32g4xx_hal_dac.c ****         hdac->MspDeInitCallback = HAL_DAC_MspDeInit;
1535:Drivers/STM32G4xx_HAL_Driver/Src/stm32g4xx_hal_dac.c ****         break;
1536:Drivers/STM32G4xx_HAL_Driver/Src/stm32g4xx_hal_dac.c ****       default :
1537:Drivers/STM32G4xx_HAL_Driver/Src/stm32g4xx_hal_dac.c ****         /* Update the error code */
1538:Drivers/STM32G4xx_HAL_Driver/Src/stm32g4xx_hal_dac.c ****         hdac->ErrorCode |= HAL_DAC_ERROR_INVALID_CALLBACK;
1539:Drivers/STM32G4xx_HAL_Driver/Src/stm32g4xx_hal_dac.c ****         /* update return status */
1540:Drivers/STM32G4xx_HAL_Driver/Src/stm32g4xx_hal_dac.c ****         status =  HAL_ERROR;
1541:Drivers/STM32G4xx_HAL_Driver/Src/stm32g4xx_hal_dac.c ****         break;
1542:Drivers/STM32G4xx_HAL_Driver/Src/stm32g4xx_hal_dac.c ****     }
1543:Drivers/STM32G4xx_HAL_Driver/Src/stm32g4xx_hal_dac.c ****   }
1544:Drivers/STM32G4xx_HAL_Driver/Src/stm32g4xx_hal_dac.c ****   else if (hdac->State == HAL_DAC_STATE_RESET)
1545:Drivers/STM32G4xx_HAL_Driver/Src/stm32g4xx_hal_dac.c ****   {
1546:Drivers/STM32G4xx_HAL_Driver/Src/stm32g4xx_hal_dac.c ****     switch (CallbackID)
1547:Drivers/STM32G4xx_HAL_Driver/Src/stm32g4xx_hal_dac.c ****     {
1548:Drivers/STM32G4xx_HAL_Driver/Src/stm32g4xx_hal_dac.c ****       case HAL_DAC_MSPINIT_CB_ID :
1549:Drivers/STM32G4xx_HAL_Driver/Src/stm32g4xx_hal_dac.c ****         hdac->MspInitCallback = HAL_DAC_MspInit;
1550:Drivers/STM32G4xx_HAL_Driver/Src/stm32g4xx_hal_dac.c ****         break;
1551:Drivers/STM32G4xx_HAL_Driver/Src/stm32g4xx_hal_dac.c ****       case HAL_DAC_MSPDEINIT_CB_ID :
1552:Drivers/STM32G4xx_HAL_Driver/Src/stm32g4xx_hal_dac.c ****         hdac->MspDeInitCallback = HAL_DAC_MspDeInit;
ARM GAS  /tmp/ccHGeJqL.s 			page 44


1553:Drivers/STM32G4xx_HAL_Driver/Src/stm32g4xx_hal_dac.c ****         break;
1554:Drivers/STM32G4xx_HAL_Driver/Src/stm32g4xx_hal_dac.c ****       default :
1555:Drivers/STM32G4xx_HAL_Driver/Src/stm32g4xx_hal_dac.c ****         /* Update the error code */
1556:Drivers/STM32G4xx_HAL_Driver/Src/stm32g4xx_hal_dac.c ****         hdac->ErrorCode |= HAL_DAC_ERROR_INVALID_CALLBACK;
1557:Drivers/STM32G4xx_HAL_Driver/Src/stm32g4xx_hal_dac.c ****         /* update return status */
1558:Drivers/STM32G4xx_HAL_Driver/Src/stm32g4xx_hal_dac.c ****         status =  HAL_ERROR;
1559:Drivers/STM32G4xx_HAL_Driver/Src/stm32g4xx_hal_dac.c ****         break;
1560:Drivers/STM32G4xx_HAL_Driver/Src/stm32g4xx_hal_dac.c ****     }
1561:Drivers/STM32G4xx_HAL_Driver/Src/stm32g4xx_hal_dac.c ****   }
1562:Drivers/STM32G4xx_HAL_Driver/Src/stm32g4xx_hal_dac.c ****   else
1563:Drivers/STM32G4xx_HAL_Driver/Src/stm32g4xx_hal_dac.c ****   {
1564:Drivers/STM32G4xx_HAL_Driver/Src/stm32g4xx_hal_dac.c ****     /* Update the error code */
1565:Drivers/STM32G4xx_HAL_Driver/Src/stm32g4xx_hal_dac.c ****     hdac->ErrorCode |= HAL_DAC_ERROR_INVALID_CALLBACK;
1566:Drivers/STM32G4xx_HAL_Driver/Src/stm32g4xx_hal_dac.c ****     /* update return status */
1567:Drivers/STM32G4xx_HAL_Driver/Src/stm32g4xx_hal_dac.c ****     status =  HAL_ERROR;
1568:Drivers/STM32G4xx_HAL_Driver/Src/stm32g4xx_hal_dac.c ****   }
1569:Drivers/STM32G4xx_HAL_Driver/Src/stm32g4xx_hal_dac.c **** 
1570:Drivers/STM32G4xx_HAL_Driver/Src/stm32g4xx_hal_dac.c ****   /* Release Lock */
1571:Drivers/STM32G4xx_HAL_Driver/Src/stm32g4xx_hal_dac.c ****   __HAL_UNLOCK(hdac);
1572:Drivers/STM32G4xx_HAL_Driver/Src/stm32g4xx_hal_dac.c ****   return status;
1573:Drivers/STM32G4xx_HAL_Driver/Src/stm32g4xx_hal_dac.c **** }
1574:Drivers/STM32G4xx_HAL_Driver/Src/stm32g4xx_hal_dac.c **** #endif /* USE_HAL_DAC_REGISTER_CALLBACKS */
1575:Drivers/STM32G4xx_HAL_Driver/Src/stm32g4xx_hal_dac.c **** 
1576:Drivers/STM32G4xx_HAL_Driver/Src/stm32g4xx_hal_dac.c **** /**
1577:Drivers/STM32G4xx_HAL_Driver/Src/stm32g4xx_hal_dac.c ****   * @}
1578:Drivers/STM32G4xx_HAL_Driver/Src/stm32g4xx_hal_dac.c ****   */
1579:Drivers/STM32G4xx_HAL_Driver/Src/stm32g4xx_hal_dac.c **** 
1580:Drivers/STM32G4xx_HAL_Driver/Src/stm32g4xx_hal_dac.c **** /**
1581:Drivers/STM32G4xx_HAL_Driver/Src/stm32g4xx_hal_dac.c ****   * @}
1582:Drivers/STM32G4xx_HAL_Driver/Src/stm32g4xx_hal_dac.c ****   */
1583:Drivers/STM32G4xx_HAL_Driver/Src/stm32g4xx_hal_dac.c **** 
1584:Drivers/STM32G4xx_HAL_Driver/Src/stm32g4xx_hal_dac.c **** /** @addtogroup DAC_Private_Functions
1585:Drivers/STM32G4xx_HAL_Driver/Src/stm32g4xx_hal_dac.c ****   * @{
1586:Drivers/STM32G4xx_HAL_Driver/Src/stm32g4xx_hal_dac.c ****   */
1587:Drivers/STM32G4xx_HAL_Driver/Src/stm32g4xx_hal_dac.c **** 
1588:Drivers/STM32G4xx_HAL_Driver/Src/stm32g4xx_hal_dac.c **** /**
1589:Drivers/STM32G4xx_HAL_Driver/Src/stm32g4xx_hal_dac.c ****   * @brief  DMA conversion complete callback.
1590:Drivers/STM32G4xx_HAL_Driver/Src/stm32g4xx_hal_dac.c ****   * @param  hdma pointer to a DMA_HandleTypeDef structure that contains
1591:Drivers/STM32G4xx_HAL_Driver/Src/stm32g4xx_hal_dac.c ****   *                the configuration information for the specified DMA module.
1592:Drivers/STM32G4xx_HAL_Driver/Src/stm32g4xx_hal_dac.c ****   * @retval None
1593:Drivers/STM32G4xx_HAL_Driver/Src/stm32g4xx_hal_dac.c ****   */
1594:Drivers/STM32G4xx_HAL_Driver/Src/stm32g4xx_hal_dac.c **** void DAC_DMAConvCpltCh1(DMA_HandleTypeDef *hdma)
1595:Drivers/STM32G4xx_HAL_Driver/Src/stm32g4xx_hal_dac.c **** {
 804              		.loc 1 1595 1 is_stmt 1 view -0
 805              		.cfi_startproc
 806              		@ args = 0, pretend = 0, frame = 0
 807              		@ frame_needed = 0, uses_anonymous_args = 0
1596:Drivers/STM32G4xx_HAL_Driver/Src/stm32g4xx_hal_dac.c ****   DAC_HandleTypeDef *hdac = (DAC_HandleTypeDef *)((DMA_HandleTypeDef *)hdma)->Parent;
 808              		.loc 1 1596 3 view .LVU248
1595:Drivers/STM32G4xx_HAL_Driver/Src/stm32g4xx_hal_dac.c ****   DAC_HandleTypeDef *hdac = (DAC_HandleTypeDef *)((DMA_HandleTypeDef *)hdma)->Parent;
 809              		.loc 1 1595 1 is_stmt 0 view .LVU249
 810 0000 10B5     		push	{r4, lr}
 811              	.LCFI9:
 812              		.cfi_def_cfa_offset 8
 813              		.cfi_offset 4, -8
 814              		.cfi_offset 14, -4
 815              		.loc 1 1596 22 view .LVU250
ARM GAS  /tmp/ccHGeJqL.s 			page 45


 816 0002 846A     		ldr	r4, [r0, #40]
 817              	.LVL54:
1597:Drivers/STM32G4xx_HAL_Driver/Src/stm32g4xx_hal_dac.c **** 
1598:Drivers/STM32G4xx_HAL_Driver/Src/stm32g4xx_hal_dac.c **** #if (USE_HAL_DAC_REGISTER_CALLBACKS == 1)
1599:Drivers/STM32G4xx_HAL_Driver/Src/stm32g4xx_hal_dac.c ****   hdac->ConvCpltCallbackCh1(hdac);
1600:Drivers/STM32G4xx_HAL_Driver/Src/stm32g4xx_hal_dac.c **** #else
1601:Drivers/STM32G4xx_HAL_Driver/Src/stm32g4xx_hal_dac.c ****   HAL_DAC_ConvCpltCallbackCh1(hdac);
 818              		.loc 1 1601 3 is_stmt 1 view .LVU251
 819 0004 2046     		mov	r0, r4
 820              	.LVL55:
 821              		.loc 1 1601 3 is_stmt 0 view .LVU252
 822 0006 FFF7FEFF 		bl	HAL_DAC_ConvCpltCallbackCh1
 823              	.LVL56:
1602:Drivers/STM32G4xx_HAL_Driver/Src/stm32g4xx_hal_dac.c **** #endif /* USE_HAL_DAC_REGISTER_CALLBACKS */
1603:Drivers/STM32G4xx_HAL_Driver/Src/stm32g4xx_hal_dac.c **** 
1604:Drivers/STM32G4xx_HAL_Driver/Src/stm32g4xx_hal_dac.c ****   hdac->State = HAL_DAC_STATE_READY;
 824              		.loc 1 1604 3 is_stmt 1 view .LVU253
 825              		.loc 1 1604 15 is_stmt 0 view .LVU254
 826 000a 0123     		movs	r3, #1
 827 000c 2371     		strb	r3, [r4, #4]
1605:Drivers/STM32G4xx_HAL_Driver/Src/stm32g4xx_hal_dac.c **** }
 828              		.loc 1 1605 1 view .LVU255
 829 000e 10BD     		pop	{r4, pc}
 830              		.loc 1 1605 1 view .LVU256
 831              		.cfi_endproc
 832              	.LFE375:
 834              		.section	.text.HAL_DAC_ConvHalfCpltCallbackCh1,"ax",%progbits
 835              		.align	1
 836              		.weak	HAL_DAC_ConvHalfCpltCallbackCh1
 837              		.syntax unified
 838              		.thumb
 839              		.thumb_func
 840              		.fpu fpv4-sp-d16
 842              	HAL_DAC_ConvHalfCpltCallbackCh1:
 843              	.LFB383:
 844              		.cfi_startproc
 845              		@ args = 0, pretend = 0, frame = 0
 846              		@ frame_needed = 0, uses_anonymous_args = 0
 847              		@ link register save eliminated.
 848 0000 7047     		bx	lr
 849              		.cfi_endproc
 850              	.LFE383:
 852              		.section	.text.DAC_DMAHalfConvCpltCh1,"ax",%progbits
 853              		.align	1
 854              		.global	DAC_DMAHalfConvCpltCh1
 855              		.syntax unified
 856              		.thumb
 857              		.thumb_func
 858              		.fpu fpv4-sp-d16
 860              	DAC_DMAHalfConvCpltCh1:
 861              	.LVL57:
 862              	.LFB376:
1606:Drivers/STM32G4xx_HAL_Driver/Src/stm32g4xx_hal_dac.c **** 
1607:Drivers/STM32G4xx_HAL_Driver/Src/stm32g4xx_hal_dac.c **** /**
1608:Drivers/STM32G4xx_HAL_Driver/Src/stm32g4xx_hal_dac.c ****   * @brief  DMA half transfer complete callback.
1609:Drivers/STM32G4xx_HAL_Driver/Src/stm32g4xx_hal_dac.c ****   * @param  hdma pointer to a DMA_HandleTypeDef structure that contains
1610:Drivers/STM32G4xx_HAL_Driver/Src/stm32g4xx_hal_dac.c ****   *                the configuration information for the specified DMA module.
ARM GAS  /tmp/ccHGeJqL.s 			page 46


1611:Drivers/STM32G4xx_HAL_Driver/Src/stm32g4xx_hal_dac.c ****   * @retval None
1612:Drivers/STM32G4xx_HAL_Driver/Src/stm32g4xx_hal_dac.c ****   */
1613:Drivers/STM32G4xx_HAL_Driver/Src/stm32g4xx_hal_dac.c **** void DAC_DMAHalfConvCpltCh1(DMA_HandleTypeDef *hdma)
1614:Drivers/STM32G4xx_HAL_Driver/Src/stm32g4xx_hal_dac.c **** {
 863              		.loc 1 1614 1 is_stmt 1 view -0
 864              		.cfi_startproc
 865              		@ args = 0, pretend = 0, frame = 0
 866              		@ frame_needed = 0, uses_anonymous_args = 0
1615:Drivers/STM32G4xx_HAL_Driver/Src/stm32g4xx_hal_dac.c ****   DAC_HandleTypeDef *hdac = (DAC_HandleTypeDef *)((DMA_HandleTypeDef *)hdma)->Parent;
 867              		.loc 1 1615 3 view .LVU258
1616:Drivers/STM32G4xx_HAL_Driver/Src/stm32g4xx_hal_dac.c ****   /* Conversion complete callback */
1617:Drivers/STM32G4xx_HAL_Driver/Src/stm32g4xx_hal_dac.c **** #if (USE_HAL_DAC_REGISTER_CALLBACKS == 1)
1618:Drivers/STM32G4xx_HAL_Driver/Src/stm32g4xx_hal_dac.c ****   hdac->ConvHalfCpltCallbackCh1(hdac);
1619:Drivers/STM32G4xx_HAL_Driver/Src/stm32g4xx_hal_dac.c **** #else
1620:Drivers/STM32G4xx_HAL_Driver/Src/stm32g4xx_hal_dac.c ****   HAL_DAC_ConvHalfCpltCallbackCh1(hdac);
 868              		.loc 1 1620 3 view .LVU259
1614:Drivers/STM32G4xx_HAL_Driver/Src/stm32g4xx_hal_dac.c ****   DAC_HandleTypeDef *hdac = (DAC_HandleTypeDef *)((DMA_HandleTypeDef *)hdma)->Parent;
 869              		.loc 1 1614 1 is_stmt 0 view .LVU260
 870 0000 08B5     		push	{r3, lr}
 871              	.LCFI10:
 872              		.cfi_def_cfa_offset 8
 873              		.cfi_offset 3, -8
 874              		.cfi_offset 14, -4
 875              		.loc 1 1620 3 view .LVU261
 876 0002 806A     		ldr	r0, [r0, #40]
 877              	.LVL58:
 878              		.loc 1 1620 3 view .LVU262
 879 0004 FFF7FEFF 		bl	HAL_DAC_ConvHalfCpltCallbackCh1
 880              	.LVL59:
1621:Drivers/STM32G4xx_HAL_Driver/Src/stm32g4xx_hal_dac.c **** #endif  /* USE_HAL_DAC_REGISTER_CALLBACKS */
1622:Drivers/STM32G4xx_HAL_Driver/Src/stm32g4xx_hal_dac.c **** }
 881              		.loc 1 1622 1 view .LVU263
 882 0008 08BD     		pop	{r3, pc}
 883              		.cfi_endproc
 884              	.LFE376:
 886              		.section	.text.HAL_DAC_ErrorCallbackCh1,"ax",%progbits
 887              		.align	1
 888              		.weak	HAL_DAC_ErrorCallbackCh1
 889              		.syntax unified
 890              		.thumb
 891              		.thumb_func
 892              		.fpu fpv4-sp-d16
 894              	HAL_DAC_ErrorCallbackCh1:
 895              	.LFB385:
 896              		.cfi_startproc
 897              		@ args = 0, pretend = 0, frame = 0
 898              		@ frame_needed = 0, uses_anonymous_args = 0
 899              		@ link register save eliminated.
 900 0000 7047     		bx	lr
 901              		.cfi_endproc
 902              	.LFE385:
 904              		.section	.text.DAC_DMAErrorCh1,"ax",%progbits
 905              		.align	1
 906              		.global	DAC_DMAErrorCh1
 907              		.syntax unified
 908              		.thumb
 909              		.thumb_func
ARM GAS  /tmp/ccHGeJqL.s 			page 47


 910              		.fpu fpv4-sp-d16
 912              	DAC_DMAErrorCh1:
 913              	.LVL60:
 914              	.LFB377:
1623:Drivers/STM32G4xx_HAL_Driver/Src/stm32g4xx_hal_dac.c **** 
1624:Drivers/STM32G4xx_HAL_Driver/Src/stm32g4xx_hal_dac.c **** /**
1625:Drivers/STM32G4xx_HAL_Driver/Src/stm32g4xx_hal_dac.c ****   * @brief  DMA error callback
1626:Drivers/STM32G4xx_HAL_Driver/Src/stm32g4xx_hal_dac.c ****   * @param  hdma pointer to a DMA_HandleTypeDef structure that contains
1627:Drivers/STM32G4xx_HAL_Driver/Src/stm32g4xx_hal_dac.c ****   *                the configuration information for the specified DMA module.
1628:Drivers/STM32G4xx_HAL_Driver/Src/stm32g4xx_hal_dac.c ****   * @retval None
1629:Drivers/STM32G4xx_HAL_Driver/Src/stm32g4xx_hal_dac.c ****   */
1630:Drivers/STM32G4xx_HAL_Driver/Src/stm32g4xx_hal_dac.c **** void DAC_DMAErrorCh1(DMA_HandleTypeDef *hdma)
1631:Drivers/STM32G4xx_HAL_Driver/Src/stm32g4xx_hal_dac.c **** {
 915              		.loc 1 1631 1 is_stmt 1 view -0
 916              		.cfi_startproc
 917              		@ args = 0, pretend = 0, frame = 0
 918              		@ frame_needed = 0, uses_anonymous_args = 0
1632:Drivers/STM32G4xx_HAL_Driver/Src/stm32g4xx_hal_dac.c ****   DAC_HandleTypeDef *hdac = (DAC_HandleTypeDef *)((DMA_HandleTypeDef *)hdma)->Parent;
 919              		.loc 1 1632 3 view .LVU265
1631:Drivers/STM32G4xx_HAL_Driver/Src/stm32g4xx_hal_dac.c ****   DAC_HandleTypeDef *hdac = (DAC_HandleTypeDef *)((DMA_HandleTypeDef *)hdma)->Parent;
 920              		.loc 1 1631 1 is_stmt 0 view .LVU266
 921 0000 10B5     		push	{r4, lr}
 922              	.LCFI11:
 923              		.cfi_def_cfa_offset 8
 924              		.cfi_offset 4, -8
 925              		.cfi_offset 14, -4
 926              		.loc 1 1632 22 view .LVU267
 927 0002 846A     		ldr	r4, [r0, #40]
 928              	.LVL61:
1633:Drivers/STM32G4xx_HAL_Driver/Src/stm32g4xx_hal_dac.c **** 
1634:Drivers/STM32G4xx_HAL_Driver/Src/stm32g4xx_hal_dac.c ****   /* Set DAC error code to DMA error */
1635:Drivers/STM32G4xx_HAL_Driver/Src/stm32g4xx_hal_dac.c ****   hdac->ErrorCode |= HAL_DAC_ERROR_DMA;
 929              		.loc 1 1635 3 is_stmt 1 view .LVU268
 930              		.loc 1 1635 19 is_stmt 0 view .LVU269
 931 0004 2369     		ldr	r3, [r4, #16]
 932 0006 43F00403 		orr	r3, r3, #4
 933 000a 2361     		str	r3, [r4, #16]
1636:Drivers/STM32G4xx_HAL_Driver/Src/stm32g4xx_hal_dac.c **** 
1637:Drivers/STM32G4xx_HAL_Driver/Src/stm32g4xx_hal_dac.c **** #if (USE_HAL_DAC_REGISTER_CALLBACKS == 1)
1638:Drivers/STM32G4xx_HAL_Driver/Src/stm32g4xx_hal_dac.c ****   hdac->ErrorCallbackCh1(hdac);
1639:Drivers/STM32G4xx_HAL_Driver/Src/stm32g4xx_hal_dac.c **** #else
1640:Drivers/STM32G4xx_HAL_Driver/Src/stm32g4xx_hal_dac.c ****   HAL_DAC_ErrorCallbackCh1(hdac);
 934              		.loc 1 1640 3 is_stmt 1 view .LVU270
 935 000c 2046     		mov	r0, r4
 936              	.LVL62:
 937              		.loc 1 1640 3 is_stmt 0 view .LVU271
 938 000e FFF7FEFF 		bl	HAL_DAC_ErrorCallbackCh1
 939              	.LVL63:
1641:Drivers/STM32G4xx_HAL_Driver/Src/stm32g4xx_hal_dac.c **** #endif /* USE_HAL_DAC_REGISTER_CALLBACKS */
1642:Drivers/STM32G4xx_HAL_Driver/Src/stm32g4xx_hal_dac.c **** 
1643:Drivers/STM32G4xx_HAL_Driver/Src/stm32g4xx_hal_dac.c ****   hdac->State = HAL_DAC_STATE_READY;
 940              		.loc 1 1643 3 is_stmt 1 view .LVU272
 941              		.loc 1 1643 15 is_stmt 0 view .LVU273
 942 0012 0123     		movs	r3, #1
 943 0014 2371     		strb	r3, [r4, #4]
1644:Drivers/STM32G4xx_HAL_Driver/Src/stm32g4xx_hal_dac.c **** }
 944              		.loc 1 1644 1 view .LVU274
ARM GAS  /tmp/ccHGeJqL.s 			page 48


 945 0016 10BD     		pop	{r4, pc}
 946              		.loc 1 1644 1 view .LVU275
 947              		.cfi_endproc
 948              	.LFE377:
 950              		.section	.text.HAL_DAC_DMAUnderrunCallbackCh1,"ax",%progbits
 951              		.align	1
 952              		.weak	HAL_DAC_DMAUnderrunCallbackCh1
 953              		.syntax unified
 954              		.thumb
 955              		.thumb_func
 956              		.fpu fpv4-sp-d16
 958              	HAL_DAC_DMAUnderrunCallbackCh1:
 959              	.LFB387:
 960              		.cfi_startproc
 961              		@ args = 0, pretend = 0, frame = 0
 962              		@ frame_needed = 0, uses_anonymous_args = 0
 963              		@ link register save eliminated.
 964 0000 7047     		bx	lr
 965              		.cfi_endproc
 966              	.LFE387:
 968              		.section	.text.HAL_DAC_IRQHandler,"ax",%progbits
 969              		.align	1
 970              		.global	HAL_DAC_IRQHandler
 971              		.syntax unified
 972              		.thumb
 973              		.thumb_func
 974              		.fpu fpv4-sp-d16
 976              	HAL_DAC_IRQHandler:
 977              	.LVL64:
 978              	.LFB365:
 860:Drivers/STM32G4xx_HAL_Driver/Src/stm32g4xx_hal_dac.c ****   if (__HAL_DAC_GET_IT_SOURCE(hdac, DAC_IT_DMAUDR1))
 979              		.loc 1 860 1 is_stmt 1 view -0
 980              		.cfi_startproc
 981              		@ args = 0, pretend = 0, frame = 0
 982              		@ frame_needed = 0, uses_anonymous_args = 0
 861:Drivers/STM32G4xx_HAL_Driver/Src/stm32g4xx_hal_dac.c ****   {
 983              		.loc 1 861 3 view .LVU277
 861:Drivers/STM32G4xx_HAL_Driver/Src/stm32g4xx_hal_dac.c ****   {
 984              		.loc 1 861 7 is_stmt 0 view .LVU278
 985 0000 0368     		ldr	r3, [r0]
 986 0002 1A68     		ldr	r2, [r3]
 861:Drivers/STM32G4xx_HAL_Driver/Src/stm32g4xx_hal_dac.c ****   {
 987              		.loc 1 861 6 view .LVU279
 988 0004 9104     		lsls	r1, r2, #18
 860:Drivers/STM32G4xx_HAL_Driver/Src/stm32g4xx_hal_dac.c ****   if (__HAL_DAC_GET_IT_SOURCE(hdac, DAC_IT_DMAUDR1))
 989              		.loc 1 860 1 view .LVU280
 990 0006 10B5     		push	{r4, lr}
 991              	.LCFI12:
 992              		.cfi_def_cfa_offset 8
 993              		.cfi_offset 4, -8
 994              		.cfi_offset 14, -4
 860:Drivers/STM32G4xx_HAL_Driver/Src/stm32g4xx_hal_dac.c ****   if (__HAL_DAC_GET_IT_SOURCE(hdac, DAC_IT_DMAUDR1))
 995              		.loc 1 860 1 view .LVU281
 996 0008 0446     		mov	r4, r0
 861:Drivers/STM32G4xx_HAL_Driver/Src/stm32g4xx_hal_dac.c ****   {
 997              		.loc 1 861 6 view .LVU282
 998 000a 11D5     		bpl	.L53
ARM GAS  /tmp/ccHGeJqL.s 			page 49


 864:Drivers/STM32G4xx_HAL_Driver/Src/stm32g4xx_hal_dac.c ****     {
 999              		.loc 1 864 5 is_stmt 1 view .LVU283
 864:Drivers/STM32G4xx_HAL_Driver/Src/stm32g4xx_hal_dac.c ****     {
 1000              		.loc 1 864 9 is_stmt 0 view .LVU284
 1001 000c 5A6B     		ldr	r2, [r3, #52]
 864:Drivers/STM32G4xx_HAL_Driver/Src/stm32g4xx_hal_dac.c ****     {
 1002              		.loc 1 864 8 view .LVU285
 1003 000e 9204     		lsls	r2, r2, #18
 1004 0010 0ED5     		bpl	.L53
 867:Drivers/STM32G4xx_HAL_Driver/Src/stm32g4xx_hal_dac.c **** 
 1005              		.loc 1 867 7 is_stmt 1 view .LVU286
 867:Drivers/STM32G4xx_HAL_Driver/Src/stm32g4xx_hal_dac.c **** 
 1006              		.loc 1 867 19 is_stmt 0 view .LVU287
 1007 0012 0422     		movs	r2, #4
 1008 0014 0271     		strb	r2, [r0, #4]
 870:Drivers/STM32G4xx_HAL_Driver/Src/stm32g4xx_hal_dac.c **** 
 1009              		.loc 1 870 7 is_stmt 1 view .LVU288
 1010 0016 0269     		ldr	r2, [r0, #16]
 1011 0018 42F00102 		orr	r2, r2, #1
 1012 001c 0261     		str	r2, [r0, #16]
 873:Drivers/STM32G4xx_HAL_Driver/Src/stm32g4xx_hal_dac.c **** 
 1013              		.loc 1 873 7 view .LVU289
 1014 001e 4FF40052 		mov	r2, #8192
 1015 0022 5A63     		str	r2, [r3, #52]
 876:Drivers/STM32G4xx_HAL_Driver/Src/stm32g4xx_hal_dac.c **** 
 1016              		.loc 1 876 7 view .LVU290
 1017 0024 1A68     		ldr	r2, [r3]
 1018 0026 22F48052 		bic	r2, r2, #4096
 1019 002a 1A60     		str	r2, [r3]
 882:Drivers/STM32G4xx_HAL_Driver/Src/stm32g4xx_hal_dac.c **** #endif /* USE_HAL_DAC_REGISTER_CALLBACKS */
 1020              		.loc 1 882 7 view .LVU291
 1021 002c FFF7FEFF 		bl	HAL_DAC_DMAUnderrunCallbackCh1
 1022              	.LVL65:
 1023              	.L53:
 887:Drivers/STM32G4xx_HAL_Driver/Src/stm32g4xx_hal_dac.c ****   {
 1024              		.loc 1 887 3 view .LVU292
 887:Drivers/STM32G4xx_HAL_Driver/Src/stm32g4xx_hal_dac.c ****   {
 1025              		.loc 1 887 7 is_stmt 0 view .LVU293
 1026 0030 2368     		ldr	r3, [r4]
 1027 0032 1A68     		ldr	r2, [r3]
 887:Drivers/STM32G4xx_HAL_Driver/Src/stm32g4xx_hal_dac.c ****   {
 1028              		.loc 1 887 6 view .LVU294
 1029 0034 9100     		lsls	r1, r2, #2
 1030 0036 14D5     		bpl	.L52
 890:Drivers/STM32G4xx_HAL_Driver/Src/stm32g4xx_hal_dac.c ****     {
 1031              		.loc 1 890 5 is_stmt 1 view .LVU295
 890:Drivers/STM32G4xx_HAL_Driver/Src/stm32g4xx_hal_dac.c ****     {
 1032              		.loc 1 890 9 is_stmt 0 view .LVU296
 1033 0038 5A6B     		ldr	r2, [r3, #52]
 890:Drivers/STM32G4xx_HAL_Driver/Src/stm32g4xx_hal_dac.c ****     {
 1034              		.loc 1 890 8 view .LVU297
 1035 003a 9200     		lsls	r2, r2, #2
 1036 003c 11D5     		bpl	.L52
 893:Drivers/STM32G4xx_HAL_Driver/Src/stm32g4xx_hal_dac.c **** 
 1037              		.loc 1 893 7 is_stmt 1 view .LVU298
 893:Drivers/STM32G4xx_HAL_Driver/Src/stm32g4xx_hal_dac.c **** 
 1038              		.loc 1 893 19 is_stmt 0 view .LVU299
ARM GAS  /tmp/ccHGeJqL.s 			page 50


 1039 003e 0422     		movs	r2, #4
 1040 0040 2271     		strb	r2, [r4, #4]
 896:Drivers/STM32G4xx_HAL_Driver/Src/stm32g4xx_hal_dac.c **** 
 1041              		.loc 1 896 7 is_stmt 1 view .LVU300
 1042 0042 2269     		ldr	r2, [r4, #16]
 1043 0044 42F00202 		orr	r2, r2, #2
 1044 0048 2261     		str	r2, [r4, #16]
 899:Drivers/STM32G4xx_HAL_Driver/Src/stm32g4xx_hal_dac.c **** 
 1045              		.loc 1 899 7 view .LVU301
 1046 004a 4FF00052 		mov	r2, #536870912
 1047 004e 5A63     		str	r2, [r3, #52]
 902:Drivers/STM32G4xx_HAL_Driver/Src/stm32g4xx_hal_dac.c **** 
 1048              		.loc 1 902 7 view .LVU302
 1049 0050 1A68     		ldr	r2, [r3]
 1050 0052 22F08052 		bic	r2, r2, #268435456
 908:Drivers/STM32G4xx_HAL_Driver/Src/stm32g4xx_hal_dac.c **** #endif /* USE_HAL_DAC_REGISTER_CALLBACKS */
 1051              		.loc 1 908 7 is_stmt 0 view .LVU303
 1052 0056 2046     		mov	r0, r4
 902:Drivers/STM32G4xx_HAL_Driver/Src/stm32g4xx_hal_dac.c **** 
 1053              		.loc 1 902 7 view .LVU304
 1054 0058 1A60     		str	r2, [r3]
 908:Drivers/STM32G4xx_HAL_Driver/Src/stm32g4xx_hal_dac.c **** #endif /* USE_HAL_DAC_REGISTER_CALLBACKS */
 1055              		.loc 1 908 7 is_stmt 1 view .LVU305
 912:Drivers/STM32G4xx_HAL_Driver/Src/stm32g4xx_hal_dac.c **** 
 1056              		.loc 1 912 1 is_stmt 0 view .LVU306
 1057 005a BDE81040 		pop	{r4, lr}
 1058              	.LCFI13:
 1059              		.cfi_remember_state
 1060              		.cfi_restore 14
 1061              		.cfi_restore 4
 1062              		.cfi_def_cfa_offset 0
 1063              	.LVL66:
 908:Drivers/STM32G4xx_HAL_Driver/Src/stm32g4xx_hal_dac.c **** #endif /* USE_HAL_DAC_REGISTER_CALLBACKS */
 1064              		.loc 1 908 7 view .LVU307
 1065 005e FFF7FEBF 		b	HAL_DACEx_DMAUnderrunCallbackCh2
 1066              	.LVL67:
 1067              	.L52:
 1068              	.LCFI14:
 1069              		.cfi_restore_state
 912:Drivers/STM32G4xx_HAL_Driver/Src/stm32g4xx_hal_dac.c **** 
 1070              		.loc 1 912 1 view .LVU308
 1071 0062 10BD     		pop	{r4, pc}
 912:Drivers/STM32G4xx_HAL_Driver/Src/stm32g4xx_hal_dac.c **** 
 1072              		.loc 1 912 1 view .LVU309
 1073              		.cfi_endproc
 1074              	.LFE365:
 1076              		.section	.text.HAL_DAC_GetValue,"ax",%progbits
 1077              		.align	1
 1078              		.global	HAL_DAC_GetValue
 1079              		.syntax unified
 1080              		.thumb
 1081              		.thumb_func
 1082              		.fpu fpv4-sp-d16
 1084              	HAL_DAC_GetValue:
 1085              	.LVL68:
 1086              	.LFB371:
1060:Drivers/STM32G4xx_HAL_Driver/Src/stm32g4xx_hal_dac.c ****   /* Check the parameters */
ARM GAS  /tmp/ccHGeJqL.s 			page 51


 1087              		.loc 1 1060 1 is_stmt 1 view -0
 1088              		.cfi_startproc
 1089              		@ args = 0, pretend = 0, frame = 0
 1090              		@ frame_needed = 0, uses_anonymous_args = 0
 1091              		@ link register save eliminated.
1062:Drivers/STM32G4xx_HAL_Driver/Src/stm32g4xx_hal_dac.c **** 
 1092              		.loc 1 1062 3 view .LVU311
1065:Drivers/STM32G4xx_HAL_Driver/Src/stm32g4xx_hal_dac.c ****   {
 1093              		.loc 1 1065 3 view .LVU312
 1094 0000 0368     		ldr	r3, [r0]
1065:Drivers/STM32G4xx_HAL_Driver/Src/stm32g4xx_hal_dac.c ****   {
 1095              		.loc 1 1065 6 is_stmt 0 view .LVU313
 1096 0002 09B9     		cbnz	r1, .L68
1067:Drivers/STM32G4xx_HAL_Driver/Src/stm32g4xx_hal_dac.c ****   }
 1097              		.loc 1 1067 5 is_stmt 1 view .LVU314
1067:Drivers/STM32G4xx_HAL_Driver/Src/stm32g4xx_hal_dac.c ****   }
 1098              		.loc 1 1067 26 is_stmt 0 view .LVU315
 1099 0004 D86A     		ldr	r0, [r3, #44]
 1100              	.LVL69:
1067:Drivers/STM32G4xx_HAL_Driver/Src/stm32g4xx_hal_dac.c ****   }
 1101              		.loc 1 1067 26 view .LVU316
 1102 0006 7047     		bx	lr
 1103              	.LVL70:
 1104              	.L68:
1071:Drivers/STM32G4xx_HAL_Driver/Src/stm32g4xx_hal_dac.c ****   }
 1105              		.loc 1 1071 5 is_stmt 1 view .LVU317
1071:Drivers/STM32G4xx_HAL_Driver/Src/stm32g4xx_hal_dac.c ****   }
 1106              		.loc 1 1071 26 is_stmt 0 view .LVU318
 1107 0008 186B     		ldr	r0, [r3, #48]
 1108              	.LVL71:
1073:Drivers/STM32G4xx_HAL_Driver/Src/stm32g4xx_hal_dac.c **** 
 1109              		.loc 1 1073 1 view .LVU319
 1110 000a 7047     		bx	lr
 1111              		.cfi_endproc
 1112              	.LFE371:
 1114              		.section	.text.HAL_DAC_ConfigChannel,"ax",%progbits
 1115              		.align	1
 1116              		.global	HAL_DAC_ConfigChannel
 1117              		.syntax unified
 1118              		.thumb
 1119              		.thumb_func
 1120              		.fpu fpv4-sp-d16
 1122              	HAL_DAC_ConfigChannel:
 1123              	.LVL72:
 1124              	.LFB372:
1095:Drivers/STM32G4xx_HAL_Driver/Src/stm32g4xx_hal_dac.c ****   uint32_t tmpreg1;
 1125              		.loc 1 1095 1 is_stmt 1 view -0
 1126              		.cfi_startproc
 1127              		@ args = 0, pretend = 0, frame = 0
 1128              		@ frame_needed = 0, uses_anonymous_args = 0
1096:Drivers/STM32G4xx_HAL_Driver/Src/stm32g4xx_hal_dac.c ****   uint32_t tmpreg2;
 1129              		.loc 1 1096 3 view .LVU321
1097:Drivers/STM32G4xx_HAL_Driver/Src/stm32g4xx_hal_dac.c ****   uint32_t tickstart = 0U;
 1130              		.loc 1 1097 3 view .LVU322
1098:Drivers/STM32G4xx_HAL_Driver/Src/stm32g4xx_hal_dac.c ****   uint32_t hclkfreq;
 1131              		.loc 1 1098 3 view .LVU323
1099:Drivers/STM32G4xx_HAL_Driver/Src/stm32g4xx_hal_dac.c ****   uint32_t connectOnChip;
ARM GAS  /tmp/ccHGeJqL.s 			page 52


 1132              		.loc 1 1099 3 view .LVU324
1100:Drivers/STM32G4xx_HAL_Driver/Src/stm32g4xx_hal_dac.c **** 
 1133              		.loc 1 1100 3 view .LVU325
1103:Drivers/STM32G4xx_HAL_Driver/Src/stm32g4xx_hal_dac.c ****   assert_param(IS_DAC_TRIGGER(hdac->Instance, sConfig->DAC_Trigger));
 1134              		.loc 1 1103 3 view .LVU326
1104:Drivers/STM32G4xx_HAL_Driver/Src/stm32g4xx_hal_dac.c ****   assert_param(IS_DAC_TRIGGER(hdac->Instance, sConfig->DAC_Trigger2));
 1135              		.loc 1 1104 3 view .LVU327
1105:Drivers/STM32G4xx_HAL_Driver/Src/stm32g4xx_hal_dac.c ****   assert_param(IS_DAC_OUTPUT_BUFFER_STATE(sConfig->DAC_OutputBuffer));
 1136              		.loc 1 1105 3 view .LVU328
1106:Drivers/STM32G4xx_HAL_Driver/Src/stm32g4xx_hal_dac.c ****   assert_param(IS_DAC_CHIP_CONNECTION(sConfig->DAC_ConnectOnChipPeripheral));
 1137              		.loc 1 1106 3 view .LVU329
1107:Drivers/STM32G4xx_HAL_Driver/Src/stm32g4xx_hal_dac.c ****   assert_param(IS_DAC_TRIMMING(sConfig->DAC_UserTrimming));
 1138              		.loc 1 1107 3 view .LVU330
1108:Drivers/STM32G4xx_HAL_Driver/Src/stm32g4xx_hal_dac.c ****   if ((sConfig->DAC_UserTrimming) == DAC_TRIMMING_USER)
 1139              		.loc 1 1108 3 view .LVU331
1109:Drivers/STM32G4xx_HAL_Driver/Src/stm32g4xx_hal_dac.c ****   {
 1140              		.loc 1 1109 3 view .LVU332
1111:Drivers/STM32G4xx_HAL_Driver/Src/stm32g4xx_hal_dac.c ****   }
 1141              		.loc 1 1111 5 view .LVU333
1113:Drivers/STM32G4xx_HAL_Driver/Src/stm32g4xx_hal_dac.c ****   if ((sConfig->DAC_SampleAndHold) == DAC_SAMPLEANDHOLD_ENABLE)
 1142              		.loc 1 1113 3 view .LVU334
1114:Drivers/STM32G4xx_HAL_Driver/Src/stm32g4xx_hal_dac.c ****   {
 1143              		.loc 1 1114 3 view .LVU335
1095:Drivers/STM32G4xx_HAL_Driver/Src/stm32g4xx_hal_dac.c ****   uint32_t tmpreg1;
 1144              		.loc 1 1095 1 is_stmt 0 view .LVU336
 1145 0000 2DE9F041 		push	{r4, r5, r6, r7, r8, lr}
 1146              	.LCFI15:
 1147              		.cfi_def_cfa_offset 24
 1148              		.cfi_offset 4, -24
 1149              		.cfi_offset 5, -20
 1150              		.cfi_offset 6, -16
 1151              		.cfi_offset 7, -12
 1152              		.cfi_offset 8, -8
 1153              		.cfi_offset 14, -4
1095:Drivers/STM32G4xx_HAL_Driver/Src/stm32g4xx_hal_dac.c ****   uint32_t tmpreg1;
 1154              		.loc 1 1095 1 view .LVU337
 1155 0004 1546     		mov	r5, r2
1125:Drivers/STM32G4xx_HAL_Driver/Src/stm32g4xx_hal_dac.c **** 
 1156              		.loc 1 1125 3 view .LVU338
 1157 0006 4279     		ldrb	r2, [r0, #5]	@ zero_extendqisi2
 1158              	.LVL73:
1114:Drivers/STM32G4xx_HAL_Driver/Src/stm32g4xx_hal_dac.c ****   {
 1159              		.loc 1 1114 15 view .LVU339
 1160 0008 8B68     		ldr	r3, [r1, #8]
1116:Drivers/STM32G4xx_HAL_Driver/Src/stm32g4xx_hal_dac.c ****     assert_param(IS_DAC_HOLDTIME(sConfig->DAC_SampleAndHoldConfig.DAC_HoldTime));
 1161              		.loc 1 1116 5 is_stmt 1 view .LVU340
1117:Drivers/STM32G4xx_HAL_Driver/Src/stm32g4xx_hal_dac.c ****     assert_param(IS_DAC_REFRESHTIME(sConfig->DAC_SampleAndHoldConfig.DAC_RefreshTime));
 1162              		.loc 1 1117 5 view .LVU341
1118:Drivers/STM32G4xx_HAL_Driver/Src/stm32g4xx_hal_dac.c ****   }
 1163              		.loc 1 1118 5 view .LVU342
1120:Drivers/STM32G4xx_HAL_Driver/Src/stm32g4xx_hal_dac.c ****   assert_param(IS_FUNCTIONAL_STATE(sConfig->DAC_DMADoubleDataMode));
 1164              		.loc 1 1120 3 view .LVU343
1121:Drivers/STM32G4xx_HAL_Driver/Src/stm32g4xx_hal_dac.c ****   assert_param(IS_FUNCTIONAL_STATE(sConfig->DAC_SignedFormat));
 1165              		.loc 1 1121 3 view .LVU344
1122:Drivers/STM32G4xx_HAL_Driver/Src/stm32g4xx_hal_dac.c **** 
 1166              		.loc 1 1122 3 view .LVU345
1125:Drivers/STM32G4xx_HAL_Driver/Src/stm32g4xx_hal_dac.c **** 
ARM GAS  /tmp/ccHGeJqL.s 			page 53


 1167              		.loc 1 1125 3 view .LVU346
1125:Drivers/STM32G4xx_HAL_Driver/Src/stm32g4xx_hal_dac.c **** 
 1168              		.loc 1 1125 3 view .LVU347
 1169 000a 012A     		cmp	r2, #1
1095:Drivers/STM32G4xx_HAL_Driver/Src/stm32g4xx_hal_dac.c ****   uint32_t tmpreg1;
 1170              		.loc 1 1095 1 is_stmt 0 view .LVU348
 1171 000c 0446     		mov	r4, r0
 1172 000e 0E46     		mov	r6, r1
 1173 0010 4FF00200 		mov	r0, #2
 1174              	.LVL74:
1125:Drivers/STM32G4xx_HAL_Driver/Src/stm32g4xx_hal_dac.c **** 
 1175              		.loc 1 1125 3 view .LVU349
 1176 0014 00F0BC80 		beq	.L71
1125:Drivers/STM32G4xx_HAL_Driver/Src/stm32g4xx_hal_dac.c **** 
 1177              		.loc 1 1125 3 is_stmt 1 discriminator 2 view .LVU350
 1178 0018 0122     		movs	r2, #1
1130:Drivers/STM32G4xx_HAL_Driver/Src/stm32g4xx_hal_dac.c ****     /* Sample on old configuration */
 1179              		.loc 1 1130 6 is_stmt 0 discriminator 2 view .LVU351
 1180 001a 042B     		cmp	r3, #4
1125:Drivers/STM32G4xx_HAL_Driver/Src/stm32g4xx_hal_dac.c **** 
 1181              		.loc 1 1125 3 discriminator 2 view .LVU352
 1182 001c 6271     		strb	r2, [r4, #5]
1125:Drivers/STM32G4xx_HAL_Driver/Src/stm32g4xx_hal_dac.c **** 
 1183              		.loc 1 1125 3 is_stmt 1 discriminator 2 view .LVU353
1128:Drivers/STM32G4xx_HAL_Driver/Src/stm32g4xx_hal_dac.c **** 
 1184              		.loc 1 1128 3 discriminator 2 view .LVU354
1128:Drivers/STM32G4xx_HAL_Driver/Src/stm32g4xx_hal_dac.c **** 
 1185              		.loc 1 1128 15 is_stmt 0 discriminator 2 view .LVU355
 1186 001e 2071     		strb	r0, [r4, #4]
1130:Drivers/STM32G4xx_HAL_Driver/Src/stm32g4xx_hal_dac.c ****     /* Sample on old configuration */
 1187              		.loc 1 1130 3 is_stmt 1 discriminator 2 view .LVU356
1130:Drivers/STM32G4xx_HAL_Driver/Src/stm32g4xx_hal_dac.c ****     /* Sample on old configuration */
 1188              		.loc 1 1130 6 is_stmt 0 discriminator 2 view .LVU357
 1189 0020 27D1     		bne	.L72
1134:Drivers/STM32G4xx_HAL_Driver/Src/stm32g4xx_hal_dac.c ****     {
 1190              		.loc 1 1134 5 is_stmt 1 view .LVU358
1134:Drivers/STM32G4xx_HAL_Driver/Src/stm32g4xx_hal_dac.c ****     {
 1191              		.loc 1 1134 8 is_stmt 0 view .LVU359
 1192 0022 002D     		cmp	r5, #0
 1193 0024 40F0BA80 		bne	.L73
1137:Drivers/STM32G4xx_HAL_Driver/Src/stm32g4xx_hal_dac.c **** 
 1194              		.loc 1 1137 7 is_stmt 1 view .LVU360
1137:Drivers/STM32G4xx_HAL_Driver/Src/stm32g4xx_hal_dac.c **** 
 1195              		.loc 1 1137 19 is_stmt 0 view .LVU361
 1196 0028 FFF7FEFF 		bl	HAL_GetTick
 1197              	.LVL75:
1137:Drivers/STM32G4xx_HAL_Driver/Src/stm32g4xx_hal_dac.c **** 
 1198              		.loc 1 1137 19 view .LVU362
 1199 002c 0746     		mov	r7, r0
 1200              	.LVL76:
1140:Drivers/STM32G4xx_HAL_Driver/Src/stm32g4xx_hal_dac.c ****       {
 1201              		.loc 1 1140 7 is_stmt 1 view .LVU363
 1202              	.L74:
1140:Drivers/STM32G4xx_HAL_Driver/Src/stm32g4xx_hal_dac.c ****       {
 1203              		.loc 1 1140 13 view .LVU364
1140:Drivers/STM32G4xx_HAL_Driver/Src/stm32g4xx_hal_dac.c ****       {
 1204              		.loc 1 1140 20 is_stmt 0 view .LVU365
ARM GAS  /tmp/ccHGeJqL.s 			page 54


 1205 002e 2368     		ldr	r3, [r4]
1140:Drivers/STM32G4xx_HAL_Driver/Src/stm32g4xx_hal_dac.c ****       {
 1206              		.loc 1 1140 30 view .LVU366
 1207 0030 5B6B     		ldr	r3, [r3, #52]
1140:Drivers/STM32G4xx_HAL_Driver/Src/stm32g4xx_hal_dac.c ****       {
 1208              		.loc 1 1140 13 view .LVU367
 1209 0032 1B04     		lsls	r3, r3, #16
 1210 0034 00F1A080 		bmi	.L75
1154:Drivers/STM32G4xx_HAL_Driver/Src/stm32g4xx_hal_dac.c ****       hdac->Instance->SHSR1 = sConfig->DAC_SampleAndHoldConfig.DAC_SampleTime;
 1211              		.loc 1 1154 7 is_stmt 1 view .LVU368
 1212 0038 0120     		movs	r0, #1
 1213 003a FFF7FEFF 		bl	HAL_Delay
 1214              	.LVL77:
1155:Drivers/STM32G4xx_HAL_Driver/Src/stm32g4xx_hal_dac.c ****     }
 1215              		.loc 1 1155 7 view .LVU369
1155:Drivers/STM32G4xx_HAL_Driver/Src/stm32g4xx_hal_dac.c ****     }
 1216              		.loc 1 1155 11 is_stmt 0 view .LVU370
 1217 003e 2368     		ldr	r3, [r4]
1155:Drivers/STM32G4xx_HAL_Driver/Src/stm32g4xx_hal_dac.c ****     }
 1218              		.loc 1 1155 63 view .LVU371
 1219 0040 726A     		ldr	r2, [r6, #36]
1155:Drivers/STM32G4xx_HAL_Driver/Src/stm32g4xx_hal_dac.c ****     }
 1220              		.loc 1 1155 29 view .LVU372
 1221 0042 1A64     		str	r2, [r3, #64]
 1222              	.LVL78:
 1223              	.L76:
1180:Drivers/STM32G4xx_HAL_Driver/Src/stm32g4xx_hal_dac.c ****     /* RefreshTime */
 1224              		.loc 1 1180 5 is_stmt 1 view .LVU373
 1225 0044 2168     		ldr	r1, [r4]
 1226 0046 05F01000 		and	r0, r5, #16
 1227 004a 8A6C     		ldr	r2, [r1, #72]
 1228 004c 40F2FF33 		movw	r3, #1023
 1229 0050 8340     		lsls	r3, r3, r0
 1230 0052 22EA0302 		bic	r2, r2, r3
 1231 0056 B36A     		ldr	r3, [r6, #40]
 1232 0058 8340     		lsls	r3, r3, r0
 1233 005a 1A43     		orrs	r2, r2, r3
 1234 005c 8A64     		str	r2, [r1, #72]
1182:Drivers/STM32G4xx_HAL_Driver/Src/stm32g4xx_hal_dac.c ****   }
 1235              		.loc 1 1182 5 view .LVU374
 1236 005e CB6C     		ldr	r3, [r1, #76]
 1237 0060 FF22     		movs	r2, #255
 1238 0062 8240     		lsls	r2, r2, r0
 1239 0064 23EA0203 		bic	r3, r3, r2
 1240 0068 F26A     		ldr	r2, [r6, #44]
 1241 006a 02FA00F0 		lsl	r0, r2, r0
 1242 006e 0343     		orrs	r3, r3, r0
 1243 0070 CB64     		str	r3, [r1, #76]
 1244              	.L72:
1185:Drivers/STM32G4xx_HAL_Driver/Src/stm32g4xx_hal_dac.c ****     /* USER TRIMMING */
 1245              		.loc 1 1185 3 view .LVU375
1185:Drivers/STM32G4xx_HAL_Driver/Src/stm32g4xx_hal_dac.c ****     /* USER TRIMMING */
 1246              		.loc 1 1185 6 is_stmt 0 view .LVU376
 1247 0072 F369     		ldr	r3, [r6, #28]
 1248 0074 2268     		ldr	r2, [r4]
 1249 0076 012B     		cmp	r3, #1
 1250 0078 05F01005 		and	r5, r5, #16
ARM GAS  /tmp/ccHGeJqL.s 			page 55


 1251              	.LVL79:
1185:Drivers/STM32G4xx_HAL_Driver/Src/stm32g4xx_hal_dac.c ****     /* USER TRIMMING */
 1252              		.loc 1 1185 6 view .LVU377
 1253 007c 08D1     		bne	.L78
1189:Drivers/STM32G4xx_HAL_Driver/Src/stm32g4xx_hal_dac.c ****     /* Clear trimming value */
 1254              		.loc 1 1189 5 is_stmt 1 view .LVU378
1189:Drivers/STM32G4xx_HAL_Driver/Src/stm32g4xx_hal_dac.c ****     /* Clear trimming value */
 1255              		.loc 1 1189 13 is_stmt 0 view .LVU379
 1256 007e 936B     		ldr	r3, [r2, #56]
 1257              	.LVL80:
1191:Drivers/STM32G4xx_HAL_Driver/Src/stm32g4xx_hal_dac.c ****     /* Configure for the selected trimming offset */
 1258              		.loc 1 1191 5 is_stmt 1 view .LVU380
1191:Drivers/STM32G4xx_HAL_Driver/Src/stm32g4xx_hal_dac.c ****     /* Configure for the selected trimming offset */
 1259              		.loc 1 1191 47 is_stmt 0 view .LVU381
 1260 0080 1F21     		movs	r1, #31
 1261 0082 A940     		lsls	r1, r1, r5
1191:Drivers/STM32G4xx_HAL_Driver/Src/stm32g4xx_hal_dac.c ****     /* Configure for the selected trimming offset */
 1262              		.loc 1 1191 13 view .LVU382
 1263 0084 23EA0101 		bic	r1, r3, r1
 1264              	.LVL81:
1193:Drivers/STM32G4xx_HAL_Driver/Src/stm32g4xx_hal_dac.c ****     /* Calculate CCR register value depending on DAC_Channel */
 1265              		.loc 1 1193 5 is_stmt 1 view .LVU383
1195:Drivers/STM32G4xx_HAL_Driver/Src/stm32g4xx_hal_dac.c ****     /* Write to DAC CCR */
 1266              		.loc 1 1195 5 view .LVU384
1195:Drivers/STM32G4xx_HAL_Driver/Src/stm32g4xx_hal_dac.c ****     /* Write to DAC CCR */
 1267              		.loc 1 1195 24 is_stmt 0 view .LVU385
 1268 0088 336A     		ldr	r3, [r6, #32]
 1269 008a AB40     		lsls	r3, r3, r5
1195:Drivers/STM32G4xx_HAL_Driver/Src/stm32g4xx_hal_dac.c ****     /* Write to DAC CCR */
 1270              		.loc 1 1195 13 view .LVU386
 1271 008c 0B43     		orrs	r3, r3, r1
 1272              	.LVL82:
1197:Drivers/STM32G4xx_HAL_Driver/Src/stm32g4xx_hal_dac.c ****   }
 1273              		.loc 1 1197 5 is_stmt 1 view .LVU387
1197:Drivers/STM32G4xx_HAL_Driver/Src/stm32g4xx_hal_dac.c ****   }
 1274              		.loc 1 1197 25 is_stmt 0 view .LVU388
 1275 008e 9363     		str	r3, [r2, #56]
 1276              	.LVL83:
 1277              	.L78:
1203:Drivers/STM32G4xx_HAL_Driver/Src/stm32g4xx_hal_dac.c ****   /* Clear DAC_MCR_MODEx bits */
 1278              		.loc 1 1203 3 is_stmt 1 view .LVU389
1203:Drivers/STM32G4xx_HAL_Driver/Src/stm32g4xx_hal_dac.c ****   /* Clear DAC_MCR_MODEx bits */
 1279              		.loc 1 1203 11 is_stmt 0 view .LVU390
 1280 0090 D36B     		ldr	r3, [r2, #60]
 1281              	.LVL84:
1205:Drivers/STM32G4xx_HAL_Driver/Src/stm32g4xx_hal_dac.c ****   /* Configure for the selected DAC channel: mode, buffer output & on chip peripheral connect */
 1282              		.loc 1 1205 3 is_stmt 1 view .LVU391
 1283 0092 D6E90520 		ldrd	r2, r0, [r6, #20]
1205:Drivers/STM32G4xx_HAL_Driver/Src/stm32g4xx_hal_dac.c ****   /* Configure for the selected DAC channel: mode, buffer output & on chip peripheral connect */
 1284              		.loc 1 1205 44 is_stmt 0 view .LVU392
 1285 0096 0727     		movs	r7, #7
 1286 0098 AF40     		lsls	r7, r7, r5
1205:Drivers/STM32G4xx_HAL_Driver/Src/stm32g4xx_hal_dac.c ****   /* Configure for the selected DAC channel: mode, buffer output & on chip peripheral connect */
 1287              		.loc 1 1205 14 view .LVU393
 1288 009a F943     		mvns	r1, r7
 1289              	.LVL85:
1207:Drivers/STM32G4xx_HAL_Driver/Src/stm32g4xx_hal_dac.c ****   {
ARM GAS  /tmp/ccHGeJqL.s 			page 56


 1290              		.loc 1 1207 3 is_stmt 1 view .LVU394
1207:Drivers/STM32G4xx_HAL_Driver/Src/stm32g4xx_hal_dac.c ****   {
 1291              		.loc 1 1207 6 is_stmt 0 view .LVU395
 1292 009c C707     		lsls	r7, r0, #31
 1293 009e 00F18880 		bmi	.L86
1211:Drivers/STM32G4xx_HAL_Driver/Src/stm32g4xx_hal_dac.c ****   {
 1294              		.loc 1 1211 8 is_stmt 1 view .LVU396
1211:Drivers/STM32G4xx_HAL_Driver/Src/stm32g4xx_hal_dac.c ****   {
 1295              		.loc 1 1211 11 is_stmt 0 view .LVU397
 1296 00a2 8007     		lsls	r0, r0, #30
 1297 00a4 00F18880 		bmi	.L87
1217:Drivers/STM32G4xx_HAL_Driver/Src/stm32g4xx_hal_dac.c ****     {
 1298              		.loc 1 1217 5 is_stmt 1 view .LVU398
1217:Drivers/STM32G4xx_HAL_Driver/Src/stm32g4xx_hal_dac.c ****     {
 1299              		.loc 1 1217 8 is_stmt 0 view .LVU399
 1300 00a8 B2FA82F8 		clz	r8, r2
 1301 00ac 4FEA5818 		lsr	r8, r8, #5
 1302              	.L79:
 1303              	.LVL86:
1226:Drivers/STM32G4xx_HAL_Driver/Src/stm32g4xx_hal_dac.c ****   /* Clear DAC_MCR_DMADOUBLEx */
 1304              		.loc 1 1226 3 is_stmt 1 view .LVU400
1226:Drivers/STM32G4xx_HAL_Driver/Src/stm32g4xx_hal_dac.c ****   /* Clear DAC_MCR_DMADOUBLEx */
 1305              		.loc 1 1226 41 is_stmt 0 view .LVU401
 1306 00b0 B068     		ldr	r0, [r6, #8]
1228:Drivers/STM32G4xx_HAL_Driver/Src/stm32g4xx_hal_dac.c ****   /* Configure for the selected DAC channel: DMA double data mode */
 1307              		.loc 1 1228 49 view .LVU402
 1308 00b2 4FF48077 		mov	r7, #256
1226:Drivers/STM32G4xx_HAL_Driver/Src/stm32g4xx_hal_dac.c ****   /* Clear DAC_MCR_DMADOUBLEx */
 1309              		.loc 1 1226 41 view .LVU403
 1310 00b6 0243     		orrs	r2, r2, r0
1228:Drivers/STM32G4xx_HAL_Driver/Src/stm32g4xx_hal_dac.c ****   /* Configure for the selected DAC channel: DMA double data mode */
 1311              		.loc 1 1228 49 view .LVU404
 1312 00b8 07FA05F0 		lsl	r0, r7, r5
1230:Drivers/STM32G4xx_HAL_Driver/Src/stm32g4xx_hal_dac.c ****   /* Clear DAC_MCR_SINFORMATx */
 1313              		.loc 1 1230 78 view .LVU405
 1314 00bc 3779     		ldrb	r7, [r6, #4]	@ zero_extendqisi2
 1315 00be 012F     		cmp	r7, #1
1232:Drivers/STM32G4xx_HAL_Driver/Src/stm32g4xx_hal_dac.c ****   /* Configure for the selected DAC channel: Signed format */
 1316              		.loc 1 1232 49 view .LVU406
 1317 00c0 4FF40077 		mov	r7, #512
 1318 00c4 07FA05F7 		lsl	r7, r7, r5
 1319 00c8 23EA0707 		bic	r7, r3, r7
1234:Drivers/STM32G4xx_HAL_Driver/Src/stm32g4xx_hal_dac.c ****   /* Clear DAC_MCR_HFSEL bits */
 1320              		.loc 1 1234 73 view .LVU407
 1321 00cc 7379     		ldrb	r3, [r6, #5]	@ zero_extendqisi2
 1322              	.LVL87:
1226:Drivers/STM32G4xx_HAL_Driver/Src/stm32g4xx_hal_dac.c ****   /* Clear DAC_MCR_DMADOUBLEx */
 1323              		.loc 1 1226 11 view .LVU408
 1324 00ce 42EA0802 		orr	r2, r2, r8
 1325              	.LVL88:
1228:Drivers/STM32G4xx_HAL_Driver/Src/stm32g4xx_hal_dac.c ****   /* Configure for the selected DAC channel: DMA double data mode */
 1326              		.loc 1 1228 3 is_stmt 1 view .LVU409
1230:Drivers/STM32G4xx_HAL_Driver/Src/stm32g4xx_hal_dac.c ****   /* Clear DAC_MCR_SINFORMATx */
 1327              		.loc 1 1230 3 view .LVU410
1230:Drivers/STM32G4xx_HAL_Driver/Src/stm32g4xx_hal_dac.c ****   /* Clear DAC_MCR_SINFORMATx */
 1328              		.loc 1 1230 78 is_stmt 0 view .LVU411
 1329 00d2 0CBF     		ite	eq
ARM GAS  /tmp/ccHGeJqL.s 			page 57


 1330 00d4 4FF48078 		moveq	r8, #256
 1331              	.LVL89:
1230:Drivers/STM32G4xx_HAL_Driver/Src/stm32g4xx_hal_dac.c ****   /* Clear DAC_MCR_SINFORMATx */
 1332              		.loc 1 1230 78 view .LVU412
 1333 00d8 4FF00008 		movne	r8, #0
1234:Drivers/STM32G4xx_HAL_Driver/Src/stm32g4xx_hal_dac.c ****   /* Clear DAC_MCR_HFSEL bits */
 1334              		.loc 1 1234 73 view .LVU413
 1335 00dc 012B     		cmp	r3, #1
1238:Drivers/STM32G4xx_HAL_Driver/Src/stm32g4xx_hal_dac.c ****   {
 1336              		.loc 1 1238 61 view .LVU414
 1337 00de 3368     		ldr	r3, [r6]
 1338 00e0 07EA0107 		and	r7, r7, r1
1230:Drivers/STM32G4xx_HAL_Driver/Src/stm32g4xx_hal_dac.c ****   /* Clear DAC_MCR_SINFORMATx */
 1339              		.loc 1 1230 11 view .LVU415
 1340 00e4 48EA0202 		orr	r2, r8, r2
 1341              	.LVL90:
1232:Drivers/STM32G4xx_HAL_Driver/Src/stm32g4xx_hal_dac.c ****   /* Configure for the selected DAC channel: Signed format */
 1342              		.loc 1 1232 3 is_stmt 1 view .LVU416
1232:Drivers/STM32G4xx_HAL_Driver/Src/stm32g4xx_hal_dac.c ****   /* Configure for the selected DAC channel: Signed format */
 1343              		.loc 1 1232 11 is_stmt 0 view .LVU417
 1344 00e8 27EA0007 		bic	r7, r7, r0
 1345              	.LVL91:
1234:Drivers/STM32G4xx_HAL_Driver/Src/stm32g4xx_hal_dac.c ****   /* Clear DAC_MCR_HFSEL bits */
 1346              		.loc 1 1234 3 is_stmt 1 view .LVU418
1234:Drivers/STM32G4xx_HAL_Driver/Src/stm32g4xx_hal_dac.c ****   /* Clear DAC_MCR_HFSEL bits */
 1347              		.loc 1 1234 73 is_stmt 0 view .LVU419
 1348 00ec 0CBF     		ite	eq
 1349 00ee 4FF40078 		moveq	r8, #512
 1350 00f2 4FF00008 		movne	r8, #0
1238:Drivers/STM32G4xx_HAL_Driver/Src/stm32g4xx_hal_dac.c ****   {
 1351              		.loc 1 1238 6 view .LVU420
 1352 00f6 022B     		cmp	r3, #2
1234:Drivers/STM32G4xx_HAL_Driver/Src/stm32g4xx_hal_dac.c ****   /* Clear DAC_MCR_HFSEL bits */
 1353              		.loc 1 1234 11 view .LVU421
 1354 00f8 48EA0208 		orr	r8, r8, r2
 1355              	.LVL92:
1236:Drivers/STM32G4xx_HAL_Driver/Src/stm32g4xx_hal_dac.c ****   /* Configure for both DAC channels: high frequency mode */
 1356              		.loc 1 1236 3 is_stmt 1 view .LVU422
1236:Drivers/STM32G4xx_HAL_Driver/Src/stm32g4xx_hal_dac.c ****   /* Configure for both DAC channels: high frequency mode */
 1357              		.loc 1 1236 11 is_stmt 0 view .LVU423
 1358 00fc 27F44047 		bic	r7, r7, #49152
 1359              	.LVL93:
1238:Drivers/STM32G4xx_HAL_Driver/Src/stm32g4xx_hal_dac.c ****   {
 1360              		.loc 1 1238 3 is_stmt 1 view .LVU424
1238:Drivers/STM32G4xx_HAL_Driver/Src/stm32g4xx_hal_dac.c ****   {
 1361              		.loc 1 1238 6 is_stmt 0 view .LVU425
 1362 0100 63D1     		bne	.L82
1240:Drivers/STM32G4xx_HAL_Driver/Src/stm32g4xx_hal_dac.c ****     if (hclkfreq > HFSEL_ENABLE_THRESHOLD_160MHZ)
 1363              		.loc 1 1240 5 is_stmt 1 view .LVU426
1240:Drivers/STM32G4xx_HAL_Driver/Src/stm32g4xx_hal_dac.c ****     if (hclkfreq > HFSEL_ENABLE_THRESHOLD_160MHZ)
 1364              		.loc 1 1240 16 is_stmt 0 view .LVU427
 1365 0102 FFF7FEFF 		bl	HAL_RCC_GetHCLKFreq
 1366              	.LVL94:
1241:Drivers/STM32G4xx_HAL_Driver/Src/stm32g4xx_hal_dac.c ****     {
 1367              		.loc 1 1241 5 is_stmt 1 view .LVU428
1241:Drivers/STM32G4xx_HAL_Driver/Src/stm32g4xx_hal_dac.c ****     {
 1368              		.loc 1 1241 8 is_stmt 0 view .LVU429
ARM GAS  /tmp/ccHGeJqL.s 			page 58


 1369 0106 324B     		ldr	r3, .L94
 1370 0108 9842     		cmp	r0, r3
 1371 010a 58D9     		bls	.L83
1243:Drivers/STM32G4xx_HAL_Driver/Src/stm32g4xx_hal_dac.c ****     }
 1372              		.loc 1 1243 7 is_stmt 1 view .LVU430
1243:Drivers/STM32G4xx_HAL_Driver/Src/stm32g4xx_hal_dac.c ****     }
 1373              		.loc 1 1243 15 is_stmt 0 view .LVU431
 1374 010c 47F40047 		orr	r7, r7, #32768
 1375              	.LVL95:
 1376              	.L84:
1259:Drivers/STM32G4xx_HAL_Driver/Src/stm32g4xx_hal_dac.c ****   /* Write to DAC MCR */
 1377              		.loc 1 1259 3 is_stmt 1 view .LVU432
1261:Drivers/STM32G4xx_HAL_Driver/Src/stm32g4xx_hal_dac.c **** 
 1378              		.loc 1 1261 7 is_stmt 0 view .LVU433
 1379 0110 2168     		ldr	r1, [r4]
1259:Drivers/STM32G4xx_HAL_Driver/Src/stm32g4xx_hal_dac.c ****   /* Write to DAC MCR */
 1380              		.loc 1 1259 22 view .LVU434
 1381 0112 08FA05F8 		lsl	r8, r8, r5
 1382              	.LVL96:
1259:Drivers/STM32G4xx_HAL_Driver/Src/stm32g4xx_hal_dac.c ****   /* Write to DAC MCR */
 1383              		.loc 1 1259 11 view .LVU435
 1384 0116 48EA0707 		orr	r7, r8, r7
 1385              	.LVL97:
1261:Drivers/STM32G4xx_HAL_Driver/Src/stm32g4xx_hal_dac.c **** 
 1386              		.loc 1 1261 3 is_stmt 1 view .LVU436
1261:Drivers/STM32G4xx_HAL_Driver/Src/stm32g4xx_hal_dac.c **** 
 1387              		.loc 1 1261 23 is_stmt 0 view .LVU437
 1388 011a CF63     		str	r7, [r1, #60]
1264:Drivers/STM32G4xx_HAL_Driver/Src/stm32g4xx_hal_dac.c **** 
 1389              		.loc 1 1264 3 is_stmt 1 view .LVU438
 1390 011c 0B68     		ldr	r3, [r1]
 1391 011e 4FF48042 		mov	r2, #16384
 1392 0122 AA40     		lsls	r2, r2, r5
 1393 0124 23EA0203 		bic	r3, r3, r2
 1394 0128 0B60     		str	r3, [r1]
1267:Drivers/STM32G4xx_HAL_Driver/Src/stm32g4xx_hal_dac.c ****   /* Clear TENx, TSELx, WAVEx and MAMPx bits */
 1395              		.loc 1 1267 3 view .LVU439
1267:Drivers/STM32G4xx_HAL_Driver/Src/stm32g4xx_hal_dac.c ****   /* Clear TENx, TSELx, WAVEx and MAMPx bits */
 1396              		.loc 1 1267 11 is_stmt 0 view .LVU440
 1397 012a 0A68     		ldr	r2, [r1]
 1398              	.LVL98:
1269:Drivers/STM32G4xx_HAL_Driver/Src/stm32g4xx_hal_dac.c ****   /* Configure for the selected DAC channel: trigger */
 1399              		.loc 1 1269 3 is_stmt 1 view .LVU441
1272:Drivers/STM32G4xx_HAL_Driver/Src/stm32g4xx_hal_dac.c ****   /* Calculate CR register value depending on DAC_Channel */
 1400              		.loc 1 1272 11 is_stmt 0 view .LVU442
 1401 012c F368     		ldr	r3, [r6, #12]
1269:Drivers/STM32G4xx_HAL_Driver/Src/stm32g4xx_hal_dac.c ****   /* Configure for the selected DAC channel: trigger */
 1402              		.loc 1 1269 87 view .LVU443
 1403 012e 40F6FE70 		movw	r0, #4094
 1404 0132 A840     		lsls	r0, r0, r5
1269:Drivers/STM32G4xx_HAL_Driver/Src/stm32g4xx_hal_dac.c ****   /* Configure for the selected DAC channel: trigger */
 1405              		.loc 1 1269 11 view .LVU444
 1406 0134 22EA0000 		bic	r0, r2, r0
 1407              	.LVL99:
1272:Drivers/STM32G4xx_HAL_Driver/Src/stm32g4xx_hal_dac.c ****   /* Calculate CR register value depending on DAC_Channel */
 1408              		.loc 1 1272 3 is_stmt 1 view .LVU445
1274:Drivers/STM32G4xx_HAL_Driver/Src/stm32g4xx_hal_dac.c ****   /* Write to DAC CR */
ARM GAS  /tmp/ccHGeJqL.s 			page 59


 1409              		.loc 1 1274 3 view .LVU446
1274:Drivers/STM32G4xx_HAL_Driver/Src/stm32g4xx_hal_dac.c ****   /* Write to DAC CR */
 1410              		.loc 1 1274 22 is_stmt 0 view .LVU447
 1411 0138 03FA05F2 		lsl	r2, r3, r5
1274:Drivers/STM32G4xx_HAL_Driver/Src/stm32g4xx_hal_dac.c ****   /* Write to DAC CR */
 1412              		.loc 1 1274 11 view .LVU448
 1413 013c 0243     		orrs	r2, r2, r0
 1414              	.LVL100:
1276:Drivers/STM32G4xx_HAL_Driver/Src/stm32g4xx_hal_dac.c ****   /* Disable wave generation */
 1415              		.loc 1 1276 3 is_stmt 1 view .LVU449
1276:Drivers/STM32G4xx_HAL_Driver/Src/stm32g4xx_hal_dac.c ****   /* Disable wave generation */
 1416              		.loc 1 1276 22 is_stmt 0 view .LVU450
 1417 013e 0A60     		str	r2, [r1]
1278:Drivers/STM32G4xx_HAL_Driver/Src/stm32g4xx_hal_dac.c **** 
 1418              		.loc 1 1278 3 is_stmt 1 view .LVU451
1278:Drivers/STM32G4xx_HAL_Driver/Src/stm32g4xx_hal_dac.c **** 
 1419              		.loc 1 1278 22 is_stmt 0 view .LVU452
 1420 0140 0A68     		ldr	r2, [r1]
 1421              	.LVL101:
1278:Drivers/STM32G4xx_HAL_Driver/Src/stm32g4xx_hal_dac.c **** 
 1422              		.loc 1 1278 40 view .LVU453
 1423 0142 C020     		movs	r0, #192
 1424 0144 A840     		lsls	r0, r0, r5
1278:Drivers/STM32G4xx_HAL_Driver/Src/stm32g4xx_hal_dac.c **** 
 1425              		.loc 1 1278 22 view .LVU454
 1426 0146 22EA0002 		bic	r2, r2, r0
 1427 014a 0A60     		str	r2, [r1]
 1428              	.LVL102:
1281:Drivers/STM32G4xx_HAL_Driver/Src/stm32g4xx_hal_dac.c ****   tmpreg2 |= ((sConfig->DAC_Trigger2 & DAC_CR_TSEL1) >> DAC_CR_TSEL1_Pos) << DAC_STMODR_STINCTRIGSE
 1429              		.loc 1 1281 3 is_stmt 1 view .LVU455
1281:Drivers/STM32G4xx_HAL_Driver/Src/stm32g4xx_hal_dac.c ****   tmpreg2 |= ((sConfig->DAC_Trigger2 & DAC_CR_TSEL1) >> DAC_CR_TSEL1_Pos) << DAC_STMODR_STINCTRIGSE
 1430              		.loc 1 1281 11 is_stmt 0 view .LVU456
 1431 014c C3F38302 		ubfx	r2, r3, #2, #4
 1432              	.LVL103:
1282:Drivers/STM32G4xx_HAL_Driver/Src/stm32g4xx_hal_dac.c ****   /* Modify STMODR register value depending on DAC_Channel */
 1433              		.loc 1 1282 3 is_stmt 1 view .LVU457
1284:Drivers/STM32G4xx_HAL_Driver/Src/stm32g4xx_hal_dac.c ****   /* Change DAC state */
 1434              		.loc 1 1284 3 view .LVU458
1282:Drivers/STM32G4xx_HAL_Driver/Src/stm32g4xx_hal_dac.c ****   /* Modify STMODR register value depending on DAC_Channel */
 1435              		.loc 1 1282 54 is_stmt 0 view .LVU459
 1436 0150 3369     		ldr	r3, [r6, #16]
1284:Drivers/STM32G4xx_HAL_Driver/Src/stm32g4xx_hal_dac.c ****   /* Change DAC state */
 1437              		.loc 1 1284 3 view .LVU460
