ARM GAS  /tmp/ccDHnVZK.s 			page 1


   1              		.cpu cortex-m4
   2              		.eabi_attribute 27, 1
   3              		.eabi_attribute 28, 1
   4              		.eabi_attribute 20, 1
   5              		.eabi_attribute 21, 1
   6              		.eabi_attribute 23, 3
   7              		.eabi_attribute 24, 1
   8              		.eabi_attribute 25, 1
   9              		.eabi_attribute 26, 1
  10              		.eabi_attribute 30, 4
  11              		.eabi_attribute 34, 1
  12              		.eabi_attribute 18, 4
  13              		.file	"stm32g4xx_hal_exti.c"
  14              		.text
  15              	.Ltext0:
  16              		.cfi_sections	.debug_frame
  17              		.section	.text.HAL_EXTI_SetConfigLine,"ax",%progbits
  18              		.align	1
  19              		.global	HAL_EXTI_SetConfigLine
  20              		.arch armv7e-m
  21              		.syntax unified
  22              		.thumb
  23              		.thumb_func
  24              		.fpu fpv4-sp-d16
  26              	HAL_EXTI_SetConfigLine:
  27              	.LVL0:
  28              	.LFB357:
  29              		.file 1 "Drivers/STM32G4xx_HAL_Driver/Src/stm32g4xx_hal_exti.c"
   1:Drivers/STM32G4xx_HAL_Driver/Src/stm32g4xx_hal_exti.c **** /**
   2:Drivers/STM32G4xx_HAL_Driver/Src/stm32g4xx_hal_exti.c ****   ******************************************************************************
   3:Drivers/STM32G4xx_HAL_Driver/Src/stm32g4xx_hal_exti.c ****   * @file    stm32g4xx_hal_exti.c
   4:Drivers/STM32G4xx_HAL_Driver/Src/stm32g4xx_hal_exti.c ****   * @author  MCD Application Team
   5:Drivers/STM32G4xx_HAL_Driver/Src/stm32g4xx_hal_exti.c ****   * @brief   EXTI HAL module driver.
   6:Drivers/STM32G4xx_HAL_Driver/Src/stm32g4xx_hal_exti.c ****   *          This file provides firmware functions to manage the following
   7:Drivers/STM32G4xx_HAL_Driver/Src/stm32g4xx_hal_exti.c ****   *          functionalities of the Extended Interrupts and events controller (EXTI) peripheral:
   8:Drivers/STM32G4xx_HAL_Driver/Src/stm32g4xx_hal_exti.c ****   *          functionalities of the General Purpose Input/Output (EXTI) peripheral:
   9:Drivers/STM32G4xx_HAL_Driver/Src/stm32g4xx_hal_exti.c ****   *           + Initialization and de-initialization functions
  10:Drivers/STM32G4xx_HAL_Driver/Src/stm32g4xx_hal_exti.c ****   *           + IO operation functions
  11:Drivers/STM32G4xx_HAL_Driver/Src/stm32g4xx_hal_exti.c ****   *
  12:Drivers/STM32G4xx_HAL_Driver/Src/stm32g4xx_hal_exti.c ****   @verbatim
  13:Drivers/STM32G4xx_HAL_Driver/Src/stm32g4xx_hal_exti.c ****   ==============================================================================
  14:Drivers/STM32G4xx_HAL_Driver/Src/stm32g4xx_hal_exti.c ****                     ##### EXTI Peripheral features #####
  15:Drivers/STM32G4xx_HAL_Driver/Src/stm32g4xx_hal_exti.c ****   ==============================================================================
  16:Drivers/STM32G4xx_HAL_Driver/Src/stm32g4xx_hal_exti.c ****   [..]
  17:Drivers/STM32G4xx_HAL_Driver/Src/stm32g4xx_hal_exti.c ****     (+) Each Exti line can be configured within this driver.
  18:Drivers/STM32G4xx_HAL_Driver/Src/stm32g4xx_hal_exti.c **** 
  19:Drivers/STM32G4xx_HAL_Driver/Src/stm32g4xx_hal_exti.c ****     (+) Exti line can be configured in 3 different modes
  20:Drivers/STM32G4xx_HAL_Driver/Src/stm32g4xx_hal_exti.c ****         (++) Interrupt
  21:Drivers/STM32G4xx_HAL_Driver/Src/stm32g4xx_hal_exti.c ****         (++) Event
  22:Drivers/STM32G4xx_HAL_Driver/Src/stm32g4xx_hal_exti.c ****         (++) Both of them
  23:Drivers/STM32G4xx_HAL_Driver/Src/stm32g4xx_hal_exti.c **** 
  24:Drivers/STM32G4xx_HAL_Driver/Src/stm32g4xx_hal_exti.c ****     (+) Configurable Exti lines can be configured with 3 different triggers
  25:Drivers/STM32G4xx_HAL_Driver/Src/stm32g4xx_hal_exti.c ****         (++) Rising
  26:Drivers/STM32G4xx_HAL_Driver/Src/stm32g4xx_hal_exti.c ****         (++) Falling
  27:Drivers/STM32G4xx_HAL_Driver/Src/stm32g4xx_hal_exti.c ****         (++) Both of them
  28:Drivers/STM32G4xx_HAL_Driver/Src/stm32g4xx_hal_exti.c **** 
  29:Drivers/STM32G4xx_HAL_Driver/Src/stm32g4xx_hal_exti.c ****     (+) When set in interrupt mode, configurable Exti lines have two different
ARM GAS  /tmp/ccDHnVZK.s 			page 2


  30:Drivers/STM32G4xx_HAL_Driver/Src/stm32g4xx_hal_exti.c ****         interrupt pending registers which allow to distinguish which transition
  31:Drivers/STM32G4xx_HAL_Driver/Src/stm32g4xx_hal_exti.c ****         occurs:
  32:Drivers/STM32G4xx_HAL_Driver/Src/stm32g4xx_hal_exti.c ****         (++) Rising edge pending interrupt
  33:Drivers/STM32G4xx_HAL_Driver/Src/stm32g4xx_hal_exti.c ****         (++) Falling
  34:Drivers/STM32G4xx_HAL_Driver/Src/stm32g4xx_hal_exti.c **** 
  35:Drivers/STM32G4xx_HAL_Driver/Src/stm32g4xx_hal_exti.c ****     (+) Exti lines 0 to 15 are linked to gpio pin number 0 to 15. Gpio port can
  36:Drivers/STM32G4xx_HAL_Driver/Src/stm32g4xx_hal_exti.c ****         be selected through multiplexer.
  37:Drivers/STM32G4xx_HAL_Driver/Src/stm32g4xx_hal_exti.c **** 
  38:Drivers/STM32G4xx_HAL_Driver/Src/stm32g4xx_hal_exti.c ****                      ##### How to use this driver #####
  39:Drivers/STM32G4xx_HAL_Driver/Src/stm32g4xx_hal_exti.c ****   ==============================================================================
  40:Drivers/STM32G4xx_HAL_Driver/Src/stm32g4xx_hal_exti.c ****   [..]
  41:Drivers/STM32G4xx_HAL_Driver/Src/stm32g4xx_hal_exti.c **** 
  42:Drivers/STM32G4xx_HAL_Driver/Src/stm32g4xx_hal_exti.c ****     (#) Configure the EXTI line using HAL_EXTI_SetConfigLine().
  43:Drivers/STM32G4xx_HAL_Driver/Src/stm32g4xx_hal_exti.c ****         (++) Choose the interrupt line number by setting "Line" member from
  44:Drivers/STM32G4xx_HAL_Driver/Src/stm32g4xx_hal_exti.c ****              EXTI_ConfigTypeDef structure.
  45:Drivers/STM32G4xx_HAL_Driver/Src/stm32g4xx_hal_exti.c ****         (++) Configure the interrupt and/or event mode using "Mode" member from
  46:Drivers/STM32G4xx_HAL_Driver/Src/stm32g4xx_hal_exti.c ****              EXTI_ConfigTypeDef structure.
  47:Drivers/STM32G4xx_HAL_Driver/Src/stm32g4xx_hal_exti.c ****         (++) For configurable lines, configure rising and/or falling trigger
  48:Drivers/STM32G4xx_HAL_Driver/Src/stm32g4xx_hal_exti.c ****              "Trigger" member from EXTI_ConfigTypeDef structure.
  49:Drivers/STM32G4xx_HAL_Driver/Src/stm32g4xx_hal_exti.c ****         (++) For Exti lines linked to gpio, choose gpio port using "GPIOSel"
  50:Drivers/STM32G4xx_HAL_Driver/Src/stm32g4xx_hal_exti.c ****              member from GPIO_InitTypeDef structure.
  51:Drivers/STM32G4xx_HAL_Driver/Src/stm32g4xx_hal_exti.c **** 
  52:Drivers/STM32G4xx_HAL_Driver/Src/stm32g4xx_hal_exti.c ****     (#) Get current Exti configuration of a dedicated line using
  53:Drivers/STM32G4xx_HAL_Driver/Src/stm32g4xx_hal_exti.c ****         HAL_EXTI_GetConfigLine().
  54:Drivers/STM32G4xx_HAL_Driver/Src/stm32g4xx_hal_exti.c ****         (++) Provide exiting handle as parameter.
  55:Drivers/STM32G4xx_HAL_Driver/Src/stm32g4xx_hal_exti.c ****         (++) Provide pointer on EXTI_ConfigTypeDef structure as second parameter.
  56:Drivers/STM32G4xx_HAL_Driver/Src/stm32g4xx_hal_exti.c **** 
  57:Drivers/STM32G4xx_HAL_Driver/Src/stm32g4xx_hal_exti.c ****     (#) Clear Exti configuration of a dedicated line using HAL_EXTI_GetConfigLine().
  58:Drivers/STM32G4xx_HAL_Driver/Src/stm32g4xx_hal_exti.c ****         (++) Provide exiting handle as parameter.
  59:Drivers/STM32G4xx_HAL_Driver/Src/stm32g4xx_hal_exti.c **** 
  60:Drivers/STM32G4xx_HAL_Driver/Src/stm32g4xx_hal_exti.c ****     (#) Register callback to treat Exti interrupts using HAL_EXTI_RegisterCallback().
  61:Drivers/STM32G4xx_HAL_Driver/Src/stm32g4xx_hal_exti.c ****         (++) Provide exiting handle as first parameter.
  62:Drivers/STM32G4xx_HAL_Driver/Src/stm32g4xx_hal_exti.c ****         (++) Provide which callback will be registered using one value from
  63:Drivers/STM32G4xx_HAL_Driver/Src/stm32g4xx_hal_exti.c ****              EXTI_CallbackIDTypeDef.
  64:Drivers/STM32G4xx_HAL_Driver/Src/stm32g4xx_hal_exti.c ****         (++) Provide callback function pointer.
  65:Drivers/STM32G4xx_HAL_Driver/Src/stm32g4xx_hal_exti.c **** 
  66:Drivers/STM32G4xx_HAL_Driver/Src/stm32g4xx_hal_exti.c ****     (#) Get interrupt pending bit using HAL_EXTI_GetPending().
  67:Drivers/STM32G4xx_HAL_Driver/Src/stm32g4xx_hal_exti.c **** 
  68:Drivers/STM32G4xx_HAL_Driver/Src/stm32g4xx_hal_exti.c ****     (#) Clear interrupt pending bit using HAL_EXTI_ClearPending().
  69:Drivers/STM32G4xx_HAL_Driver/Src/stm32g4xx_hal_exti.c **** 
  70:Drivers/STM32G4xx_HAL_Driver/Src/stm32g4xx_hal_exti.c ****     (#) Generate software interrupt using HAL_EXTI_GenerateSWI().
  71:Drivers/STM32G4xx_HAL_Driver/Src/stm32g4xx_hal_exti.c **** 
  72:Drivers/STM32G4xx_HAL_Driver/Src/stm32g4xx_hal_exti.c ****   @endverbatim
  73:Drivers/STM32G4xx_HAL_Driver/Src/stm32g4xx_hal_exti.c ****   ******************************************************************************
  74:Drivers/STM32G4xx_HAL_Driver/Src/stm32g4xx_hal_exti.c ****   * @attention
  75:Drivers/STM32G4xx_HAL_Driver/Src/stm32g4xx_hal_exti.c ****   *
  76:Drivers/STM32G4xx_HAL_Driver/Src/stm32g4xx_hal_exti.c ****   * <h2><center>&copy; Copyright (c) 2019 STMicroelectronics.
  77:Drivers/STM32G4xx_HAL_Driver/Src/stm32g4xx_hal_exti.c ****   * All rights reserved.</center></h2>
  78:Drivers/STM32G4xx_HAL_Driver/Src/stm32g4xx_hal_exti.c ****   *
  79:Drivers/STM32G4xx_HAL_Driver/Src/stm32g4xx_hal_exti.c ****   * This software component is licensed by ST under BSD 3-Clause license,
  80:Drivers/STM32G4xx_HAL_Driver/Src/stm32g4xx_hal_exti.c ****   * the "License"; You may not use this file except in compliance with the
  81:Drivers/STM32G4xx_HAL_Driver/Src/stm32g4xx_hal_exti.c ****   * License. You may obtain a copy of the License at:
  82:Drivers/STM32G4xx_HAL_Driver/Src/stm32g4xx_hal_exti.c ****   *                        opensource.org/licenses/BSD-3-Clause
  83:Drivers/STM32G4xx_HAL_Driver/Src/stm32g4xx_hal_exti.c ****   *
  84:Drivers/STM32G4xx_HAL_Driver/Src/stm32g4xx_hal_exti.c ****   ******************************************************************************
  85:Drivers/STM32G4xx_HAL_Driver/Src/stm32g4xx_hal_exti.c ****   */
  86:Drivers/STM32G4xx_HAL_Driver/Src/stm32g4xx_hal_exti.c **** 
ARM GAS  /tmp/ccDHnVZK.s 			page 3


  87:Drivers/STM32G4xx_HAL_Driver/Src/stm32g4xx_hal_exti.c **** /* Includes ------------------------------------------------------------------*/
  88:Drivers/STM32G4xx_HAL_Driver/Src/stm32g4xx_hal_exti.c **** #include "stm32g4xx_hal.h"
  89:Drivers/STM32G4xx_HAL_Driver/Src/stm32g4xx_hal_exti.c **** 
  90:Drivers/STM32G4xx_HAL_Driver/Src/stm32g4xx_hal_exti.c **** /** @addtogroup STM32G4xx_HAL_Driver
  91:Drivers/STM32G4xx_HAL_Driver/Src/stm32g4xx_hal_exti.c ****   * @{
  92:Drivers/STM32G4xx_HAL_Driver/Src/stm32g4xx_hal_exti.c ****   */
  93:Drivers/STM32G4xx_HAL_Driver/Src/stm32g4xx_hal_exti.c **** 
  94:Drivers/STM32G4xx_HAL_Driver/Src/stm32g4xx_hal_exti.c **** /** @addtogroup EXTI
  95:Drivers/STM32G4xx_HAL_Driver/Src/stm32g4xx_hal_exti.c ****   * @{
  96:Drivers/STM32G4xx_HAL_Driver/Src/stm32g4xx_hal_exti.c ****   */
  97:Drivers/STM32G4xx_HAL_Driver/Src/stm32g4xx_hal_exti.c **** /** MISRA C:2012 deviation rule has been granted for following rule:
  98:Drivers/STM32G4xx_HAL_Driver/Src/stm32g4xx_hal_exti.c ****   * Rule-18.1_b - Medium: Array `EXTICR' 1st subscript interval [0,7] may be out
  99:Drivers/STM32G4xx_HAL_Driver/Src/stm32g4xx_hal_exti.c ****   * of bounds [0,3] in following API :
 100:Drivers/STM32G4xx_HAL_Driver/Src/stm32g4xx_hal_exti.c ****   * HAL_EXTI_SetConfigLine
 101:Drivers/STM32G4xx_HAL_Driver/Src/stm32g4xx_hal_exti.c ****   * HAL_EXTI_GetConfigLine
 102:Drivers/STM32G4xx_HAL_Driver/Src/stm32g4xx_hal_exti.c ****   * HAL_EXTI_ClearConfigLine
 103:Drivers/STM32G4xx_HAL_Driver/Src/stm32g4xx_hal_exti.c ****   */
 104:Drivers/STM32G4xx_HAL_Driver/Src/stm32g4xx_hal_exti.c **** 
 105:Drivers/STM32G4xx_HAL_Driver/Src/stm32g4xx_hal_exti.c **** #ifdef HAL_EXTI_MODULE_ENABLED
 106:Drivers/STM32G4xx_HAL_Driver/Src/stm32g4xx_hal_exti.c **** 
 107:Drivers/STM32G4xx_HAL_Driver/Src/stm32g4xx_hal_exti.c **** /* Private typedef -----------------------------------------------------------*/
 108:Drivers/STM32G4xx_HAL_Driver/Src/stm32g4xx_hal_exti.c **** /* Private defines ------------------------------------------------------------*/
 109:Drivers/STM32G4xx_HAL_Driver/Src/stm32g4xx_hal_exti.c **** /** @defgroup EXTI_Private_Constants EXTI Private Constants
 110:Drivers/STM32G4xx_HAL_Driver/Src/stm32g4xx_hal_exti.c ****   * @{
 111:Drivers/STM32G4xx_HAL_Driver/Src/stm32g4xx_hal_exti.c ****   */
 112:Drivers/STM32G4xx_HAL_Driver/Src/stm32g4xx_hal_exti.c **** #define EXTI_MODE_OFFSET                    0x08U   /* 0x20: offset between MCU IMR/EMR registers *
 113:Drivers/STM32G4xx_HAL_Driver/Src/stm32g4xx_hal_exti.c **** #define EXTI_CONFIG_OFFSET                  0x08U   /* 0x20: offset between MCU Rising/Falling conf
 114:Drivers/STM32G4xx_HAL_Driver/Src/stm32g4xx_hal_exti.c **** /**
 115:Drivers/STM32G4xx_HAL_Driver/Src/stm32g4xx_hal_exti.c ****   * @}
 116:Drivers/STM32G4xx_HAL_Driver/Src/stm32g4xx_hal_exti.c ****   */
 117:Drivers/STM32G4xx_HAL_Driver/Src/stm32g4xx_hal_exti.c **** 
 118:Drivers/STM32G4xx_HAL_Driver/Src/stm32g4xx_hal_exti.c **** /* Private macros ------------------------------------------------------------*/
 119:Drivers/STM32G4xx_HAL_Driver/Src/stm32g4xx_hal_exti.c **** /* Private variables ---------------------------------------------------------*/
 120:Drivers/STM32G4xx_HAL_Driver/Src/stm32g4xx_hal_exti.c **** /* Private function prototypes -----------------------------------------------*/
 121:Drivers/STM32G4xx_HAL_Driver/Src/stm32g4xx_hal_exti.c **** /* Exported functions --------------------------------------------------------*/
 122:Drivers/STM32G4xx_HAL_Driver/Src/stm32g4xx_hal_exti.c **** 
 123:Drivers/STM32G4xx_HAL_Driver/Src/stm32g4xx_hal_exti.c **** /** @addtogroup EXTI_Exported_Functions
 124:Drivers/STM32G4xx_HAL_Driver/Src/stm32g4xx_hal_exti.c ****   * @{
 125:Drivers/STM32G4xx_HAL_Driver/Src/stm32g4xx_hal_exti.c ****   */
 126:Drivers/STM32G4xx_HAL_Driver/Src/stm32g4xx_hal_exti.c **** 
 127:Drivers/STM32G4xx_HAL_Driver/Src/stm32g4xx_hal_exti.c **** /** @addtogroup EXTI_Exported_Functions_Group1
 128:Drivers/STM32G4xx_HAL_Driver/Src/stm32g4xx_hal_exti.c ****   *  @brief    Configuration functions
 129:Drivers/STM32G4xx_HAL_Driver/Src/stm32g4xx_hal_exti.c ****   *
 130:Drivers/STM32G4xx_HAL_Driver/Src/stm32g4xx_hal_exti.c **** @verbatim
 131:Drivers/STM32G4xx_HAL_Driver/Src/stm32g4xx_hal_exti.c ****  ===============================================================================
 132:Drivers/STM32G4xx_HAL_Driver/Src/stm32g4xx_hal_exti.c ****               ##### Configuration functions #####
 133:Drivers/STM32G4xx_HAL_Driver/Src/stm32g4xx_hal_exti.c ****  ===============================================================================
 134:Drivers/STM32G4xx_HAL_Driver/Src/stm32g4xx_hal_exti.c **** 
 135:Drivers/STM32G4xx_HAL_Driver/Src/stm32g4xx_hal_exti.c **** @endverbatim
 136:Drivers/STM32G4xx_HAL_Driver/Src/stm32g4xx_hal_exti.c ****   * @{
 137:Drivers/STM32G4xx_HAL_Driver/Src/stm32g4xx_hal_exti.c ****   */
 138:Drivers/STM32G4xx_HAL_Driver/Src/stm32g4xx_hal_exti.c **** 
 139:Drivers/STM32G4xx_HAL_Driver/Src/stm32g4xx_hal_exti.c **** /**
 140:Drivers/STM32G4xx_HAL_Driver/Src/stm32g4xx_hal_exti.c ****   * @brief  Set configuration of a dedicated Exti line.
 141:Drivers/STM32G4xx_HAL_Driver/Src/stm32g4xx_hal_exti.c ****   * @param  hexti Exti handle.
 142:Drivers/STM32G4xx_HAL_Driver/Src/stm32g4xx_hal_exti.c ****   * @param  pExtiConfig Pointer on EXTI configuration to be set.
 143:Drivers/STM32G4xx_HAL_Driver/Src/stm32g4xx_hal_exti.c ****   * @retval HAL Status.
ARM GAS  /tmp/ccDHnVZK.s 			page 4


 144:Drivers/STM32G4xx_HAL_Driver/Src/stm32g4xx_hal_exti.c ****   */
 145:Drivers/STM32G4xx_HAL_Driver/Src/stm32g4xx_hal_exti.c **** HAL_StatusTypeDef HAL_EXTI_SetConfigLine(EXTI_HandleTypeDef *hexti, EXTI_ConfigTypeDef *pExtiConfig
 146:Drivers/STM32G4xx_HAL_Driver/Src/stm32g4xx_hal_exti.c **** {
  30              		.loc 1 146 1 view -0
  31              		.cfi_startproc
  32              		@ args = 0, pretend = 0, frame = 0
  33              		@ frame_needed = 0, uses_anonymous_args = 0
 147:Drivers/STM32G4xx_HAL_Driver/Src/stm32g4xx_hal_exti.c ****   __IO uint32_t *regaddr;
  34              		.loc 1 147 3 view .LVU1
 148:Drivers/STM32G4xx_HAL_Driver/Src/stm32g4xx_hal_exti.c ****   uint32_t regval;
  35              		.loc 1 148 3 view .LVU2
 149:Drivers/STM32G4xx_HAL_Driver/Src/stm32g4xx_hal_exti.c ****   uint32_t linepos;
  36              		.loc 1 149 3 view .LVU3
 150:Drivers/STM32G4xx_HAL_Driver/Src/stm32g4xx_hal_exti.c ****   uint32_t maskline;
  37              		.loc 1 150 3 view .LVU4
 151:Drivers/STM32G4xx_HAL_Driver/Src/stm32g4xx_hal_exti.c ****   uint32_t offset;
  38              		.loc 1 151 3 view .LVU5
 152:Drivers/STM32G4xx_HAL_Driver/Src/stm32g4xx_hal_exti.c **** 
 153:Drivers/STM32G4xx_HAL_Driver/Src/stm32g4xx_hal_exti.c ****   /* Check null pointer */
 154:Drivers/STM32G4xx_HAL_Driver/Src/stm32g4xx_hal_exti.c ****   if ((hexti == NULL) || (pExtiConfig == NULL))
  39              		.loc 1 154 3 view .LVU6
 146:Drivers/STM32G4xx_HAL_Driver/Src/stm32g4xx_hal_exti.c ****   __IO uint32_t *regaddr;
  40              		.loc 1 146 1 is_stmt 0 view .LVU7
  41 0000 F0B5     		push	{r4, r5, r6, r7, lr}
  42              	.LCFI0:
  43              		.cfi_def_cfa_offset 20
  44              		.cfi_offset 4, -20
  45              		.cfi_offset 5, -16
  46              		.cfi_offset 6, -12
  47              		.cfi_offset 7, -8
  48              		.cfi_offset 14, -4
  49              		.loc 1 154 6 view .LVU8
  50 0002 0028     		cmp	r0, #0
  51 0004 4DD0     		beq	.L15
  52              		.loc 1 154 23 discriminator 1 view .LVU9
  53 0006 0029     		cmp	r1, #0
  54 0008 4BD0     		beq	.L15
 155:Drivers/STM32G4xx_HAL_Driver/Src/stm32g4xx_hal_exti.c ****   {
 156:Drivers/STM32G4xx_HAL_Driver/Src/stm32g4xx_hal_exti.c ****     return HAL_ERROR;
 157:Drivers/STM32G4xx_HAL_Driver/Src/stm32g4xx_hal_exti.c ****   }
 158:Drivers/STM32G4xx_HAL_Driver/Src/stm32g4xx_hal_exti.c **** 
 159:Drivers/STM32G4xx_HAL_Driver/Src/stm32g4xx_hal_exti.c ****   /* Check parameters */
 160:Drivers/STM32G4xx_HAL_Driver/Src/stm32g4xx_hal_exti.c ****   assert_param(IS_EXTI_LINE(pExtiConfig->Line));
  55              		.loc 1 160 3 is_stmt 1 view .LVU10
 161:Drivers/STM32G4xx_HAL_Driver/Src/stm32g4xx_hal_exti.c ****   assert_param(IS_EXTI_MODE(pExtiConfig->Mode));
  56              		.loc 1 161 3 view .LVU11
 162:Drivers/STM32G4xx_HAL_Driver/Src/stm32g4xx_hal_exti.c **** 
 163:Drivers/STM32G4xx_HAL_Driver/Src/stm32g4xx_hal_exti.c ****   /* Assign line number to handle */
 164:Drivers/STM32G4xx_HAL_Driver/Src/stm32g4xx_hal_exti.c ****   hexti->Line = pExtiConfig->Line;
  57              		.loc 1 164 3 view .LVU12
  58              		.loc 1 164 28 is_stmt 0 view .LVU13
  59 000a 0A68     		ldr	r2, [r1]
  60              		.loc 1 164 15 view .LVU14
  61 000c 0260     		str	r2, [r0]
 165:Drivers/STM32G4xx_HAL_Driver/Src/stm32g4xx_hal_exti.c **** 
 166:Drivers/STM32G4xx_HAL_Driver/Src/stm32g4xx_hal_exti.c ****   /* Compute line register offset */
 167:Drivers/STM32G4xx_HAL_Driver/Src/stm32g4xx_hal_exti.c ****   offset = ((pExtiConfig->Line & EXTI_REG_MASK) >> EXTI_REG_SHIFT);
ARM GAS  /tmp/ccDHnVZK.s 			page 5


  62              		.loc 1 167 3 is_stmt 1 view .LVU15
  63              	.LVL1:
 168:Drivers/STM32G4xx_HAL_Driver/Src/stm32g4xx_hal_exti.c ****   /* Compute line position */
 169:Drivers/STM32G4xx_HAL_Driver/Src/stm32g4xx_hal_exti.c ****   linepos = (pExtiConfig->Line & EXTI_PIN_MASK);
  64              		.loc 1 169 3 view .LVU16
  65              		.loc 1 169 11 is_stmt 0 view .LVU17
  66 000e 02F01F04 		and	r4, r2, #31
  67              	.LVL2:
 170:Drivers/STM32G4xx_HAL_Driver/Src/stm32g4xx_hal_exti.c ****   /* Compute line mask */
 171:Drivers/STM32G4xx_HAL_Driver/Src/stm32g4xx_hal_exti.c ****   maskline = (1uL << linepos);
  68              		.loc 1 171 3 is_stmt 1 view .LVU18
  69              		.loc 1 171 12 is_stmt 0 view .LVU19
  70 0012 0123     		movs	r3, #1
 167:Drivers/STM32G4xx_HAL_Driver/Src/stm32g4xx_hal_exti.c ****   /* Compute line position */
  71              		.loc 1 167 10 view .LVU20
  72 0014 C2F30040 		ubfx	r0, r2, #16, #1
  73              	.LVL3:
 172:Drivers/STM32G4xx_HAL_Driver/Src/stm32g4xx_hal_exti.c **** 
 173:Drivers/STM32G4xx_HAL_Driver/Src/stm32g4xx_hal_exti.c ****   /* Configure triggers for configurable lines */
 174:Drivers/STM32G4xx_HAL_Driver/Src/stm32g4xx_hal_exti.c ****   if ((pExtiConfig->Line & EXTI_CONFIG) != 0x00u)
  74              		.loc 1 174 6 view .LVU21
  75 0018 9501     		lsls	r5, r2, #6
 171:Drivers/STM32G4xx_HAL_Driver/Src/stm32g4xx_hal_exti.c **** 
  76              		.loc 1 171 12 view .LVU22
  77 001a 03FA04F3 		lsl	r3, r3, r4
  78              	.LVL4:
  79              		.loc 1 174 3 is_stmt 1 view .LVU23
  80 001e 4FEA4010 		lsl	r0, r0, #5
  81              		.loc 1 174 6 is_stmt 0 view .LVU24
  82 0022 28D5     		bpl	.L4
 175:Drivers/STM32G4xx_HAL_Driver/Src/stm32g4xx_hal_exti.c ****   {
 176:Drivers/STM32G4xx_HAL_Driver/Src/stm32g4xx_hal_exti.c ****     assert_param(IS_EXTI_TRIGGER(pExtiConfig->Trigger));
  83              		.loc 1 176 5 is_stmt 1 view .LVU25
 177:Drivers/STM32G4xx_HAL_Driver/Src/stm32g4xx_hal_exti.c **** 
 178:Drivers/STM32G4xx_HAL_Driver/Src/stm32g4xx_hal_exti.c ****     /* Configure rising trigger */
 179:Drivers/STM32G4xx_HAL_Driver/Src/stm32g4xx_hal_exti.c ****     regaddr = (&EXTI->RTSR1 + (EXTI_CONFIG_OFFSET * offset));
  84              		.loc 1 179 5 view .LVU26
  85              		.loc 1 179 13 is_stmt 0 view .LVU27
  86 0024 204E     		ldr	r6, .L16
  87              	.LVL5:
 180:Drivers/STM32G4xx_HAL_Driver/Src/stm32g4xx_hal_exti.c ****     regval = *regaddr;
  88              		.loc 1 180 5 is_stmt 1 view .LVU28
 181:Drivers/STM32G4xx_HAL_Driver/Src/stm32g4xx_hal_exti.c **** 
 182:Drivers/STM32G4xx_HAL_Driver/Src/stm32g4xx_hal_exti.c ****     /* Mask or set line */
 183:Drivers/STM32G4xx_HAL_Driver/Src/stm32g4xx_hal_exti.c ****     if ((pExtiConfig->Trigger & EXTI_TRIGGER_RISING) != 0x00u)
  89              		.loc 1 183 31 is_stmt 0 view .LVU29
  90 0026 8F68     		ldr	r7, [r1, #8]
 180:Drivers/STM32G4xx_HAL_Driver/Src/stm32g4xx_hal_exti.c ****     regval = *regaddr;
  91              		.loc 1 180 12 view .LVU30
  92 0028 8559     		ldr	r5, [r0, r6]
  93              	.LVL6:
  94              		.loc 1 183 5 is_stmt 1 view .LVU31
  95              		.loc 1 183 8 is_stmt 0 view .LVU32
  96 002a FF07     		lsls	r7, r7, #31
 184:Drivers/STM32G4xx_HAL_Driver/Src/stm32g4xx_hal_exti.c ****     {
 185:Drivers/STM32G4xx_HAL_Driver/Src/stm32g4xx_hal_exti.c ****       regval |= maskline;
  97              		.loc 1 185 7 is_stmt 1 view .LVU33
ARM GAS  /tmp/ccDHnVZK.s 			page 6


  98              		.loc 1 185 14 is_stmt 0 view .LVU34
  99 002c 4CBF     		ite	mi
 100 002e 1D43     		orrmi	r5, r5, r3
 101              	.LVL7:
 186:Drivers/STM32G4xx_HAL_Driver/Src/stm32g4xx_hal_exti.c ****     }
 187:Drivers/STM32G4xx_HAL_Driver/Src/stm32g4xx_hal_exti.c ****     else
 188:Drivers/STM32G4xx_HAL_Driver/Src/stm32g4xx_hal_exti.c ****     {
 189:Drivers/STM32G4xx_HAL_Driver/Src/stm32g4xx_hal_exti.c ****       regval &= ~maskline;
 102              		.loc 1 189 7 is_stmt 1 view .LVU35
 103              		.loc 1 189 14 is_stmt 0 view .LVU36
 104 0030 9D43     		bicpl	r5, r5, r3
 105              	.LVL8:
 190:Drivers/STM32G4xx_HAL_Driver/Src/stm32g4xx_hal_exti.c ****     }
 191:Drivers/STM32G4xx_HAL_Driver/Src/stm32g4xx_hal_exti.c **** 
 192:Drivers/STM32G4xx_HAL_Driver/Src/stm32g4xx_hal_exti.c ****     /* Store rising trigger mode */
 193:Drivers/STM32G4xx_HAL_Driver/Src/stm32g4xx_hal_exti.c ****     *regaddr = regval;
 106              		.loc 1 193 5 is_stmt 1 view .LVU37
 107              		.loc 1 193 14 is_stmt 0 view .LVU38
 108 0032 8551     		str	r5, [r0, r6]
 194:Drivers/STM32G4xx_HAL_Driver/Src/stm32g4xx_hal_exti.c **** 
 195:Drivers/STM32G4xx_HAL_Driver/Src/stm32g4xx_hal_exti.c ****     /* Configure falling trigger */
 196:Drivers/STM32G4xx_HAL_Driver/Src/stm32g4xx_hal_exti.c ****     regaddr = (&EXTI->FTSR1 + (EXTI_CONFIG_OFFSET * offset));
 109              		.loc 1 196 5 is_stmt 1 view .LVU39
 110              		.loc 1 196 13 is_stmt 0 view .LVU40
 111 0034 1D4E     		ldr	r6, .L16+4
 112              	.LVL9:
 197:Drivers/STM32G4xx_HAL_Driver/Src/stm32g4xx_hal_exti.c ****     regval = *regaddr;
 113              		.loc 1 197 5 is_stmt 1 view .LVU41
 198:Drivers/STM32G4xx_HAL_Driver/Src/stm32g4xx_hal_exti.c **** 
 199:Drivers/STM32G4xx_HAL_Driver/Src/stm32g4xx_hal_exti.c ****     /* Mask or set line */
 200:Drivers/STM32G4xx_HAL_Driver/Src/stm32g4xx_hal_exti.c ****     if ((pExtiConfig->Trigger & EXTI_TRIGGER_FALLING) != 0x00u)
 114              		.loc 1 200 31 is_stmt 0 view .LVU42
 115 0036 8F68     		ldr	r7, [r1, #8]
 197:Drivers/STM32G4xx_HAL_Driver/Src/stm32g4xx_hal_exti.c ****     regval = *regaddr;
 116              		.loc 1 197 12 view .LVU43
 117 0038 8559     		ldr	r5, [r0, r6]
 118              	.LVL10:
 119              		.loc 1 200 5 is_stmt 1 view .LVU44
 120              		.loc 1 200 8 is_stmt 0 view .LVU45
 121 003a BF07     		lsls	r7, r7, #30
 201:Drivers/STM32G4xx_HAL_Driver/Src/stm32g4xx_hal_exti.c ****     {
 202:Drivers/STM32G4xx_HAL_Driver/Src/stm32g4xx_hal_exti.c ****       regval |= maskline;
 122              		.loc 1 202 7 is_stmt 1 view .LVU46
 123              		.loc 1 202 14 is_stmt 0 view .LVU47
 124 003c 4CBF     		ite	mi
 125 003e 1D43     		orrmi	r5, r5, r3
 126              	.LVL11:
 203:Drivers/STM32G4xx_HAL_Driver/Src/stm32g4xx_hal_exti.c ****     }
 204:Drivers/STM32G4xx_HAL_Driver/Src/stm32g4xx_hal_exti.c ****     else
 205:Drivers/STM32G4xx_HAL_Driver/Src/stm32g4xx_hal_exti.c ****     {
 206:Drivers/STM32G4xx_HAL_Driver/Src/stm32g4xx_hal_exti.c ****       regval &= ~maskline;
 127              		.loc 1 206 7 is_stmt 1 view .LVU48
 128              		.loc 1 206 14 is_stmt 0 view .LVU49
 129 0040 9D43     		bicpl	r5, r5, r3
 130              	.LVL12:
 207:Drivers/STM32G4xx_HAL_Driver/Src/stm32g4xx_hal_exti.c ****     }
 208:Drivers/STM32G4xx_HAL_Driver/Src/stm32g4xx_hal_exti.c **** 
ARM GAS  /tmp/ccDHnVZK.s 			page 7


 209:Drivers/STM32G4xx_HAL_Driver/Src/stm32g4xx_hal_exti.c ****     /* Store falling trigger mode */
 210:Drivers/STM32G4xx_HAL_Driver/Src/stm32g4xx_hal_exti.c ****     *regaddr = regval;
 131              		.loc 1 210 5 is_stmt 1 view .LVU50
 132              		.loc 1 210 14 is_stmt 0 view .LVU51
 133 0042 8551     		str	r5, [r0, r6]
 211:Drivers/STM32G4xx_HAL_Driver/Src/stm32g4xx_hal_exti.c **** 
 212:Drivers/STM32G4xx_HAL_Driver/Src/stm32g4xx_hal_exti.c ****     /* Configure gpio port selection in case of gpio exti line */
 213:Drivers/STM32G4xx_HAL_Driver/Src/stm32g4xx_hal_exti.c ****     if ((pExtiConfig->Line & EXTI_GPIO) == EXTI_GPIO)
 134              		.loc 1 213 5 is_stmt 1 view .LVU52
 135              		.loc 1 213 28 is_stmt 0 view .LVU53
 136 0044 0D68     		ldr	r5, [r1]
 137              	.LVL13:
 138              		.loc 1 213 28 view .LVU54
 139 0046 05F0C065 		and	r5, r5, #100663296
 140              		.loc 1 213 8 view .LVU55
 141 004a B5F1C06F 		cmp	r5, #100663296
 142 004e 12D1     		bne	.L4
 214:Drivers/STM32G4xx_HAL_Driver/Src/stm32g4xx_hal_exti.c ****     {
 215:Drivers/STM32G4xx_HAL_Driver/Src/stm32g4xx_hal_exti.c ****       assert_param(IS_EXTI_GPIO_PORT(pExtiConfig->GPIOSel));
 143              		.loc 1 215 7 is_stmt 1 view .LVU56
 216:Drivers/STM32G4xx_HAL_Driver/Src/stm32g4xx_hal_exti.c ****       assert_param(IS_EXTI_GPIO_PIN(linepos));
 144              		.loc 1 216 7 view .LVU57
 217:Drivers/STM32G4xx_HAL_Driver/Src/stm32g4xx_hal_exti.c **** 
 218:Drivers/STM32G4xx_HAL_Driver/Src/stm32g4xx_hal_exti.c ****       regval = SYSCFG->EXTICR[linepos >> 2u];
 145              		.loc 1 218 7 view .LVU58
 146 0050 04F01C04 		and	r4, r4, #28
 147              	.LVL14:
 148              		.loc 1 218 7 is_stmt 0 view .LVU59
 149 0054 04F18044 		add	r4, r4, #1073741824
 150 0058 04F58034 		add	r4, r4, #65536
 219:Drivers/STM32G4xx_HAL_Driver/Src/stm32g4xx_hal_exti.c ****       regval &= ~(SYSCFG_EXTICR1_EXTI0 << (SYSCFG_EXTICR1_EXTI1_Pos * (linepos & 0x03u)));
 151              		.loc 1 219 80 view .LVU60
 152 005c 02F00302 		and	r2, r2, #3
 153              	.LVL15:
 218:Drivers/STM32G4xx_HAL_Driver/Src/stm32g4xx_hal_exti.c ****       regval &= ~(SYSCFG_EXTICR1_EXTI0 << (SYSCFG_EXTICR1_EXTI1_Pos * (linepos & 0x03u)));
 154              		.loc 1 218 14 view .LVU61
 155 0060 A668     		ldr	r6, [r4, #8]
 156              	.LVL16:
 157              		.loc 1 219 7 is_stmt 1 view .LVU62
 158              		.loc 1 219 69 is_stmt 0 view .LVU63
 159 0062 9200     		lsls	r2, r2, #2
 160              		.loc 1 219 40 view .LVU64
 161 0064 0725     		movs	r5, #7
 162 0066 9540     		lsls	r5, r5, r2
 163              		.loc 1 219 14 view .LVU65
 164 0068 26EA0506 		bic	r6, r6, r5
 165              	.LVL17:
 220:Drivers/STM32G4xx_HAL_Driver/Src/stm32g4xx_hal_exti.c ****       regval |= (pExtiConfig->GPIOSel << (SYSCFG_EXTICR1_EXTI1_Pos * (linepos & 0x03u)));
 166              		.loc 1 220 7 is_stmt 1 view .LVU66
 167              		.loc 1 220 39 is_stmt 0 view .LVU67
 168 006c CD68     		ldr	r5, [r1, #12]
 169 006e 05FA02F2 		lsl	r2, r5, r2
 170              		.loc 1 220 14 view .LVU68
 171 0072 3243     		orrs	r2, r2, r6
 172              	.LVL18:
 221:Drivers/STM32G4xx_HAL_Driver/Src/stm32g4xx_hal_exti.c ****       SYSCFG->EXTICR[linepos >> 2u] = regval;
 173              		.loc 1 221 7 is_stmt 1 view .LVU69
ARM GAS  /tmp/ccDHnVZK.s 			page 8


 174              		.loc 1 221 37 is_stmt 0 view .LVU70
 175 0074 A260     		str	r2, [r4, #8]
 176              	.LVL19:
 177              	.L4:
 222:Drivers/STM32G4xx_HAL_Driver/Src/stm32g4xx_hal_exti.c ****     }
 223:Drivers/STM32G4xx_HAL_Driver/Src/stm32g4xx_hal_exti.c ****   }
 224:Drivers/STM32G4xx_HAL_Driver/Src/stm32g4xx_hal_exti.c **** 
 225:Drivers/STM32G4xx_HAL_Driver/Src/stm32g4xx_hal_exti.c ****   /* Configure interrupt mode : read current mode */
 226:Drivers/STM32G4xx_HAL_Driver/Src/stm32g4xx_hal_exti.c ****   regaddr = (&EXTI->IMR1 + (EXTI_MODE_OFFSET * offset));
 178              		.loc 1 226 3 is_stmt 1 view .LVU71
 179              		.loc 1 226 11 is_stmt 0 view .LVU72
 180 0076 00F18044 		add	r4, r0, #1073741824
 181 007a 04F58234 		add	r4, r4, #66560
 182              	.LVL20:
 227:Drivers/STM32G4xx_HAL_Driver/Src/stm32g4xx_hal_exti.c ****   regval = *regaddr;
 183              		.loc 1 227 3 is_stmt 1 view .LVU73
 228:Drivers/STM32G4xx_HAL_Driver/Src/stm32g4xx_hal_exti.c **** 
 229:Drivers/STM32G4xx_HAL_Driver/Src/stm32g4xx_hal_exti.c ****   /* Mask or set line */
 230:Drivers/STM32G4xx_HAL_Driver/Src/stm32g4xx_hal_exti.c ****   if ((pExtiConfig->Mode & EXTI_MODE_INTERRUPT) != 0x00u)
 184              		.loc 1 230 26 is_stmt 0 view .LVU74
 185 007e 4D68     		ldr	r5, [r1, #4]
 227:Drivers/STM32G4xx_HAL_Driver/Src/stm32g4xx_hal_exti.c ****   regval = *regaddr;
 186              		.loc 1 227 10 view .LVU75
 187 0080 2268     		ldr	r2, [r4]
 188              	.LVL21:
 189              		.loc 1 230 3 is_stmt 1 view .LVU76
 190              		.loc 1 230 6 is_stmt 0 view .LVU77
 191 0082 ED07     		lsls	r5, r5, #31
 231:Drivers/STM32G4xx_HAL_Driver/Src/stm32g4xx_hal_exti.c ****   {
 232:Drivers/STM32G4xx_HAL_Driver/Src/stm32g4xx_hal_exti.c ****     regval |= maskline;
 192              		.loc 1 232 5 is_stmt 1 view .LVU78
 193              		.loc 1 232 12 is_stmt 0 view .LVU79
 194 0084 4CBF     		ite	mi
 195 0086 1A43     		orrmi	r2, r2, r3
 196              	.LVL22:
 233:Drivers/STM32G4xx_HAL_Driver/Src/stm32g4xx_hal_exti.c ****   }
 234:Drivers/STM32G4xx_HAL_Driver/Src/stm32g4xx_hal_exti.c ****   else
 235:Drivers/STM32G4xx_HAL_Driver/Src/stm32g4xx_hal_exti.c ****   {
 236:Drivers/STM32G4xx_HAL_Driver/Src/stm32g4xx_hal_exti.c ****     regval &= ~maskline;
 197              		.loc 1 236 5 is_stmt 1 view .LVU80
 198              		.loc 1 236 12 is_stmt 0 view .LVU81
 199 0088 9A43     		bicpl	r2, r2, r3
 200              	.LVL23:
 237:Drivers/STM32G4xx_HAL_Driver/Src/stm32g4xx_hal_exti.c ****   }
 238:Drivers/STM32G4xx_HAL_Driver/Src/stm32g4xx_hal_exti.c **** 
 239:Drivers/STM32G4xx_HAL_Driver/Src/stm32g4xx_hal_exti.c ****   /* Store interrupt mode */
 240:Drivers/STM32G4xx_HAL_Driver/Src/stm32g4xx_hal_exti.c ****   *regaddr = regval;
 201              		.loc 1 240 3 is_stmt 1 view .LVU82
 202              		.loc 1 240 12 is_stmt 0 view .LVU83
 203 008a 2260     		str	r2, [r4]
 241:Drivers/STM32G4xx_HAL_Driver/Src/stm32g4xx_hal_exti.c **** 
 242:Drivers/STM32G4xx_HAL_Driver/Src/stm32g4xx_hal_exti.c ****   /* Configure event mode : read current mode */
 243:Drivers/STM32G4xx_HAL_Driver/Src/stm32g4xx_hal_exti.c ****   regaddr = (&EXTI->EMR1 + (EXTI_MODE_OFFSET * offset));
 204              		.loc 1 243 3 is_stmt 1 view .LVU84
 205              		.loc 1 243 11 is_stmt 0 view .LVU85
 206 008c 084C     		ldr	r4, .L16+8
 207              	.LVL24:
ARM GAS  /tmp/ccDHnVZK.s 			page 9


 244:Drivers/STM32G4xx_HAL_Driver/Src/stm32g4xx_hal_exti.c ****   regval = *regaddr;
 208              		.loc 1 244 3 is_stmt 1 view .LVU86
 245:Drivers/STM32G4xx_HAL_Driver/Src/stm32g4xx_hal_exti.c **** 
 246:Drivers/STM32G4xx_HAL_Driver/Src/stm32g4xx_hal_exti.c ****   /* Mask or set line */
 247:Drivers/STM32G4xx_HAL_Driver/Src/stm32g4xx_hal_exti.c ****   if ((pExtiConfig->Mode & EXTI_MODE_EVENT) != 0x00u)
 209              		.loc 1 247 26 is_stmt 0 view .LVU87
 210 008e 4968     		ldr	r1, [r1, #4]
 211              	.LVL25:
 244:Drivers/STM32G4xx_HAL_Driver/Src/stm32g4xx_hal_exti.c ****   regval = *regaddr;
 212              		.loc 1 244 10 view .LVU88
 213 0090 0259     		ldr	r2, [r0, r4]
 214              	.LVL26:
 215              		.loc 1 247 3 is_stmt 1 view .LVU89
 216              		.loc 1 247 6 is_stmt 0 view .LVU90
 217 0092 8907     		lsls	r1, r1, #30
 248:Drivers/STM32G4xx_HAL_Driver/Src/stm32g4xx_hal_exti.c ****   {
 249:Drivers/STM32G4xx_HAL_Driver/Src/stm32g4xx_hal_exti.c ****     regval |= maskline;
 218              		.loc 1 249 5 is_stmt 1 view .LVU91
 219              		.loc 1 249 12 is_stmt 0 view .LVU92
 220 0094 4CBF     		ite	mi
 221 0096 1343     		orrmi	r3, r3, r2
 222              	.LVL27:
 250:Drivers/STM32G4xx_HAL_Driver/Src/stm32g4xx_hal_exti.c ****   }
 251:Drivers/STM32G4xx_HAL_Driver/Src/stm32g4xx_hal_exti.c ****   else
 252:Drivers/STM32G4xx_HAL_Driver/Src/stm32g4xx_hal_exti.c ****   {
 253:Drivers/STM32G4xx_HAL_Driver/Src/stm32g4xx_hal_exti.c ****     regval &= ~maskline;
 223              		.loc 1 253 5 is_stmt 1 view .LVU93
 224              		.loc 1 253 12 is_stmt 0 view .LVU94
 225 0098 22EA0303 		bicpl	r3, r2, r3
 226              	.LVL28:
 254:Drivers/STM32G4xx_HAL_Driver/Src/stm32g4xx_hal_exti.c ****   }
 255:Drivers/STM32G4xx_HAL_Driver/Src/stm32g4xx_hal_exti.c **** 
 256:Drivers/STM32G4xx_HAL_Driver/Src/stm32g4xx_hal_exti.c ****   /* Store event mode */
 257:Drivers/STM32G4xx_HAL_Driver/Src/stm32g4xx_hal_exti.c ****   *regaddr = regval;
 227              		.loc 1 257 3 is_stmt 1 view .LVU95
 228              		.loc 1 257 12 is_stmt 0 view .LVU96
 229 009c 0351     		str	r3, [r0, r4]
 258:Drivers/STM32G4xx_HAL_Driver/Src/stm32g4xx_hal_exti.c **** 
 259:Drivers/STM32G4xx_HAL_Driver/Src/stm32g4xx_hal_exti.c ****   return HAL_OK;
 230              		.loc 1 259 3 is_stmt 1 view .LVU97
 231              		.loc 1 259 10 is_stmt 0 view .LVU98
 232 009e 0020     		movs	r0, #0
 233              	.LVL29:
 234              	.L2:
 260:Drivers/STM32G4xx_HAL_Driver/Src/stm32g4xx_hal_exti.c **** }
 235              		.loc 1 260 1 view .LVU99
 236 00a0 F0BD     		pop	{r4, r5, r6, r7, pc}
 237              	.LVL30:
 238              	.L15:
 156:Drivers/STM32G4xx_HAL_Driver/Src/stm32g4xx_hal_exti.c ****   }
 239              		.loc 1 156 12 view .LVU100
 240 00a2 0120     		movs	r0, #1
 241              	.LVL31:
 156:Drivers/STM32G4xx_HAL_Driver/Src/stm32g4xx_hal_exti.c ****   }
 242              		.loc 1 156 12 view .LVU101
 243 00a4 FCE7     		b	.L2
 244              	.L17:
ARM GAS  /tmp/ccDHnVZK.s 			page 10


 245 00a6 00BF     		.align	2
 246              	.L16:
 247 00a8 08040140 		.word	1073808392
 248 00ac 0C040140 		.word	1073808396
 249 00b0 04040140 		.word	1073808388
 250              		.cfi_endproc
 251              	.LFE357:
 253              		.section	.text.HAL_EXTI_GetConfigLine,"ax",%progbits
 254              		.align	1
 255              		.global	HAL_EXTI_GetConfigLine
 256              		.syntax unified
 257              		.thumb
 258              		.thumb_func
 259              		.fpu fpv4-sp-d16
 261              	HAL_EXTI_GetConfigLine:
 262              	.LVL32:
 263              	.LFB358:
 261:Drivers/STM32G4xx_HAL_Driver/Src/stm32g4xx_hal_exti.c **** 
 262:Drivers/STM32G4xx_HAL_Driver/Src/stm32g4xx_hal_exti.c **** 
 263:Drivers/STM32G4xx_HAL_Driver/Src/stm32g4xx_hal_exti.c **** /**
 264:Drivers/STM32G4xx_HAL_Driver/Src/stm32g4xx_hal_exti.c ****   * @brief  Get configuration of a dedicated Exti line.
 265:Drivers/STM32G4xx_HAL_Driver/Src/stm32g4xx_hal_exti.c ****   * @param  hexti Exti handle.
 266:Drivers/STM32G4xx_HAL_Driver/Src/stm32g4xx_hal_exti.c ****   * @param  pExtiConfig Pointer on structure to store Exti configuration.
 267:Drivers/STM32G4xx_HAL_Driver/Src/stm32g4xx_hal_exti.c ****   * @retval HAL Status.
 268:Drivers/STM32G4xx_HAL_Driver/Src/stm32g4xx_hal_exti.c ****   */
 269:Drivers/STM32G4xx_HAL_Driver/Src/stm32g4xx_hal_exti.c **** HAL_StatusTypeDef HAL_EXTI_GetConfigLine(EXTI_HandleTypeDef *hexti, EXTI_ConfigTypeDef *pExtiConfig
 270:Drivers/STM32G4xx_HAL_Driver/Src/stm32g4xx_hal_exti.c **** {
 264              		.loc 1 270 1 is_stmt 1 view -0
 265              		.cfi_startproc
 266              		@ args = 0, pretend = 0, frame = 0
 267              		@ frame_needed = 0, uses_anonymous_args = 0
 271:Drivers/STM32G4xx_HAL_Driver/Src/stm32g4xx_hal_exti.c ****   __IO uint32_t *regaddr;
 268              		.loc 1 271 3 view .LVU103
 272:Drivers/STM32G4xx_HAL_Driver/Src/stm32g4xx_hal_exti.c ****   uint32_t regval;
 269              		.loc 1 272 3 view .LVU104
 273:Drivers/STM32G4xx_HAL_Driver/Src/stm32g4xx_hal_exti.c ****   uint32_t linepos;
 270              		.loc 1 273 3 view .LVU105
 274:Drivers/STM32G4xx_HAL_Driver/Src/stm32g4xx_hal_exti.c ****   uint32_t maskline;
 271              		.loc 1 274 3 view .LVU106
 275:Drivers/STM32G4xx_HAL_Driver/Src/stm32g4xx_hal_exti.c ****   uint32_t offset;
 272              		.loc 1 275 3 view .LVU107
 276:Drivers/STM32G4xx_HAL_Driver/Src/stm32g4xx_hal_exti.c **** 
 277:Drivers/STM32G4xx_HAL_Driver/Src/stm32g4xx_hal_exti.c ****   /* Check null pointer */
 278:Drivers/STM32G4xx_HAL_Driver/Src/stm32g4xx_hal_exti.c ****   if ((hexti == NULL) || (pExtiConfig == NULL))
 273              		.loc 1 278 3 view .LVU108
 270:Drivers/STM32G4xx_HAL_Driver/Src/stm32g4xx_hal_exti.c ****   __IO uint32_t *regaddr;
 274              		.loc 1 270 1 is_stmt 0 view .LVU109
 275 0000 70B5     		push	{r4, r5, r6, lr}
 276              	.LCFI1:
 277              		.cfi_def_cfa_offset 16
 278              		.cfi_offset 4, -16
 279              		.cfi_offset 5, -12
 280              		.cfi_offset 6, -8
 281              		.cfi_offset 14, -4
 282              		.loc 1 278 6 view .LVU110
 283 0002 0028     		cmp	r0, #0
 284 0004 43D0     		beq	.L25
ARM GAS  /tmp/ccDHnVZK.s 			page 11


 285              		.loc 1 278 23 discriminator 1 view .LVU111
 286 0006 0029     		cmp	r1, #0
 287 0008 41D0     		beq	.L25
 279:Drivers/STM32G4xx_HAL_Driver/Src/stm32g4xx_hal_exti.c ****   {
 280:Drivers/STM32G4xx_HAL_Driver/Src/stm32g4xx_hal_exti.c ****     return HAL_ERROR;
 281:Drivers/STM32G4xx_HAL_Driver/Src/stm32g4xx_hal_exti.c ****   }
 282:Drivers/STM32G4xx_HAL_Driver/Src/stm32g4xx_hal_exti.c **** 
 283:Drivers/STM32G4xx_HAL_Driver/Src/stm32g4xx_hal_exti.c ****   /* Check the parameter */
 284:Drivers/STM32G4xx_HAL_Driver/Src/stm32g4xx_hal_exti.c ****   assert_param(IS_EXTI_LINE(hexti->Line));
 288              		.loc 1 284 3 is_stmt 1 view .LVU112
 285:Drivers/STM32G4xx_HAL_Driver/Src/stm32g4xx_hal_exti.c **** 
 286:Drivers/STM32G4xx_HAL_Driver/Src/stm32g4xx_hal_exti.c ****   /* Store handle line number to configuration structure */
 287:Drivers/STM32G4xx_HAL_Driver/Src/stm32g4xx_hal_exti.c ****   pExtiConfig->Line = hexti->Line;
 289              		.loc 1 287 3 view .LVU113
 290              		.loc 1 287 28 is_stmt 0 view .LVU114
 291 000a 0368     		ldr	r3, [r0]
 292              		.loc 1 287 21 view .LVU115
 293 000c 0B60     		str	r3, [r1]
 288:Drivers/STM32G4xx_HAL_Driver/Src/stm32g4xx_hal_exti.c **** 
 289:Drivers/STM32G4xx_HAL_Driver/Src/stm32g4xx_hal_exti.c ****   /* Compute line register offset and line mask */
 290:Drivers/STM32G4xx_HAL_Driver/Src/stm32g4xx_hal_exti.c ****   offset = ((pExtiConfig->Line & EXTI_REG_MASK) >> EXTI_REG_SHIFT);
 294              		.loc 1 290 3 is_stmt 1 view .LVU116
 295              	.LVL33:
 291:Drivers/STM32G4xx_HAL_Driver/Src/stm32g4xx_hal_exti.c ****   /* Compute line position */
 292:Drivers/STM32G4xx_HAL_Driver/Src/stm32g4xx_hal_exti.c ****   linepos = (pExtiConfig->Line & EXTI_PIN_MASK);
 296              		.loc 1 292 3 view .LVU117
 290:Drivers/STM32G4xx_HAL_Driver/Src/stm32g4xx_hal_exti.c ****   /* Compute line position */
 297              		.loc 1 290 10 is_stmt 0 view .LVU118
 298 000e C3F30045 		ubfx	r5, r3, #16, #1
 293:Drivers/STM32G4xx_HAL_Driver/Src/stm32g4xx_hal_exti.c ****   /* Compute mask */
 294:Drivers/STM32G4xx_HAL_Driver/Src/stm32g4xx_hal_exti.c ****   maskline = (1uL << linepos);
 295:Drivers/STM32G4xx_HAL_Driver/Src/stm32g4xx_hal_exti.c **** 
 296:Drivers/STM32G4xx_HAL_Driver/Src/stm32g4xx_hal_exti.c ****   /* 1] Get core mode : interrupt */
 297:Drivers/STM32G4xx_HAL_Driver/Src/stm32g4xx_hal_exti.c ****   regaddr = (&EXTI->IMR1 + (EXTI_MODE_OFFSET * offset));
 299              		.loc 1 297 26 view .LVU119
 300 0012 6D01     		lsls	r5, r5, #5
 301              		.loc 1 297 11 view .LVU120
 302 0014 05F18040 		add	r0, r5, #1073741824
 303              	.LVL34:
 304              		.loc 1 297 11 view .LVU121
 305 0018 00F58230 		add	r0, r0, #66560
 292:Drivers/STM32G4xx_HAL_Driver/Src/stm32g4xx_hal_exti.c ****   /* Compute mask */
 306              		.loc 1 292 11 view .LVU122
 307 001c 03F01F02 		and	r2, r3, #31
 308              	.LVL35:
 294:Drivers/STM32G4xx_HAL_Driver/Src/stm32g4xx_hal_exti.c **** 
 309              		.loc 1 294 3 is_stmt 1 view .LVU123
 298:Drivers/STM32G4xx_HAL_Driver/Src/stm32g4xx_hal_exti.c ****   regval = *regaddr;
 310              		.loc 1 298 10 is_stmt 0 view .LVU124
 311 0020 0068     		ldr	r0, [r0]
 299:Drivers/STM32G4xx_HAL_Driver/Src/stm32g4xx_hal_exti.c **** 
 300:Drivers/STM32G4xx_HAL_Driver/Src/stm32g4xx_hal_exti.c ****   /* Check if selected line is enable */
 301:Drivers/STM32G4xx_HAL_Driver/Src/stm32g4xx_hal_exti.c ****   if ((regval & maskline) != 0x00u)
 302:Drivers/STM32G4xx_HAL_Driver/Src/stm32g4xx_hal_exti.c ****   {
 303:Drivers/STM32G4xx_HAL_Driver/Src/stm32g4xx_hal_exti.c ****     pExtiConfig->Mode = EXTI_MODE_INTERRUPT;
 304:Drivers/STM32G4xx_HAL_Driver/Src/stm32g4xx_hal_exti.c ****   }
 305:Drivers/STM32G4xx_HAL_Driver/Src/stm32g4xx_hal_exti.c ****   else
ARM GAS  /tmp/ccDHnVZK.s 			page 12


 306:Drivers/STM32G4xx_HAL_Driver/Src/stm32g4xx_hal_exti.c ****   {
 307:Drivers/STM32G4xx_HAL_Driver/Src/stm32g4xx_hal_exti.c ****     pExtiConfig->Mode = EXTI_MODE_NONE;
 308:Drivers/STM32G4xx_HAL_Driver/Src/stm32g4xx_hal_exti.c ****   }
 309:Drivers/STM32G4xx_HAL_Driver/Src/stm32g4xx_hal_exti.c **** 
 310:Drivers/STM32G4xx_HAL_Driver/Src/stm32g4xx_hal_exti.c ****   /* Get event mode */
 311:Drivers/STM32G4xx_HAL_Driver/Src/stm32g4xx_hal_exti.c ****   regaddr = (&EXTI->EMR1 + (EXTI_MODE_OFFSET * offset));
 312              		.loc 1 311 11 view .LVU125
 313 0022 1C4E     		ldr	r6, .L33
 294:Drivers/STM32G4xx_HAL_Driver/Src/stm32g4xx_hal_exti.c **** 
 314              		.loc 1 294 12 view .LVU126
 315 0024 0124     		movs	r4, #1
 316 0026 9440     		lsls	r4, r4, r2
 317              	.LVL36:
 297:Drivers/STM32G4xx_HAL_Driver/Src/stm32g4xx_hal_exti.c ****   regval = *regaddr;
 318              		.loc 1 297 3 is_stmt 1 view .LVU127
 298:Drivers/STM32G4xx_HAL_Driver/Src/stm32g4xx_hal_exti.c **** 
 319              		.loc 1 298 3 view .LVU128
 301:Drivers/STM32G4xx_HAL_Driver/Src/stm32g4xx_hal_exti.c ****   {
 320              		.loc 1 301 3 view .LVU129
 301:Drivers/STM32G4xx_HAL_Driver/Src/stm32g4xx_hal_exti.c ****   {
 321              		.loc 1 301 6 is_stmt 0 view .LVU130
 322 0028 0442     		tst	r4, r0
 323 002a 14BF     		ite	ne
 324 002c 0120     		movne	r0, #1
 325              	.LVL37:
 301:Drivers/STM32G4xx_HAL_Driver/Src/stm32g4xx_hal_exti.c ****   {
 326              		.loc 1 301 6 view .LVU131
 327 002e 0020     		moveq	r0, #0
 328 0030 4860     		str	r0, [r1, #4]
 329              		.loc 1 311 3 is_stmt 1 view .LVU132
 330              	.LVL38:
 312:Drivers/STM32G4xx_HAL_Driver/Src/stm32g4xx_hal_exti.c ****   regval = *regaddr;
 331              		.loc 1 312 3 view .LVU133
 332              		.loc 1 312 10 is_stmt 0 view .LVU134
 333 0032 AE59     		ldr	r6, [r5, r6]
 334              	.LVL39:
 313:Drivers/STM32G4xx_HAL_Driver/Src/stm32g4xx_hal_exti.c **** 
 314:Drivers/STM32G4xx_HAL_Driver/Src/stm32g4xx_hal_exti.c ****   /* Check if selected line is enable */
 315:Drivers/STM32G4xx_HAL_Driver/Src/stm32g4xx_hal_exti.c ****   if ((regval & maskline) != 0x00u)
 335              		.loc 1 315 3 is_stmt 1 view .LVU135
 336              		.loc 1 315 6 is_stmt 0 view .LVU136
 337 0034 3442     		tst	r4, r6
 316:Drivers/STM32G4xx_HAL_Driver/Src/stm32g4xx_hal_exti.c ****   {
 317:Drivers/STM32G4xx_HAL_Driver/Src/stm32g4xx_hal_exti.c ****     pExtiConfig->Mode |= EXTI_MODE_EVENT;
 338              		.loc 1 317 5 is_stmt 1 view .LVU137
 339              		.loc 1 317 23 is_stmt 0 view .LVU138
 340 0036 1CBF     		itt	ne
 341 0038 40F00200 		orrne	r0, r0, #2
 342 003c 4860     		strne	r0, [r1, #4]
 318:Drivers/STM32G4xx_HAL_Driver/Src/stm32g4xx_hal_exti.c ****   }
 319:Drivers/STM32G4xx_HAL_Driver/Src/stm32g4xx_hal_exti.c **** 
 320:Drivers/STM32G4xx_HAL_Driver/Src/stm32g4xx_hal_exti.c ****   /* 2] Get trigger for configurable lines : rising */
 321:Drivers/STM32G4xx_HAL_Driver/Src/stm32g4xx_hal_exti.c ****   if ((pExtiConfig->Line & EXTI_CONFIG) != 0x00u)
 343              		.loc 1 321 3 is_stmt 1 view .LVU139
 344              		.loc 1 321 6 is_stmt 0 view .LVU140
 345 003e 13F00070 		ands	r0, r3, #33554432
 346 0042 22D0     		beq	.L21
ARM GAS  /tmp/ccDHnVZK.s 			page 13


 322:Drivers/STM32G4xx_HAL_Driver/Src/stm32g4xx_hal_exti.c ****   {
 323:Drivers/STM32G4xx_HAL_Driver/Src/stm32g4xx_hal_exti.c ****     regaddr = (&EXTI->RTSR1 + (EXTI_CONFIG_OFFSET * offset));
 347              		.loc 1 323 5 is_stmt 1 view .LVU141
 348              		.loc 1 323 13 is_stmt 0 view .LVU142
 349 0044 1448     		ldr	r0, .L33+4
 350              	.LVL40:
 324:Drivers/STM32G4xx_HAL_Driver/Src/stm32g4xx_hal_exti.c ****     regval = *regaddr;
 351              		.loc 1 324 5 is_stmt 1 view .LVU143
 325:Drivers/STM32G4xx_HAL_Driver/Src/stm32g4xx_hal_exti.c **** 
 326:Drivers/STM32G4xx_HAL_Driver/Src/stm32g4xx_hal_exti.c ****     /* Check if configuration of selected line is enable */
 327:Drivers/STM32G4xx_HAL_Driver/Src/stm32g4xx_hal_exti.c ****     if ((regval & maskline) != 0x00u)
 328:Drivers/STM32G4xx_HAL_Driver/Src/stm32g4xx_hal_exti.c ****     {
 329:Drivers/STM32G4xx_HAL_Driver/Src/stm32g4xx_hal_exti.c ****       pExtiConfig->Trigger = EXTI_TRIGGER_RISING;
 330:Drivers/STM32G4xx_HAL_Driver/Src/stm32g4xx_hal_exti.c ****     }
 331:Drivers/STM32G4xx_HAL_Driver/Src/stm32g4xx_hal_exti.c ****     else
 332:Drivers/STM32G4xx_HAL_Driver/Src/stm32g4xx_hal_exti.c ****     {
 333:Drivers/STM32G4xx_HAL_Driver/Src/stm32g4xx_hal_exti.c ****       pExtiConfig->Trigger = EXTI_TRIGGER_NONE;
 334:Drivers/STM32G4xx_HAL_Driver/Src/stm32g4xx_hal_exti.c ****     }
 335:Drivers/STM32G4xx_HAL_Driver/Src/stm32g4xx_hal_exti.c **** 
 336:Drivers/STM32G4xx_HAL_Driver/Src/stm32g4xx_hal_exti.c ****     /* Get falling configuration */
 337:Drivers/STM32G4xx_HAL_Driver/Src/stm32g4xx_hal_exti.c ****     regaddr = (&EXTI->FTSR1 + (EXTI_CONFIG_OFFSET * offset));
 352              		.loc 1 337 13 is_stmt 0 view .LVU144
 353 0046 154E     		ldr	r6, .L33+8
 354              	.LVL41:
 324:Drivers/STM32G4xx_HAL_Driver/Src/stm32g4xx_hal_exti.c ****     regval = *regaddr;
 355              		.loc 1 324 12 view .LVU145
 356 0048 2858     		ldr	r0, [r5, r0]
 357              	.LVL42:
 327:Drivers/STM32G4xx_HAL_Driver/Src/stm32g4xx_hal_exti.c ****     {
 358              		.loc 1 327 5 is_stmt 1 view .LVU146
 327:Drivers/STM32G4xx_HAL_Driver/Src/stm32g4xx_hal_exti.c ****     {
 359              		.loc 1 327 8 is_stmt 0 view .LVU147
 360 004a 0442     		tst	r4, r0
 361 004c 14BF     		ite	ne
 362 004e 0120     		movne	r0, #1
 363              	.LVL43:
 327:Drivers/STM32G4xx_HAL_Driver/Src/stm32g4xx_hal_exti.c ****     {
 364              		.loc 1 327 8 view .LVU148
 365 0050 0020     		moveq	r0, #0
 366 0052 8860     		str	r0, [r1, #8]
 367              		.loc 1 337 5 is_stmt 1 view .LVU149
 368              	.LVL44:
 338:Drivers/STM32G4xx_HAL_Driver/Src/stm32g4xx_hal_exti.c ****     regval = *regaddr;
 369              		.loc 1 338 5 view .LVU150
 370              		.loc 1 338 12 is_stmt 0 view .LVU151
 371 0054 AD59     		ldr	r5, [r5, r6]
 372              	.LVL45:
 339:Drivers/STM32G4xx_HAL_Driver/Src/stm32g4xx_hal_exti.c **** 
 340:Drivers/STM32G4xx_HAL_Driver/Src/stm32g4xx_hal_exti.c ****     /* Check if configuration of selected line is enable */
 341:Drivers/STM32G4xx_HAL_Driver/Src/stm32g4xx_hal_exti.c ****     if ((regval & maskline) != 0x00u)
 373              		.loc 1 341 5 is_stmt 1 view .LVU152
 374              		.loc 1 341 8 is_stmt 0 view .LVU153
 375 0056 2C42     		tst	r4, r5
 342:Drivers/STM32G4xx_HAL_Driver/Src/stm32g4xx_hal_exti.c ****     {
 343:Drivers/STM32G4xx_HAL_Driver/Src/stm32g4xx_hal_exti.c ****       pExtiConfig->Trigger |= EXTI_TRIGGER_FALLING;
 376              		.loc 1 343 7 is_stmt 1 view .LVU154
 377              		.loc 1 343 28 is_stmt 0 view .LVU155
ARM GAS  /tmp/ccDHnVZK.s 			page 14


 378 0058 1CBF     		itt	ne
 379 005a 40F00200 		orrne	r0, r0, #2
 380 005e 8860     		strne	r0, [r1, #8]
 344:Drivers/STM32G4xx_HAL_Driver/Src/stm32g4xx_hal_exti.c ****     }
 345:Drivers/STM32G4xx_HAL_Driver/Src/stm32g4xx_hal_exti.c **** 
 346:Drivers/STM32G4xx_HAL_Driver/Src/stm32g4xx_hal_exti.c ****     /* Get Gpio port selection for gpio lines */
 347:Drivers/STM32G4xx_HAL_Driver/Src/stm32g4xx_hal_exti.c ****     if ((pExtiConfig->Line & EXTI_GPIO) == EXTI_GPIO)
 381              		.loc 1 347 5 is_stmt 1 view .LVU156
 382              		.loc 1 347 28 is_stmt 0 view .LVU157
 383 0060 03F0C060 		and	r0, r3, #100663296
 384              		.loc 1 347 8 view .LVU158
 385 0064 B0F1C06F 		cmp	r0, #100663296
 386 0068 0CD1     		bne	.L23
 348:Drivers/STM32G4xx_HAL_Driver/Src/stm32g4xx_hal_exti.c ****     {
 349:Drivers/STM32G4xx_HAL_Driver/Src/stm32g4xx_hal_exti.c ****       assert_param(IS_EXTI_GPIO_PIN(linepos));
 387              		.loc 1 349 7 is_stmt 1 view .LVU159
 350:Drivers/STM32G4xx_HAL_Driver/Src/stm32g4xx_hal_exti.c **** 
 351:Drivers/STM32G4xx_HAL_Driver/Src/stm32g4xx_hal_exti.c ****       regval = SYSCFG->EXTICR[linepos >> 2u];
 388              		.loc 1 351 7 view .LVU160
 389              		.loc 1 351 39 is_stmt 0 view .LVU161
 390 006a 9208     		lsrs	r2, r2, #2
 391              	.LVL46:
 392              		.loc 1 351 14 view .LVU162
 393 006c 0C48     		ldr	r0, .L33+12
 394 006e 0232     		adds	r2, r2, #2
 352:Drivers/STM32G4xx_HAL_Driver/Src/stm32g4xx_hal_exti.c ****       pExtiConfig->GPIOSel = ((regval >> (SYSCFG_EXTICR1_EXTI1_Pos * ((linepos & 0x03u)))));
 395              		.loc 1 352 80 view .LVU163
 396 0070 03F00303 		and	r3, r3, #3
 397              	.LVL47:
 351:Drivers/STM32G4xx_HAL_Driver/Src/stm32g4xx_hal_exti.c ****       pExtiConfig->GPIOSel = ((regval >> (SYSCFG_EXTICR1_EXTI1_Pos * ((linepos & 0x03u)))));
 398              		.loc 1 351 14 view .LVU164
 399 0074 50F82220 		ldr	r2, [r0, r2, lsl #2]
 400              	.LVL48:
 401              		.loc 1 352 7 is_stmt 1 view .LVU165
 402              		.loc 1 352 68 is_stmt 0 view .LVU166
 403 0078 9B00     		lsls	r3, r3, #2
 404              		.loc 1 352 39 view .LVU167
 405 007a 22FA03F3 		lsr	r3, r2, r3
 406              		.loc 1 352 28 view .LVU168
 407 007e CB60     		str	r3, [r1, #12]
 353:Drivers/STM32G4xx_HAL_Driver/Src/stm32g4xx_hal_exti.c ****     }
 354:Drivers/STM32G4xx_HAL_Driver/Src/stm32g4xx_hal_exti.c ****     else
 355:Drivers/STM32G4xx_HAL_Driver/Src/stm32g4xx_hal_exti.c ****     {
 356:Drivers/STM32G4xx_HAL_Driver/Src/stm32g4xx_hal_exti.c ****       pExtiConfig->GPIOSel = 0x00u;
 357:Drivers/STM32G4xx_HAL_Driver/Src/stm32g4xx_hal_exti.c ****     }
 358:Drivers/STM32G4xx_HAL_Driver/Src/stm32g4xx_hal_exti.c ****   }
 359:Drivers/STM32G4xx_HAL_Driver/Src/stm32g4xx_hal_exti.c ****   else
 360:Drivers/STM32G4xx_HAL_Driver/Src/stm32g4xx_hal_exti.c ****   {
 361:Drivers/STM32G4xx_HAL_Driver/Src/stm32g4xx_hal_exti.c ****     pExtiConfig->Trigger = EXTI_TRIGGER_NONE;
 362:Drivers/STM32G4xx_HAL_Driver/Src/stm32g4xx_hal_exti.c ****     pExtiConfig->GPIOSel = 0x00u;
 363:Drivers/STM32G4xx_HAL_Driver/Src/stm32g4xx_hal_exti.c ****   }
 364:Drivers/STM32G4xx_HAL_Driver/Src/stm32g4xx_hal_exti.c **** 
 365:Drivers/STM32G4xx_HAL_Driver/Src/stm32g4xx_hal_exti.c ****   return HAL_OK;
 408              		.loc 1 365 10 view .LVU169
 409 0080 0020     		movs	r0, #0
 410              	.LVL49:
 411              	.L19:
ARM GAS  /tmp/ccDHnVZK.s 			page 15


 366:Drivers/STM32G4xx_HAL_Driver/Src/stm32g4xx_hal_exti.c **** }
 412              		.loc 1 366 1 view .LVU170
 413 0082 70BD     		pop	{r4, r5, r6, pc}
 414              	.LVL50:
 415              	.L23:
 356:Drivers/STM32G4xx_HAL_Driver/Src/stm32g4xx_hal_exti.c ****     }
 416              		.loc 1 356 7 is_stmt 1 view .LVU171
 356:Drivers/STM32G4xx_HAL_Driver/Src/stm32g4xx_hal_exti.c ****     }
 417              		.loc 1 356 28 is_stmt 0 view .LVU172
 418 0084 0020     		movs	r0, #0
 419              	.LVL51:
 420              	.L32:
 362:Drivers/STM32G4xx_HAL_Driver/Src/stm32g4xx_hal_exti.c ****   }
 421              		.loc 1 362 5 is_stmt 1 view .LVU173
 362:Drivers/STM32G4xx_HAL_Driver/Src/stm32g4xx_hal_exti.c ****   }
 422              		.loc 1 362 26 is_stmt 0 view .LVU174
 423 0086 C860     		str	r0, [r1, #12]
 424 0088 FBE7     		b	.L19
 425              	.LVL52:
 426              	.L21:
 361:Drivers/STM32G4xx_HAL_Driver/Src/stm32g4xx_hal_exti.c ****     pExtiConfig->GPIOSel = 0x00u;
 427              		.loc 1 361 5 is_stmt 1 view .LVU175
 361:Drivers/STM32G4xx_HAL_Driver/Src/stm32g4xx_hal_exti.c ****     pExtiConfig->GPIOSel = 0x00u;
 428              		.loc 1 361 26 is_stmt 0 view .LVU176
 429 008a 8860     		str	r0, [r1, #8]
 430 008c FBE7     		b	.L32
 431              	.LVL53:
 432              	.L25:
 280:Drivers/STM32G4xx_HAL_Driver/Src/stm32g4xx_hal_exti.c ****   }
 433              		.loc 1 280 12 view .LVU177
 434 008e 0120     		movs	r0, #1
 435              	.LVL54:
 280:Drivers/STM32G4xx_HAL_Driver/Src/stm32g4xx_hal_exti.c ****   }
 436              		.loc 1 280 12 view .LVU178
 437 0090 F7E7     		b	.L19
 438              	.L34:
 439 0092 00BF     		.align	2
 440              	.L33:
 441 0094 04040140 		.word	1073808388
 442 0098 08040140 		.word	1073808392
 443 009c 0C040140 		.word	1073808396
 444 00a0 00000140 		.word	1073807360
 445              		.cfi_endproc
 446              	.LFE358:
 448              		.section	.text.HAL_EXTI_ClearConfigLine,"ax",%progbits
 449              		.align	1
 450              		.global	HAL_EXTI_ClearConfigLine
 451              		.syntax unified
 452              		.thumb
 453              		.thumb_func
 454              		.fpu fpv4-sp-d16
 456              	HAL_EXTI_ClearConfigLine:
 457              	.LVL55:
 458              	.LFB359:
 367:Drivers/STM32G4xx_HAL_Driver/Src/stm32g4xx_hal_exti.c **** 
 368:Drivers/STM32G4xx_HAL_Driver/Src/stm32g4xx_hal_exti.c **** 
 369:Drivers/STM32G4xx_HAL_Driver/Src/stm32g4xx_hal_exti.c **** /**
ARM GAS  /tmp/ccDHnVZK.s 			page 16


 370:Drivers/STM32G4xx_HAL_Driver/Src/stm32g4xx_hal_exti.c ****   * @brief  Clear whole configuration of a dedicated Exti line.
 371:Drivers/STM32G4xx_HAL_Driver/Src/stm32g4xx_hal_exti.c ****   * @param  hexti Exti handle.
 372:Drivers/STM32G4xx_HAL_Driver/Src/stm32g4xx_hal_exti.c ****   * @retval HAL Status.
 373:Drivers/STM32G4xx_HAL_Driver/Src/stm32g4xx_hal_exti.c ****   */
 374:Drivers/STM32G4xx_HAL_Driver/Src/stm32g4xx_hal_exti.c **** HAL_StatusTypeDef HAL_EXTI_ClearConfigLine(EXTI_HandleTypeDef *hexti)
 375:Drivers/STM32G4xx_HAL_Driver/Src/stm32g4xx_hal_exti.c **** {
 459              		.loc 1 375 1 is_stmt 1 view -0
 460              		.cfi_startproc
 461              		@ args = 0, pretend = 0, frame = 0
 462              		@ frame_needed = 0, uses_anonymous_args = 0
 376:Drivers/STM32G4xx_HAL_Driver/Src/stm32g4xx_hal_exti.c ****   __IO uint32_t *regaddr;
 463              		.loc 1 376 3 view .LVU180
 377:Drivers/STM32G4xx_HAL_Driver/Src/stm32g4xx_hal_exti.c ****   uint32_t regval;
 464              		.loc 1 377 3 view .LVU181
 378:Drivers/STM32G4xx_HAL_Driver/Src/stm32g4xx_hal_exti.c ****   uint32_t linepos;
 465              		.loc 1 378 3 view .LVU182
 379:Drivers/STM32G4xx_HAL_Driver/Src/stm32g4xx_hal_exti.c ****   uint32_t maskline;
 466              		.loc 1 379 3 view .LVU183
 380:Drivers/STM32G4xx_HAL_Driver/Src/stm32g4xx_hal_exti.c ****   uint32_t offset;
 467              		.loc 1 380 3 view .LVU184
 381:Drivers/STM32G4xx_HAL_Driver/Src/stm32g4xx_hal_exti.c **** 
 382:Drivers/STM32G4xx_HAL_Driver/Src/stm32g4xx_hal_exti.c ****   /* Check null pointer */
 383:Drivers/STM32G4xx_HAL_Driver/Src/stm32g4xx_hal_exti.c ****   if (hexti == NULL)
 468              		.loc 1 383 3 view .LVU185
 375:Drivers/STM32G4xx_HAL_Driver/Src/stm32g4xx_hal_exti.c ****   __IO uint32_t *regaddr;
 469              		.loc 1 375 1 is_stmt 0 view .LVU186
 470 0000 F0B5     		push	{r4, r5, r6, r7, lr}
 471              	.LCFI2:
 472              		.cfi_def_cfa_offset 20
 473              		.cfi_offset 4, -20
 474              		.cfi_offset 5, -16
 475              		.cfi_offset 6, -12
 476              		.cfi_offset 7, -8
 477              		.cfi_offset 14, -4
 478              		.loc 1 383 6 view .LVU187
 479 0002 0028     		cmp	r0, #0
 480 0004 39D0     		beq	.L39
 384:Drivers/STM32G4xx_HAL_Driver/Src/stm32g4xx_hal_exti.c ****   {
 385:Drivers/STM32G4xx_HAL_Driver/Src/stm32g4xx_hal_exti.c ****     return HAL_ERROR;
 386:Drivers/STM32G4xx_HAL_Driver/Src/stm32g4xx_hal_exti.c ****   }
 387:Drivers/STM32G4xx_HAL_Driver/Src/stm32g4xx_hal_exti.c **** 
 388:Drivers/STM32G4xx_HAL_Driver/Src/stm32g4xx_hal_exti.c ****   /* Check the parameter */
 389:Drivers/STM32G4xx_HAL_Driver/Src/stm32g4xx_hal_exti.c ****   assert_param(IS_EXTI_LINE(hexti->Line));
 481              		.loc 1 389 3 is_stmt 1 view .LVU188
 390:Drivers/STM32G4xx_HAL_Driver/Src/stm32g4xx_hal_exti.c **** 
 391:Drivers/STM32G4xx_HAL_Driver/Src/stm32g4xx_hal_exti.c ****   /* compute line register offset and line mask */
 392:Drivers/STM32G4xx_HAL_Driver/Src/stm32g4xx_hal_exti.c ****   offset = ((hexti->Line & EXTI_REG_MASK) >> EXTI_REG_SHIFT);
 482              		.loc 1 392 3 view .LVU189
 483              		.loc 1 392 19 is_stmt 0 view .LVU190
 484 0006 0168     		ldr	r1, [r0]
 485              	.LVL56:
 393:Drivers/STM32G4xx_HAL_Driver/Src/stm32g4xx_hal_exti.c ****   /* compute line position */
 394:Drivers/STM32G4xx_HAL_Driver/Src/stm32g4xx_hal_exti.c ****   linepos = (hexti->Line & EXTI_PIN_MASK);
 486              		.loc 1 394 3 is_stmt 1 view .LVU191
 392:Drivers/STM32G4xx_HAL_Driver/Src/stm32g4xx_hal_exti.c ****   /* compute line position */
 487              		.loc 1 392 10 is_stmt 0 view .LVU192
 488 0008 C1F30042 		ubfx	r2, r1, #16, #1
ARM GAS  /tmp/ccDHnVZK.s 			page 17


 395:Drivers/STM32G4xx_HAL_Driver/Src/stm32g4xx_hal_exti.c ****   /* compute line mask */
 396:Drivers/STM32G4xx_HAL_Driver/Src/stm32g4xx_hal_exti.c ****   maskline = (1uL << linepos);
 397:Drivers/STM32G4xx_HAL_Driver/Src/stm32g4xx_hal_exti.c **** 
 398:Drivers/STM32G4xx_HAL_Driver/Src/stm32g4xx_hal_exti.c ****   /* 1] Clear interrupt mode */
 399:Drivers/STM32G4xx_HAL_Driver/Src/stm32g4xx_hal_exti.c ****   regaddr = (&EXTI->IMR1 + (EXTI_MODE_OFFSET * offset));
 489              		.loc 1 399 26 view .LVU193
 490 000c 5201     		lsls	r2, r2, #5
 491              		.loc 1 399 11 view .LVU194
 492 000e 02F18046 		add	r6, r2, #1073741824
 493 0012 06F58236 		add	r6, r6, #66560
 394:Drivers/STM32G4xx_HAL_Driver/Src/stm32g4xx_hal_exti.c ****   /* compute line mask */
 494              		.loc 1 394 11 view .LVU195
 495 0016 01F01F03 		and	r3, r1, #31
 496              	.LVL57:
 396:Drivers/STM32G4xx_HAL_Driver/Src/stm32g4xx_hal_exti.c **** 
 497              		.loc 1 396 3 is_stmt 1 view .LVU196
 498              		.loc 1 399 3 view .LVU197
 400:Drivers/STM32G4xx_HAL_Driver/Src/stm32g4xx_hal_exti.c ****   regval = (*regaddr & ~maskline);
 499              		.loc 1 400 3 view .LVU198
 500              		.loc 1 400 13 is_stmt 0 view .LVU199
 501 001a 3768     		ldr	r7, [r6]
 396:Drivers/STM32G4xx_HAL_Driver/Src/stm32g4xx_hal_exti.c **** 
 502              		.loc 1 396 12 view .LVU200
 503 001c 0124     		movs	r4, #1
 504 001e 9C40     		lsls	r4, r4, r3
 505              	.LVL58:
 506              		.loc 1 400 10 view .LVU201
 507 0020 27EA0407 		bic	r7, r7, r4
 508              	.LVL59:
 401:Drivers/STM32G4xx_HAL_Driver/Src/stm32g4xx_hal_exti.c ****   *regaddr = regval;
 509              		.loc 1 401 3 is_stmt 1 view .LVU202
 510              		.loc 1 401 12 is_stmt 0 view .LVU203
 511 0024 3760     		str	r7, [r6]
 402:Drivers/STM32G4xx_HAL_Driver/Src/stm32g4xx_hal_exti.c **** 
 403:Drivers/STM32G4xx_HAL_Driver/Src/stm32g4xx_hal_exti.c ****   /* 2] Clear event mode */
 404:Drivers/STM32G4xx_HAL_Driver/Src/stm32g4xx_hal_exti.c ****   regaddr = (&EXTI->EMR1 + (EXTI_MODE_OFFSET * offset));
 512              		.loc 1 404 3 is_stmt 1 view .LVU204
 513              		.loc 1 404 11 is_stmt 0 view .LVU205
 514 0026 164F     		ldr	r7, .L41
 515              	.LVL60:
 405:Drivers/STM32G4xx_HAL_Driver/Src/stm32g4xx_hal_exti.c ****   regval = (*regaddr & ~maskline);
 516              		.loc 1 405 3 is_stmt 1 view .LVU206
 517              		.loc 1 405 13 is_stmt 0 view .LVU207
 518 0028 D659     		ldr	r6, [r2, r7]
 519              	.LVL61:
 400:Drivers/STM32G4xx_HAL_Driver/Src/stm32g4xx_hal_exti.c ****   *regaddr = regval;
 520              		.loc 1 400 24 view .LVU208
 521 002a E543     		mvns	r5, r4
 522              		.loc 1 405 10 view .LVU209
 523 002c 26EA0404 		bic	r4, r6, r4
 524              	.LVL62:
 406:Drivers/STM32G4xx_HAL_Driver/Src/stm32g4xx_hal_exti.c ****   *regaddr = regval;
 525              		.loc 1 406 3 is_stmt 1 view .LVU210
 526              		.loc 1 406 12 is_stmt 0 view .LVU211
 527 0030 D451     		str	r4, [r2, r7]
 407:Drivers/STM32G4xx_HAL_Driver/Src/stm32g4xx_hal_exti.c **** 
 408:Drivers/STM32G4xx_HAL_Driver/Src/stm32g4xx_hal_exti.c ****   /* 3] Clear triggers in case of configurable lines */
ARM GAS  /tmp/ccDHnVZK.s 			page 18


 409:Drivers/STM32G4xx_HAL_Driver/Src/stm32g4xx_hal_exti.c ****   if ((hexti->Line & EXTI_CONFIG) != 0x00u)
 528              		.loc 1 409 3 is_stmt 1 view .LVU212
 529              		.loc 1 409 20 is_stmt 0 view .LVU213
 530 0032 0468     		ldr	r4, [r0]
 531              	.LVL63:
 532              		.loc 1 409 6 view .LVU214
 533 0034 A401     		lsls	r4, r4, #6
 534 0036 01D4     		bmi	.L37
 535              	.LVL64:
 536              	.L40:
 410:Drivers/STM32G4xx_HAL_Driver/Src/stm32g4xx_hal_exti.c ****   {
 411:Drivers/STM32G4xx_HAL_Driver/Src/stm32g4xx_hal_exti.c ****     regaddr = (&EXTI->RTSR1 + (EXTI_CONFIG_OFFSET * offset));
 412:Drivers/STM32G4xx_HAL_Driver/Src/stm32g4xx_hal_exti.c ****     regval = (*regaddr & ~maskline);
 413:Drivers/STM32G4xx_HAL_Driver/Src/stm32g4xx_hal_exti.c ****     *regaddr = regval;
 414:Drivers/STM32G4xx_HAL_Driver/Src/stm32g4xx_hal_exti.c **** 
 415:Drivers/STM32G4xx_HAL_Driver/Src/stm32g4xx_hal_exti.c ****     regaddr = (&EXTI->FTSR1 + (EXTI_CONFIG_OFFSET * offset));
 416:Drivers/STM32G4xx_HAL_Driver/Src/stm32g4xx_hal_exti.c ****     regval = (*regaddr & ~maskline);
 417:Drivers/STM32G4xx_HAL_Driver/Src/stm32g4xx_hal_exti.c ****     *regaddr = regval;
 418:Drivers/STM32G4xx_HAL_Driver/Src/stm32g4xx_hal_exti.c **** 
 419:Drivers/STM32G4xx_HAL_Driver/Src/stm32g4xx_hal_exti.c ****     /* Get Gpio port selection for gpio lines */
 420:Drivers/STM32G4xx_HAL_Driver/Src/stm32g4xx_hal_exti.c ****     if ((hexti->Line & EXTI_GPIO) == EXTI_GPIO)
 421:Drivers/STM32G4xx_HAL_Driver/Src/stm32g4xx_hal_exti.c ****     {
 422:Drivers/STM32G4xx_HAL_Driver/Src/stm32g4xx_hal_exti.c ****       assert_param(IS_EXTI_GPIO_PIN(linepos));
 423:Drivers/STM32G4xx_HAL_Driver/Src/stm32g4xx_hal_exti.c **** 
 424:Drivers/STM32G4xx_HAL_Driver/Src/stm32g4xx_hal_exti.c ****       regval = SYSCFG->EXTICR[linepos >> 2u];
 425:Drivers/STM32G4xx_HAL_Driver/Src/stm32g4xx_hal_exti.c ****       regval &= ~(SYSCFG_EXTICR1_EXTI0 << (SYSCFG_EXTICR1_EXTI1_Pos * (linepos & 0x03u)));
 426:Drivers/STM32G4xx_HAL_Driver/Src/stm32g4xx_hal_exti.c ****       SYSCFG->EXTICR[linepos >> 2u] = regval;
 427:Drivers/STM32G4xx_HAL_Driver/Src/stm32g4xx_hal_exti.c ****     }
 428:Drivers/STM32G4xx_HAL_Driver/Src/stm32g4xx_hal_exti.c ****   }
 429:Drivers/STM32G4xx_HAL_Driver/Src/stm32g4xx_hal_exti.c **** 
 430:Drivers/STM32G4xx_HAL_Driver/Src/stm32g4xx_hal_exti.c ****   return HAL_OK;
 537              		.loc 1 430 10 view .LVU215
 538 0038 0020     		movs	r0, #0
 539              	.L36:
 431:Drivers/STM32G4xx_HAL_Driver/Src/stm32g4xx_hal_exti.c **** }
 540              		.loc 1 431 1 view .LVU216
 541 003a F0BD     		pop	{r4, r5, r6, r7, pc}
 542              	.LVL65:
 543              	.L37:
 411:Drivers/STM32G4xx_HAL_Driver/Src/stm32g4xx_hal_exti.c ****     regval = (*regaddr & ~maskline);
 544              		.loc 1 411 5 is_stmt 1 view .LVU217
 411:Drivers/STM32G4xx_HAL_Driver/Src/stm32g4xx_hal_exti.c ****     regval = (*regaddr & ~maskline);
 545              		.loc 1 411 13 is_stmt 0 view .LVU218
 546 003c 114E     		ldr	r6, .L41+4
 547              	.LVL66:
 412:Drivers/STM32G4xx_HAL_Driver/Src/stm32g4xx_hal_exti.c ****     *regaddr = regval;
 548              		.loc 1 412 5 is_stmt 1 view .LVU219
 412:Drivers/STM32G4xx_HAL_Driver/Src/stm32g4xx_hal_exti.c ****     *regaddr = regval;
 549              		.loc 1 412 15 is_stmt 0 view .LVU220
 550 003e 9459     		ldr	r4, [r2, r6]
 412:Drivers/STM32G4xx_HAL_Driver/Src/stm32g4xx_hal_exti.c ****     *regaddr = regval;
 551              		.loc 1 412 12 view .LVU221
 552 0040 2C40     		ands	r4, r4, r5
 553              	.LVL67:
 413:Drivers/STM32G4xx_HAL_Driver/Src/stm32g4xx_hal_exti.c **** 
 554              		.loc 1 413 5 is_stmt 1 view .LVU222
 413:Drivers/STM32G4xx_HAL_Driver/Src/stm32g4xx_hal_exti.c **** 
ARM GAS  /tmp/ccDHnVZK.s 			page 19


 555              		.loc 1 413 14 is_stmt 0 view .LVU223
 556 0042 9451     		str	r4, [r2, r6]
 415:Drivers/STM32G4xx_HAL_Driver/Src/stm32g4xx_hal_exti.c ****     regval = (*regaddr & ~maskline);
 557              		.loc 1 415 5 is_stmt 1 view .LVU224
 415:Drivers/STM32G4xx_HAL_Driver/Src/stm32g4xx_hal_exti.c ****     regval = (*regaddr & ~maskline);
 558              		.loc 1 415 13 is_stmt 0 view .LVU225
 559 0044 104C     		ldr	r4, .L41+8
 560              	.LVL68:
 416:Drivers/STM32G4xx_HAL_Driver/Src/stm32g4xx_hal_exti.c ****     *regaddr = regval;
 561              		.loc 1 416 5 is_stmt 1 view .LVU226
 416:Drivers/STM32G4xx_HAL_Driver/Src/stm32g4xx_hal_exti.c ****     *regaddr = regval;
 562              		.loc 1 416 15 is_stmt 0 view .LVU227
 563 0046 1659     		ldr	r6, [r2, r4]
 564              	.LVL69:
 416:Drivers/STM32G4xx_HAL_Driver/Src/stm32g4xx_hal_exti.c ****     *regaddr = regval;
 565              		.loc 1 416 12 view .LVU228
 566 0048 3540     		ands	r5, r5, r6
 567              	.LVL70:
 417:Drivers/STM32G4xx_HAL_Driver/Src/stm32g4xx_hal_exti.c **** 
 568              		.loc 1 417 5 is_stmt 1 view .LVU229
 417:Drivers/STM32G4xx_HAL_Driver/Src/stm32g4xx_hal_exti.c **** 
 569              		.loc 1 417 14 is_stmt 0 view .LVU230
 570 004a 1551     		str	r5, [r2, r4]
 420:Drivers/STM32G4xx_HAL_Driver/Src/stm32g4xx_hal_exti.c ****     {
 571              		.loc 1 420 5 is_stmt 1 view .LVU231
 420:Drivers/STM32G4xx_HAL_Driver/Src/stm32g4xx_hal_exti.c ****     {
 572              		.loc 1 420 22 is_stmt 0 view .LVU232
 573 004c 0268     		ldr	r2, [r0]
 574              	.LVL71:
 420:Drivers/STM32G4xx_HAL_Driver/Src/stm32g4xx_hal_exti.c ****     {
 575              		.loc 1 420 22 view .LVU233
 576 004e 02F0C062 		and	r2, r2, #100663296
 420:Drivers/STM32G4xx_HAL_Driver/Src/stm32g4xx_hal_exti.c ****     {
 577              		.loc 1 420 8 view .LVU234
 578 0052 B2F1C06F 		cmp	r2, #100663296
 579 0056 EFD1     		bne	.L40
 422:Drivers/STM32G4xx_HAL_Driver/Src/stm32g4xx_hal_exti.c **** 
 580              		.loc 1 422 7 is_stmt 1 view .LVU235
 424:Drivers/STM32G4xx_HAL_Driver/Src/stm32g4xx_hal_exti.c ****       regval &= ~(SYSCFG_EXTICR1_EXTI0 << (SYSCFG_EXTICR1_EXTI1_Pos * (linepos & 0x03u)));
 581              		.loc 1 424 7 view .LVU236
 582 0058 03F01C03 		and	r3, r3, #28
 583              	.LVL72:
 424:Drivers/STM32G4xx_HAL_Driver/Src/stm32g4xx_hal_exti.c ****       regval &= ~(SYSCFG_EXTICR1_EXTI0 << (SYSCFG_EXTICR1_EXTI1_Pos * (linepos & 0x03u)));
 584              		.loc 1 424 7 is_stmt 0 view .LVU237
 585 005c 03F18043 		add	r3, r3, #1073741824
 586 0060 03F58033 		add	r3, r3, #65536
 425:Drivers/STM32G4xx_HAL_Driver/Src/stm32g4xx_hal_exti.c ****       SYSCFG->EXTICR[linepos >> 2u] = regval;
 587              		.loc 1 425 80 view .LVU238
 588 0064 01F00301 		and	r1, r1, #3
 589              	.LVL73:
 424:Drivers/STM32G4xx_HAL_Driver/Src/stm32g4xx_hal_exti.c ****       regval &= ~(SYSCFG_EXTICR1_EXTI0 << (SYSCFG_EXTICR1_EXTI1_Pos * (linepos & 0x03u)));
 590              		.loc 1 424 14 view .LVU239
 591 0068 9A68     		ldr	r2, [r3, #8]
 592              	.LVL74:
 425:Drivers/STM32G4xx_HAL_Driver/Src/stm32g4xx_hal_exti.c ****       SYSCFG->EXTICR[linepos >> 2u] = regval;
 593              		.loc 1 425 7 is_stmt 1 view .LVU240
 425:Drivers/STM32G4xx_HAL_Driver/Src/stm32g4xx_hal_exti.c ****       SYSCFG->EXTICR[linepos >> 2u] = regval;
ARM GAS  /tmp/ccDHnVZK.s 			page 20


 594              		.loc 1 425 69 is_stmt 0 view .LVU241
 595 006a 8900     		lsls	r1, r1, #2
 425:Drivers/STM32G4xx_HAL_Driver/Src/stm32g4xx_hal_exti.c ****       SYSCFG->EXTICR[linepos >> 2u] = regval;
 596              		.loc 1 425 40 view .LVU242
 597 006c 0720     		movs	r0, #7
 598              	.LVL75:
 425:Drivers/STM32G4xx_HAL_Driver/Src/stm32g4xx_hal_exti.c ****       SYSCFG->EXTICR[linepos >> 2u] = regval;
 599              		.loc 1 425 40 view .LVU243
 600 006e 00FA01F1 		lsl	r1, r0, r1
 425:Drivers/STM32G4xx_HAL_Driver/Src/stm32g4xx_hal_exti.c ****       SYSCFG->EXTICR[linepos >> 2u] = regval;
 601              		.loc 1 425 14 view .LVU244
 602 0072 22EA0101 		bic	r1, r2, r1
 603              	.LVL76:
 426:Drivers/STM32G4xx_HAL_Driver/Src/stm32g4xx_hal_exti.c ****     }
 604              		.loc 1 426 7 is_stmt 1 view .LVU245
 426:Drivers/STM32G4xx_HAL_Driver/Src/stm32g4xx_hal_exti.c ****     }
 605              		.loc 1 426 37 is_stmt 0 view .LVU246
 606 0076 9960     		str	r1, [r3, #8]
 607 0078 DEE7     		b	.L40
 608              	.LVL77:
 609              	.L39:
 385:Drivers/STM32G4xx_HAL_Driver/Src/stm32g4xx_hal_exti.c ****   }
 610              		.loc 1 385 12 view .LVU247
 611 007a 0120     		movs	r0, #1
 612              	.LVL78:
 385:Drivers/STM32G4xx_HAL_Driver/Src/stm32g4xx_hal_exti.c ****   }
 613              		.loc 1 385 12 view .LVU248
 614 007c DDE7     		b	.L36
 615              	.L42:
 616 007e 00BF     		.align	2
 617              	.L41:
 618 0080 04040140 		.word	1073808388
 619 0084 08040140 		.word	1073808392
 620 0088 0C040140 		.word	1073808396
 621              		.cfi_endproc
 622              	.LFE359:
 624              		.section	.text.HAL_EXTI_RegisterCallback,"ax",%progbits
 625              		.align	1
 626              		.global	HAL_EXTI_RegisterCallback
 627              		.syntax unified
 628              		.thumb
 629              		.thumb_func
 630              		.fpu fpv4-sp-d16
 632              	HAL_EXTI_RegisterCallback:
 633              	.LVL79:
 634              	.LFB360:
 432:Drivers/STM32G4xx_HAL_Driver/Src/stm32g4xx_hal_exti.c **** 
 433:Drivers/STM32G4xx_HAL_Driver/Src/stm32g4xx_hal_exti.c **** 
 434:Drivers/STM32G4xx_HAL_Driver/Src/stm32g4xx_hal_exti.c **** /**
 435:Drivers/STM32G4xx_HAL_Driver/Src/stm32g4xx_hal_exti.c ****   * @brief  Register callback for a dedicated Exti line.
 436:Drivers/STM32G4xx_HAL_Driver/Src/stm32g4xx_hal_exti.c ****   * @param  hexti Exti handle.
 437:Drivers/STM32G4xx_HAL_Driver/Src/stm32g4xx_hal_exti.c ****   * @param  CallbackID User callback identifier.
 438:Drivers/STM32G4xx_HAL_Driver/Src/stm32g4xx_hal_exti.c ****   *         This parameter can be one of @arg @ref EXTI_CallbackIDTypeDef values.
 439:Drivers/STM32G4xx_HAL_Driver/Src/stm32g4xx_hal_exti.c ****   * @param  pPendingCbfn function pointer to be stored as callback.
 440:Drivers/STM32G4xx_HAL_Driver/Src/stm32g4xx_hal_exti.c ****   * @retval HAL Status.
 441:Drivers/STM32G4xx_HAL_Driver/Src/stm32g4xx_hal_exti.c ****   */
 442:Drivers/STM32G4xx_HAL_Driver/Src/stm32g4xx_hal_exti.c **** HAL_StatusTypeDef HAL_EXTI_RegisterCallback(EXTI_HandleTypeDef *hexti, EXTI_CallbackIDTypeDef Callb
ARM GAS  /tmp/ccDHnVZK.s 			page 21


 443:Drivers/STM32G4xx_HAL_Driver/Src/stm32g4xx_hal_exti.c **** {
 635              		.loc 1 443 1 is_stmt 1 view -0
 636              		.cfi_startproc
 637              		@ args = 0, pretend = 0, frame = 0
 638              		@ frame_needed = 0, uses_anonymous_args = 0
 639              		@ link register save eliminated.
 444:Drivers/STM32G4xx_HAL_Driver/Src/stm32g4xx_hal_exti.c ****   HAL_StatusTypeDef status = HAL_OK;
 640              		.loc 1 444 3 view .LVU250
 445:Drivers/STM32G4xx_HAL_Driver/Src/stm32g4xx_hal_exti.c **** 
 446:Drivers/STM32G4xx_HAL_Driver/Src/stm32g4xx_hal_exti.c ****   /* Check the parameters */
 447:Drivers/STM32G4xx_HAL_Driver/Src/stm32g4xx_hal_exti.c ****   assert_param(IS_EXTI_CB(CallbackID));
 641              		.loc 1 447 3 view .LVU251
 448:Drivers/STM32G4xx_HAL_Driver/Src/stm32g4xx_hal_exti.c **** 
 449:Drivers/STM32G4xx_HAL_Driver/Src/stm32g4xx_hal_exti.c ****   switch (CallbackID)
 642              		.loc 1 449 3 view .LVU252
 450:Drivers/STM32G4xx_HAL_Driver/Src/stm32g4xx_hal_exti.c ****   {
 451:Drivers/STM32G4xx_HAL_Driver/Src/stm32g4xx_hal_exti.c ****     /* set common callback */
 452:Drivers/STM32G4xx_HAL_Driver/Src/stm32g4xx_hal_exti.c ****     case  HAL_EXTI_COMMON_CB_ID:
 453:Drivers/STM32G4xx_HAL_Driver/Src/stm32g4xx_hal_exti.c ****       hexti->PendingCallback = pPendingCbfn;
 454:Drivers/STM32G4xx_HAL_Driver/Src/stm32g4xx_hal_exti.c ****       break;
 455:Drivers/STM32G4xx_HAL_Driver/Src/stm32g4xx_hal_exti.c **** 
 456:Drivers/STM32G4xx_HAL_Driver/Src/stm32g4xx_hal_exti.c ****     default:
 457:Drivers/STM32G4xx_HAL_Driver/Src/stm32g4xx_hal_exti.c ****       hexti->PendingCallback = NULL;
 643              		.loc 1 457 30 is_stmt 0 view .LVU253
 644 0000 0029     		cmp	r1, #0
 443:Drivers/STM32G4xx_HAL_Driver/Src/stm32g4xx_hal_exti.c ****   HAL_StatusTypeDef status = HAL_OK;
 645              		.loc 1 443 1 view .LVU254
 646 0002 0346     		mov	r3, r0
 647              		.loc 1 457 30 view .LVU255
 648 0004 18BF     		it	ne
 649 0006 0022     		movne	r2, #0
 650              	.LVL80:
 449:Drivers/STM32G4xx_HAL_Driver/Src/stm32g4xx_hal_exti.c ****   {
 651              		.loc 1 449 3 view .LVU256
 652 0008 0846     		mov	r0, r1
 653              	.LVL81:
 449:Drivers/STM32G4xx_HAL_Driver/Src/stm32g4xx_hal_exti.c ****   {
 654              		.loc 1 449 3 view .LVU257
 655 000a 5A60     		str	r2, [r3, #4]
 656              		.loc 1 457 30 view .LVU258
 657 000c 0CBF     		ite	eq
 658 000e 0846     		moveq	r0, r1
 659 0010 0120     		movne	r0, #1
 660              	.LVL82:
 458:Drivers/STM32G4xx_HAL_Driver/Src/stm32g4xx_hal_exti.c ****       status = HAL_ERROR;
 459:Drivers/STM32G4xx_HAL_Driver/Src/stm32g4xx_hal_exti.c ****       break;
 460:Drivers/STM32G4xx_HAL_Driver/Src/stm32g4xx_hal_exti.c ****   }
 461:Drivers/STM32G4xx_HAL_Driver/Src/stm32g4xx_hal_exti.c **** 
 462:Drivers/STM32G4xx_HAL_Driver/Src/stm32g4xx_hal_exti.c ****   return status;
 661              		.loc 1 462 3 is_stmt 1 view .LVU259
 463:Drivers/STM32G4xx_HAL_Driver/Src/stm32g4xx_hal_exti.c **** }
 662              		.loc 1 463 1 is_stmt 0 view .LVU260
 663 0012 7047     		bx	lr
 664              		.cfi_endproc
 665              	.LFE360:
 667              		.section	.text.HAL_EXTI_GetHandle,"ax",%progbits
 668              		.align	1
ARM GAS  /tmp/ccDHnVZK.s 			page 22


 669              		.global	HAL_EXTI_GetHandle
 670              		.syntax unified
 671              		.thumb
 672              		.thumb_func
 673              		.fpu fpv4-sp-d16
 675              	HAL_EXTI_GetHandle:
 676              	.LVL83:
 677              	.LFB361:
 464:Drivers/STM32G4xx_HAL_Driver/Src/stm32g4xx_hal_exti.c **** 
 465:Drivers/STM32G4xx_HAL_Driver/Src/stm32g4xx_hal_exti.c **** 
 466:Drivers/STM32G4xx_HAL_Driver/Src/stm32g4xx_hal_exti.c **** /**
 467:Drivers/STM32G4xx_HAL_Driver/Src/stm32g4xx_hal_exti.c ****   * @brief  Store line number as handle private field.
 468:Drivers/STM32G4xx_HAL_Driver/Src/stm32g4xx_hal_exti.c ****   * @param  hexti Exti handle.
 469:Drivers/STM32G4xx_HAL_Driver/Src/stm32g4xx_hal_exti.c ****   * @param  ExtiLine Exti line number.
 470:Drivers/STM32G4xx_HAL_Driver/Src/stm32g4xx_hal_exti.c ****   *         This parameter can be from 0 to @ref EXTI_LINE_NB.
 471:Drivers/STM32G4xx_HAL_Driver/Src/stm32g4xx_hal_exti.c ****   * @retval HAL Status.
 472:Drivers/STM32G4xx_HAL_Driver/Src/stm32g4xx_hal_exti.c ****   */
 473:Drivers/STM32G4xx_HAL_Driver/Src/stm32g4xx_hal_exti.c **** HAL_StatusTypeDef HAL_EXTI_GetHandle(EXTI_HandleTypeDef *hexti, uint32_t ExtiLine)
 474:Drivers/STM32G4xx_HAL_Driver/Src/stm32g4xx_hal_exti.c **** {
 678              		.loc 1 474 1 is_stmt 1 view -0
 679              		.cfi_startproc
 680              		@ args = 0, pretend = 0, frame = 0
 681              		@ frame_needed = 0, uses_anonymous_args = 0
 682              		@ link register save eliminated.
 475:Drivers/STM32G4xx_HAL_Driver/Src/stm32g4xx_hal_exti.c ****   /* Check the parameters */
 476:Drivers/STM32G4xx_HAL_Driver/Src/stm32g4xx_hal_exti.c ****   assert_param(IS_EXTI_LINE(ExtiLine));
 683              		.loc 1 476 3 view .LVU262
 477:Drivers/STM32G4xx_HAL_Driver/Src/stm32g4xx_hal_exti.c **** 
 478:Drivers/STM32G4xx_HAL_Driver/Src/stm32g4xx_hal_exti.c ****   /* Check null pointer */
 479:Drivers/STM32G4xx_HAL_Driver/Src/stm32g4xx_hal_exti.c ****   if (hexti == NULL)
 684              		.loc 1 479 3 view .LVU263
 685              		.loc 1 479 6 is_stmt 0 view .LVU264
 686 0000 10B1     		cbz	r0, .L50
 480:Drivers/STM32G4xx_HAL_Driver/Src/stm32g4xx_hal_exti.c ****   {
 481:Drivers/STM32G4xx_HAL_Driver/Src/stm32g4xx_hal_exti.c ****     return HAL_ERROR;
 482:Drivers/STM32G4xx_HAL_Driver/Src/stm32g4xx_hal_exti.c ****   }
 483:Drivers/STM32G4xx_HAL_Driver/Src/stm32g4xx_hal_exti.c ****   else
 484:Drivers/STM32G4xx_HAL_Driver/Src/stm32g4xx_hal_exti.c ****   {
 485:Drivers/STM32G4xx_HAL_Driver/Src/stm32g4xx_hal_exti.c ****     /* Store line number as handle private field */
 486:Drivers/STM32G4xx_HAL_Driver/Src/stm32g4xx_hal_exti.c ****     hexti->Line = ExtiLine;
 687              		.loc 1 486 5 is_stmt 1 view .LVU265
 688              		.loc 1 486 17 is_stmt 0 view .LVU266
 689 0002 0160     		str	r1, [r0]
 487:Drivers/STM32G4xx_HAL_Driver/Src/stm32g4xx_hal_exti.c **** 
 488:Drivers/STM32G4xx_HAL_Driver/Src/stm32g4xx_hal_exti.c ****     return HAL_OK;
 690              		.loc 1 488 5 is_stmt 1 view .LVU267
 691              		.loc 1 488 12 is_stmt 0 view .LVU268
 692 0004 0020     		movs	r0, #0
 693              	.LVL84:
 694              		.loc 1 488 12 view .LVU269
 695 0006 7047     		bx	lr
 696              	.LVL85:
 697              	.L50:
 481:Drivers/STM32G4xx_HAL_Driver/Src/stm32g4xx_hal_exti.c ****   }
 698              		.loc 1 481 12 view .LVU270
 699 0008 0120     		movs	r0, #1
 700              	.LVL86:
ARM GAS  /tmp/ccDHnVZK.s 			page 23


 489:Drivers/STM32G4xx_HAL_Driver/Src/stm32g4xx_hal_exti.c ****   }
 490:Drivers/STM32G4xx_HAL_Driver/Src/stm32g4xx_hal_exti.c **** }
 701              		.loc 1 490 1 view .LVU271
 702 000a 7047     		bx	lr
 703              		.cfi_endproc
 704              	.LFE361:
 706              		.section	.text.HAL_EXTI_IRQHandler,"ax",%progbits
 707              		.align	1
 708              		.global	HAL_EXTI_IRQHandler
 709              		.syntax unified
 710              		.thumb
 711              		.thumb_func
 712              		.fpu fpv4-sp-d16
 714              	HAL_EXTI_IRQHandler:
 715              	.LVL87:
 716              	.LFB362:
 491:Drivers/STM32G4xx_HAL_Driver/Src/stm32g4xx_hal_exti.c **** 
 492:Drivers/STM32G4xx_HAL_Driver/Src/stm32g4xx_hal_exti.c **** 
 493:Drivers/STM32G4xx_HAL_Driver/Src/stm32g4xx_hal_exti.c **** /**
 494:Drivers/STM32G4xx_HAL_Driver/Src/stm32g4xx_hal_exti.c ****   * @}
 495:Drivers/STM32G4xx_HAL_Driver/Src/stm32g4xx_hal_exti.c ****   */
 496:Drivers/STM32G4xx_HAL_Driver/Src/stm32g4xx_hal_exti.c **** 
 497:Drivers/STM32G4xx_HAL_Driver/Src/stm32g4xx_hal_exti.c **** /** @addtogroup EXTI_Exported_Functions_Group2
 498:Drivers/STM32G4xx_HAL_Driver/Src/stm32g4xx_hal_exti.c ****   *  @brief EXTI IO functions.
 499:Drivers/STM32G4xx_HAL_Driver/Src/stm32g4xx_hal_exti.c ****   *
 500:Drivers/STM32G4xx_HAL_Driver/Src/stm32g4xx_hal_exti.c **** @verbatim
 501:Drivers/STM32G4xx_HAL_Driver/Src/stm32g4xx_hal_exti.c ****  ===============================================================================
 502:Drivers/STM32G4xx_HAL_Driver/Src/stm32g4xx_hal_exti.c ****                        ##### IO operation functions #####
 503:Drivers/STM32G4xx_HAL_Driver/Src/stm32g4xx_hal_exti.c ****  ===============================================================================
 504:Drivers/STM32G4xx_HAL_Driver/Src/stm32g4xx_hal_exti.c **** 
 505:Drivers/STM32G4xx_HAL_Driver/Src/stm32g4xx_hal_exti.c **** @endverbatim
 506:Drivers/STM32G4xx_HAL_Driver/Src/stm32g4xx_hal_exti.c ****   * @{
 507:Drivers/STM32G4xx_HAL_Driver/Src/stm32g4xx_hal_exti.c ****   */
 508:Drivers/STM32G4xx_HAL_Driver/Src/stm32g4xx_hal_exti.c **** 
 509:Drivers/STM32G4xx_HAL_Driver/Src/stm32g4xx_hal_exti.c **** /**
 510:Drivers/STM32G4xx_HAL_Driver/Src/stm32g4xx_hal_exti.c ****   * @brief  Handle EXTI interrupt request.
 511:Drivers/STM32G4xx_HAL_Driver/Src/stm32g4xx_hal_exti.c ****   * @param  hexti Exti handle.
 512:Drivers/STM32G4xx_HAL_Driver/Src/stm32g4xx_hal_exti.c ****   * @retval none.
 513:Drivers/STM32G4xx_HAL_Driver/Src/stm32g4xx_hal_exti.c ****   */
 514:Drivers/STM32G4xx_HAL_Driver/Src/stm32g4xx_hal_exti.c **** void HAL_EXTI_IRQHandler(EXTI_HandleTypeDef *hexti)
 515:Drivers/STM32G4xx_HAL_Driver/Src/stm32g4xx_hal_exti.c **** {
 717              		.loc 1 515 1 is_stmt 1 view -0
 718              		.cfi_startproc
 719              		@ args = 0, pretend = 0, frame = 0
 720              		@ frame_needed = 0, uses_anonymous_args = 0
 721              		@ link register save eliminated.
 516:Drivers/STM32G4xx_HAL_Driver/Src/stm32g4xx_hal_exti.c ****   __IO uint32_t *regaddr;
 722              		.loc 1 516 3 view .LVU273
 517:Drivers/STM32G4xx_HAL_Driver/Src/stm32g4xx_hal_exti.c ****   uint32_t regval;
 723              		.loc 1 517 3 view .LVU274
 518:Drivers/STM32G4xx_HAL_Driver/Src/stm32g4xx_hal_exti.c ****   uint32_t maskline;
 724              		.loc 1 518 3 view .LVU275
 519:Drivers/STM32G4xx_HAL_Driver/Src/stm32g4xx_hal_exti.c ****   uint32_t offset;
 725              		.loc 1 519 3 view .LVU276
 520:Drivers/STM32G4xx_HAL_Driver/Src/stm32g4xx_hal_exti.c **** 
 521:Drivers/STM32G4xx_HAL_Driver/Src/stm32g4xx_hal_exti.c ****   /* Compute line register offset */
 522:Drivers/STM32G4xx_HAL_Driver/Src/stm32g4xx_hal_exti.c ****   offset = ((hexti->Line & EXTI_REG_MASK) >> EXTI_REG_SHIFT);
ARM GAS  /tmp/ccDHnVZK.s 			page 24


 726              		.loc 1 522 3 view .LVU277
 727              		.loc 1 522 19 is_stmt 0 view .LVU278
 728 0000 0368     		ldr	r3, [r0]
 729              	.LVL88:
 523:Drivers/STM32G4xx_HAL_Driver/Src/stm32g4xx_hal_exti.c ****   /* compute line mask */
 524:Drivers/STM32G4xx_HAL_Driver/Src/stm32g4xx_hal_exti.c ****   maskline = (1uL << (hexti->Line & EXTI_PIN_MASK));
 730              		.loc 1 524 3 is_stmt 1 view .LVU279
 731              		.loc 1 524 12 is_stmt 0 view .LVU280
 732 0002 0122     		movs	r2, #1
 733              		.loc 1 524 35 view .LVU281
 734 0004 03F01F01 		and	r1, r3, #31
 522:Drivers/STM32G4xx_HAL_Driver/Src/stm32g4xx_hal_exti.c ****   /* compute line mask */
 735              		.loc 1 522 10 view .LVU282
 736 0008 C3F30043 		ubfx	r3, r3, #16, #1
 737              	.LVL89:
 738              		.loc 1 524 12 view .LVU283
 739 000c 8A40     		lsls	r2, r2, r1
 740              	.LVL90:
 525:Drivers/STM32G4xx_HAL_Driver/Src/stm32g4xx_hal_exti.c **** 
 526:Drivers/STM32G4xx_HAL_Driver/Src/stm32g4xx_hal_exti.c ****   /* Get pending bit  */
 527:Drivers/STM32G4xx_HAL_Driver/Src/stm32g4xx_hal_exti.c ****   regaddr = (&EXTI->PR1 + (EXTI_CONFIG_OFFSET * offset));
 741              		.loc 1 527 3 is_stmt 1 view .LVU284
 742              		.loc 1 527 25 is_stmt 0 view .LVU285
 743 000e 5B01     		lsls	r3, r3, #5
 744              		.loc 1 527 11 view .LVU286
 745 0010 0649     		ldr	r1, .L58
 746              	.LVL91:
 528:Drivers/STM32G4xx_HAL_Driver/Src/stm32g4xx_hal_exti.c ****   regval = (*regaddr & maskline);
 747              		.loc 1 528 3 is_stmt 1 view .LVU287
 515:Drivers/STM32G4xx_HAL_Driver/Src/stm32g4xx_hal_exti.c ****   __IO uint32_t *regaddr;
 748              		.loc 1 515 1 is_stmt 0 view .LVU288
 749 0012 10B4     		push	{r4}
 750              	.LCFI3:
 751              		.cfi_def_cfa_offset 4
 752              		.cfi_offset 4, -4
 753              		.loc 1 528 13 view .LVU289
 754 0014 5C58     		ldr	r4, [r3, r1]
 755              	.LVL92:
 529:Drivers/STM32G4xx_HAL_Driver/Src/stm32g4xx_hal_exti.c **** 
 530:Drivers/STM32G4xx_HAL_Driver/Src/stm32g4xx_hal_exti.c ****   if (regval != 0x00u)
 756              		.loc 1 530 3 is_stmt 1 view .LVU290
 757              		.loc 1 530 6 is_stmt 0 view .LVU291
 758 0016 1442     		tst	r4, r2
 759 0018 05D0     		beq	.L51
 531:Drivers/STM32G4xx_HAL_Driver/Src/stm32g4xx_hal_exti.c ****   {
 532:Drivers/STM32G4xx_HAL_Driver/Src/stm32g4xx_hal_exti.c ****     /* Clear pending bit */
 533:Drivers/STM32G4xx_HAL_Driver/Src/stm32g4xx_hal_exti.c ****     *regaddr = maskline;
 760              		.loc 1 533 5 is_stmt 1 view .LVU292
 761              		.loc 1 533 14 is_stmt 0 view .LVU293
 762 001a 5A50     		str	r2, [r3, r1]
 763              	.LVL93:
 534:Drivers/STM32G4xx_HAL_Driver/Src/stm32g4xx_hal_exti.c **** 
 535:Drivers/STM32G4xx_HAL_Driver/Src/stm32g4xx_hal_exti.c ****     /* Call pending callback */
 536:Drivers/STM32G4xx_HAL_Driver/Src/stm32g4xx_hal_exti.c ****     if (hexti->PendingCallback != NULL)
 764              		.loc 1 536 5 is_stmt 1 view .LVU294
 765              		.loc 1 536 14 is_stmt 0 view .LVU295
 766 001c 4368     		ldr	r3, [r0, #4]
ARM GAS  /tmp/ccDHnVZK.s 			page 25


 767              	.LVL94:
 768              		.loc 1 536 8 view .LVU296
 769 001e 13B1     		cbz	r3, .L51
 537:Drivers/STM32G4xx_HAL_Driver/Src/stm32g4xx_hal_exti.c ****     {
 538:Drivers/STM32G4xx_HAL_Driver/Src/stm32g4xx_hal_exti.c ****       hexti->PendingCallback();
 770              		.loc 1 538 7 is_stmt 1 view .LVU297
 539:Drivers/STM32G4xx_HAL_Driver/Src/stm32g4xx_hal_exti.c ****     }
 540:Drivers/STM32G4xx_HAL_Driver/Src/stm32g4xx_hal_exti.c ****   }
 541:Drivers/STM32G4xx_HAL_Driver/Src/stm32g4xx_hal_exti.c **** }
 771              		.loc 1 541 1 is_stmt 0 view .LVU298
 772 0020 5DF8044B 		ldr	r4, [sp], #4
 773              	.LCFI4:
 774              		.cfi_remember_state
 775              		.cfi_restore 4
 776              		.cfi_def_cfa_offset 0
 777              	.LVL95:
 538:Drivers/STM32G4xx_HAL_Driver/Src/stm32g4xx_hal_exti.c ****     }
 778              		.loc 1 538 7 view .LVU299
 779 0024 1847     		bx	r3	@ indirect register sibling call
 780              	.LVL96:
 781              	.L51:
 782              	.LCFI5:
 783              		.cfi_restore_state
 784              		.loc 1 541 1 view .LVU300
 785 0026 5DF8044B 		ldr	r4, [sp], #4
 786              	.LCFI6:
 787              		.cfi_restore 4
 788              		.cfi_def_cfa_offset 0
 789              	.LVL97:
 790              		.loc 1 541 1 view .LVU301
 791 002a 7047     		bx	lr
 792              	.L59:
 793              		.align	2
 794              	.L58:
 795 002c 14040140 		.word	1073808404
 796              		.cfi_endproc
 797              	.LFE362:
 799              		.section	.text.HAL_EXTI_GetPending,"ax",%progbits
 800              		.align	1
 801              		.global	HAL_EXTI_GetPending
 802              		.syntax unified
 803              		.thumb
 804              		.thumb_func
 805              		.fpu fpv4-sp-d16
 807              	HAL_EXTI_GetPending:
 808              	.LVL98:
 809              	.LFB363:
 542:Drivers/STM32G4xx_HAL_Driver/Src/stm32g4xx_hal_exti.c **** 
 543:Drivers/STM32G4xx_HAL_Driver/Src/stm32g4xx_hal_exti.c **** /**
 544:Drivers/STM32G4xx_HAL_Driver/Src/stm32g4xx_hal_exti.c ****   * @brief  Get interrupt pending bit of a dedicated line.
 545:Drivers/STM32G4xx_HAL_Driver/Src/stm32g4xx_hal_exti.c ****   * @param  hexti Exti handle.
 546:Drivers/STM32G4xx_HAL_Driver/Src/stm32g4xx_hal_exti.c ****   * @param  Edge unused
 547:Drivers/STM32G4xx_HAL_Driver/Src/stm32g4xx_hal_exti.c ****   * @retval 1 if interrupt is pending else 0.
 548:Drivers/STM32G4xx_HAL_Driver/Src/stm32g4xx_hal_exti.c ****   */
 549:Drivers/STM32G4xx_HAL_Driver/Src/stm32g4xx_hal_exti.c **** uint32_t HAL_EXTI_GetPending(EXTI_HandleTypeDef *hexti, uint32_t Edge)
 550:Drivers/STM32G4xx_HAL_Driver/Src/stm32g4xx_hal_exti.c **** {
 810              		.loc 1 550 1 is_stmt 1 view -0
ARM GAS  /tmp/ccDHnVZK.s 			page 26


 811              		.cfi_startproc
 812              		@ args = 0, pretend = 0, frame = 0
 813              		@ frame_needed = 0, uses_anonymous_args = 0
 814              		@ link register save eliminated.
 551:Drivers/STM32G4xx_HAL_Driver/Src/stm32g4xx_hal_exti.c ****   __IO uint32_t *regaddr;
 815              		.loc 1 551 3 view .LVU303
 552:Drivers/STM32G4xx_HAL_Driver/Src/stm32g4xx_hal_exti.c ****   uint32_t regval;
 816              		.loc 1 552 3 view .LVU304
 553:Drivers/STM32G4xx_HAL_Driver/Src/stm32g4xx_hal_exti.c ****   uint32_t linepos;
 817              		.loc 1 553 3 view .LVU305
 554:Drivers/STM32G4xx_HAL_Driver/Src/stm32g4xx_hal_exti.c ****   uint32_t maskline;
 818              		.loc 1 554 3 view .LVU306
 555:Drivers/STM32G4xx_HAL_Driver/Src/stm32g4xx_hal_exti.c ****   uint32_t offset;
 819              		.loc 1 555 3 view .LVU307
 556:Drivers/STM32G4xx_HAL_Driver/Src/stm32g4xx_hal_exti.c **** 
 557:Drivers/STM32G4xx_HAL_Driver/Src/stm32g4xx_hal_exti.c ****   /* Check parameters */
 558:Drivers/STM32G4xx_HAL_Driver/Src/stm32g4xx_hal_exti.c ****   assert_param(IS_EXTI_LINE(hexti->Line));
 820              		.loc 1 558 3 view .LVU308
 559:Drivers/STM32G4xx_HAL_Driver/Src/stm32g4xx_hal_exti.c ****   assert_param(IS_EXTI_CONFIG_LINE(hexti->Line));
 821              		.loc 1 559 3 view .LVU309
 560:Drivers/STM32G4xx_HAL_Driver/Src/stm32g4xx_hal_exti.c ****   UNUSED(Edge);
 822              		.loc 1 560 3 view .LVU310
 561:Drivers/STM32G4xx_HAL_Driver/Src/stm32g4xx_hal_exti.c **** 
 562:Drivers/STM32G4xx_HAL_Driver/Src/stm32g4xx_hal_exti.c ****   /* Compute line register offset */
 563:Drivers/STM32G4xx_HAL_Driver/Src/stm32g4xx_hal_exti.c ****   offset = ((hexti->Line & EXTI_REG_MASK) >> EXTI_REG_SHIFT);
 823              		.loc 1 563 3 view .LVU311
 824              		.loc 1 563 19 is_stmt 0 view .LVU312
 825 0000 0368     		ldr	r3, [r0]
 826              	.LVL99:
 564:Drivers/STM32G4xx_HAL_Driver/Src/stm32g4xx_hal_exti.c ****   /* Compute line position */
 565:Drivers/STM32G4xx_HAL_Driver/Src/stm32g4xx_hal_exti.c ****   linepos = (hexti->Line & EXTI_PIN_MASK);
 827              		.loc 1 565 3 is_stmt 1 view .LVU313
 566:Drivers/STM32G4xx_HAL_Driver/Src/stm32g4xx_hal_exti.c ****   /* Compute line mask */
 567:Drivers/STM32G4xx_HAL_Driver/Src/stm32g4xx_hal_exti.c ****   maskline = (1uL << linepos);
 568:Drivers/STM32G4xx_HAL_Driver/Src/stm32g4xx_hal_exti.c **** 
 569:Drivers/STM32G4xx_HAL_Driver/Src/stm32g4xx_hal_exti.c ****   /* Get pending bit */
 570:Drivers/STM32G4xx_HAL_Driver/Src/stm32g4xx_hal_exti.c ****   regaddr = (&EXTI->PR1 + (EXTI_CONFIG_OFFSET * offset));
 828              		.loc 1 570 11 is_stmt 0 view .LVU314
 829 0002 064A     		ldr	r2, .L61
 565:Drivers/STM32G4xx_HAL_Driver/Src/stm32g4xx_hal_exti.c ****   /* Compute line mask */
 830              		.loc 1 565 11 view .LVU315
 831 0004 03F01F00 		and	r0, r3, #31
 832              	.LVL100:
 567:Drivers/STM32G4xx_HAL_Driver/Src/stm32g4xx_hal_exti.c **** 
 833              		.loc 1 567 3 is_stmt 1 view .LVU316
 834              		.loc 1 570 3 view .LVU317
 563:Drivers/STM32G4xx_HAL_Driver/Src/stm32g4xx_hal_exti.c ****   /* Compute line position */
 835              		.loc 1 563 10 is_stmt 0 view .LVU318
 836 0008 C3F30043 		ubfx	r3, r3, #16, #1
 837              	.LVL101:
 838              		.loc 1 570 25 view .LVU319
 839 000c 5B01     		lsls	r3, r3, #5
 840              	.LVL102:
 571:Drivers/STM32G4xx_HAL_Driver/Src/stm32g4xx_hal_exti.c **** 
 572:Drivers/STM32G4xx_HAL_Driver/Src/stm32g4xx_hal_exti.c ****   /* return 1 if bit is set else 0 */
 573:Drivers/STM32G4xx_HAL_Driver/Src/stm32g4xx_hal_exti.c ****   regval = ((*regaddr & maskline) >> linepos);
 841              		.loc 1 573 3 is_stmt 1 view .LVU320
ARM GAS  /tmp/ccDHnVZK.s 			page 27


 842              		.loc 1 573 14 is_stmt 0 view .LVU321
 843 000e 9A58     		ldr	r2, [r3, r2]
 844              	.LVL103:
 574:Drivers/STM32G4xx_HAL_Driver/Src/stm32g4xx_hal_exti.c ****   return regval;
 845              		.loc 1 574 3 is_stmt 1 view .LVU322
 567:Drivers/STM32G4xx_HAL_Driver/Src/stm32g4xx_hal_exti.c **** 
 846              		.loc 1 567 12 is_stmt 0 view .LVU323
 847 0010 0123     		movs	r3, #1
 848              	.LVL104:
 567:Drivers/STM32G4xx_HAL_Driver/Src/stm32g4xx_hal_exti.c **** 
 849              		.loc 1 567 12 view .LVU324
 850 0012 8340     		lsls	r3, r3, r0
 851              	.LVL105:
 573:Drivers/STM32G4xx_HAL_Driver/Src/stm32g4xx_hal_exti.c ****   return regval;
 852              		.loc 1 573 23 view .LVU325
 853 0014 1340     		ands	r3, r3, r2
 854              	.LVL106:
 575:Drivers/STM32G4xx_HAL_Driver/Src/stm32g4xx_hal_exti.c **** }
 855              		.loc 1 575 1 view .LVU326
 856 0016 23FA00F0 		lsr	r0, r3, r0
 857              	.LVL107:
 858              		.loc 1 575 1 view .LVU327
 859 001a 7047     		bx	lr
 860              	.L62:
 861              		.align	2
 862              	.L61:
 863 001c 14040140 		.word	1073808404
 864              		.cfi_endproc
 865              	.LFE363:
 867              		.section	.text.HAL_EXTI_ClearPending,"ax",%progbits
 868              		.align	1
 869              		.global	HAL_EXTI_ClearPending
 870              		.syntax unified
 871              		.thumb
 872              		.thumb_func
 873              		.fpu fpv4-sp-d16
 875              	HAL_EXTI_ClearPending:
 876              	.LVL108:
 877              	.LFB364:
 576:Drivers/STM32G4xx_HAL_Driver/Src/stm32g4xx_hal_exti.c **** 
 577:Drivers/STM32G4xx_HAL_Driver/Src/stm32g4xx_hal_exti.c **** 
 578:Drivers/STM32G4xx_HAL_Driver/Src/stm32g4xx_hal_exti.c **** /**
 579:Drivers/STM32G4xx_HAL_Driver/Src/stm32g4xx_hal_exti.c ****   * @brief  Clear interrupt pending bit of a dedicated line.
 580:Drivers/STM32G4xx_HAL_Driver/Src/stm32g4xx_hal_exti.c ****   * @param  hexti Exti handle.
 581:Drivers/STM32G4xx_HAL_Driver/Src/stm32g4xx_hal_exti.c ****   * @param  Edge unused
 582:Drivers/STM32G4xx_HAL_Driver/Src/stm32g4xx_hal_exti.c ****   * @retval None.
 583:Drivers/STM32G4xx_HAL_Driver/Src/stm32g4xx_hal_exti.c ****   */
 584:Drivers/STM32G4xx_HAL_Driver/Src/stm32g4xx_hal_exti.c **** void HAL_EXTI_ClearPending(EXTI_HandleTypeDef *hexti, uint32_t Edge)
 585:Drivers/STM32G4xx_HAL_Driver/Src/stm32g4xx_hal_exti.c **** {
 878              		.loc 1 585 1 is_stmt 1 view -0
 879              		.cfi_startproc
 880              		@ args = 0, pretend = 0, frame = 0
 881              		@ frame_needed = 0, uses_anonymous_args = 0
 882              		@ link register save eliminated.
 586:Drivers/STM32G4xx_HAL_Driver/Src/stm32g4xx_hal_exti.c ****   __IO uint32_t *regaddr;
 883              		.loc 1 586 3 view .LVU329
 587:Drivers/STM32G4xx_HAL_Driver/Src/stm32g4xx_hal_exti.c ****   uint32_t maskline;
ARM GAS  /tmp/ccDHnVZK.s 			page 28


 884              		.loc 1 587 3 view .LVU330
 588:Drivers/STM32G4xx_HAL_Driver/Src/stm32g4xx_hal_exti.c ****   uint32_t offset;
 885              		.loc 1 588 3 view .LVU331
 589:Drivers/STM32G4xx_HAL_Driver/Src/stm32g4xx_hal_exti.c **** 
 590:Drivers/STM32G4xx_HAL_Driver/Src/stm32g4xx_hal_exti.c ****   /* Check parameters */
 591:Drivers/STM32G4xx_HAL_Driver/Src/stm32g4xx_hal_exti.c ****   assert_param(IS_EXTI_LINE(hexti->Line));
 886              		.loc 1 591 3 view .LVU332
 592:Drivers/STM32G4xx_HAL_Driver/Src/stm32g4xx_hal_exti.c ****   assert_param(IS_EXTI_CONFIG_LINE(hexti->Line));
 887              		.loc 1 592 3 view .LVU333
 593:Drivers/STM32G4xx_HAL_Driver/Src/stm32g4xx_hal_exti.c ****   UNUSED(Edge);
 888              		.loc 1 593 3 view .LVU334
 594:Drivers/STM32G4xx_HAL_Driver/Src/stm32g4xx_hal_exti.c **** 
 595:Drivers/STM32G4xx_HAL_Driver/Src/stm32g4xx_hal_exti.c ****   /* Compute line register offset */
 596:Drivers/STM32G4xx_HAL_Driver/Src/stm32g4xx_hal_exti.c ****   offset = ((hexti->Line & EXTI_REG_MASK) >> EXTI_REG_SHIFT);
 889              		.loc 1 596 3 view .LVU335
 890              		.loc 1 596 19 is_stmt 0 view .LVU336
 891 0000 0368     		ldr	r3, [r0]
 892              	.LVL109:
 597:Drivers/STM32G4xx_HAL_Driver/Src/stm32g4xx_hal_exti.c ****   /* Compute line mask */
 598:Drivers/STM32G4xx_HAL_Driver/Src/stm32g4xx_hal_exti.c ****   maskline = (1uL << (hexti->Line & EXTI_PIN_MASK));
 893              		.loc 1 598 3 is_stmt 1 view .LVU337
 894              		.loc 1 598 12 is_stmt 0 view .LVU338
 895 0002 0122     		movs	r2, #1
 896              		.loc 1 598 35 view .LVU339
 897 0004 03F01F01 		and	r1, r3, #31
 898              	.LVL110:
 596:Drivers/STM32G4xx_HAL_Driver/Src/stm32g4xx_hal_exti.c ****   /* Compute line mask */
 899              		.loc 1 596 10 view .LVU340
 900 0008 C3F30043 		ubfx	r3, r3, #16, #1
 901              	.LVL111:
 902              		.loc 1 598 12 view .LVU341
 903 000c 8A40     		lsls	r2, r2, r1
 904              	.LVL112:
 599:Drivers/STM32G4xx_HAL_Driver/Src/stm32g4xx_hal_exti.c **** 
 600:Drivers/STM32G4xx_HAL_Driver/Src/stm32g4xx_hal_exti.c ****   /* Get pending register address */
 601:Drivers/STM32G4xx_HAL_Driver/Src/stm32g4xx_hal_exti.c ****   regaddr = (&EXTI->PR1 + (EXTI_CONFIG_OFFSET * offset));
 905              		.loc 1 601 3 is_stmt 1 view .LVU342
 906              		.loc 1 601 25 is_stmt 0 view .LVU343
 907 000e 5B01     		lsls	r3, r3, #5
 908              		.loc 1 601 11 view .LVU344
 909 0010 0149     		ldr	r1, .L64
 910              	.LVL113:
 602:Drivers/STM32G4xx_HAL_Driver/Src/stm32g4xx_hal_exti.c **** 
 603:Drivers/STM32G4xx_HAL_Driver/Src/stm32g4xx_hal_exti.c ****   /* Clear Pending bit */
 604:Drivers/STM32G4xx_HAL_Driver/Src/stm32g4xx_hal_exti.c ****   *regaddr =  maskline;
 911              		.loc 1 604 3 is_stmt 1 view .LVU345
 912              		.loc 1 604 12 is_stmt 0 view .LVU346
 913 0012 5A50     		str	r2, [r3, r1]
 914              	.LVL114:
 605:Drivers/STM32G4xx_HAL_Driver/Src/stm32g4xx_hal_exti.c **** }
 915              		.loc 1 605 1 view .LVU347
 916 0014 7047     		bx	lr
 917              	.L65:
 918 0016 00BF     		.align	2
 919              	.L64:
 920 0018 14040140 		.word	1073808404
 921              		.cfi_endproc
ARM GAS  /tmp/ccDHnVZK.s 			page 29


 922              	.LFE364:
 924              		.section	.text.HAL_EXTI_GenerateSWI,"ax",%progbits
 925              		.align	1
 926              		.global	HAL_EXTI_GenerateSWI
 927              		.syntax unified
 928              		.thumb
 929              		.thumb_func
 930              		.fpu fpv4-sp-d16
 932              	HAL_EXTI_GenerateSWI:
 933              	.LVL115:
 934              	.LFB365:
 606:Drivers/STM32G4xx_HAL_Driver/Src/stm32g4xx_hal_exti.c **** 
 607:Drivers/STM32G4xx_HAL_Driver/Src/stm32g4xx_hal_exti.c **** 
 608:Drivers/STM32G4xx_HAL_Driver/Src/stm32g4xx_hal_exti.c **** /**
 609:Drivers/STM32G4xx_HAL_Driver/Src/stm32g4xx_hal_exti.c ****   * @brief  Generate a software interrupt for a dedicated line.
 610:Drivers/STM32G4xx_HAL_Driver/Src/stm32g4xx_hal_exti.c ****   * @param  hexti Exti handle.
 611:Drivers/STM32G4xx_HAL_Driver/Src/stm32g4xx_hal_exti.c ****   * @retval None.
 612:Drivers/STM32G4xx_HAL_Driver/Src/stm32g4xx_hal_exti.c ****   */
 613:Drivers/STM32G4xx_HAL_Driver/Src/stm32g4xx_hal_exti.c **** void HAL_EXTI_GenerateSWI(EXTI_HandleTypeDef *hexti)
 614:Drivers/STM32G4xx_HAL_Driver/Src/stm32g4xx_hal_exti.c **** {
 935              		.loc 1 614 1 is_stmt 1 view -0
 936              		.cfi_startproc
 937              		@ args = 0, pretend = 0, frame = 0
 938              		@ frame_needed = 0, uses_anonymous_args = 0
 939              		@ link register save eliminated.
 615:Drivers/STM32G4xx_HAL_Driver/Src/stm32g4xx_hal_exti.c ****   __IO uint32_t *regaddr;
 940              		.loc 1 615 3 view .LVU349
 616:Drivers/STM32G4xx_HAL_Driver/Src/stm32g4xx_hal_exti.c ****   uint32_t maskline;
 941              		.loc 1 616 3 view .LVU350
 617:Drivers/STM32G4xx_HAL_Driver/Src/stm32g4xx_hal_exti.c ****   uint32_t offset;
 942              		.loc 1 617 3 view .LVU351
 618:Drivers/STM32G4xx_HAL_Driver/Src/stm32g4xx_hal_exti.c **** 
 619:Drivers/STM32G4xx_HAL_Driver/Src/stm32g4xx_hal_exti.c ****   /* Check parameter */
 620:Drivers/STM32G4xx_HAL_Driver/Src/stm32g4xx_hal_exti.c ****   assert_param(IS_EXTI_LINE(hexti->Line));
 943              		.loc 1 620 3 view .LVU352
 621:Drivers/STM32G4xx_HAL_Driver/Src/stm32g4xx_hal_exti.c ****   assert_param(IS_EXTI_CONFIG_LINE(hexti->Line));
 944              		.loc 1 621 3 view .LVU353
 622:Drivers/STM32G4xx_HAL_Driver/Src/stm32g4xx_hal_exti.c **** 
 623:Drivers/STM32G4xx_HAL_Driver/Src/stm32g4xx_hal_exti.c ****   /* compute line register offset */
 624:Drivers/STM32G4xx_HAL_Driver/Src/stm32g4xx_hal_exti.c ****   offset = ((hexti->Line & EXTI_REG_MASK) >> EXTI_REG_SHIFT);
 945              		.loc 1 624 3 view .LVU354
 946              		.loc 1 624 19 is_stmt 0 view .LVU355
 947 0000 0368     		ldr	r3, [r0]
 948              	.LVL116:
 625:Drivers/STM32G4xx_HAL_Driver/Src/stm32g4xx_hal_exti.c ****   /* compute line mask */
 626:Drivers/STM32G4xx_HAL_Driver/Src/stm32g4xx_hal_exti.c ****   maskline = (1uL << (hexti->Line & EXTI_PIN_MASK));
 949              		.loc 1 626 3 is_stmt 1 view .LVU356
 950              		.loc 1 626 12 is_stmt 0 view .LVU357
 951 0002 0122     		movs	r2, #1
 952              		.loc 1 626 35 view .LVU358
 953 0004 03F01F01 		and	r1, r3, #31
 624:Drivers/STM32G4xx_HAL_Driver/Src/stm32g4xx_hal_exti.c ****   /* compute line mask */
 954              		.loc 1 624 10 view .LVU359
 955 0008 C3F30043 		ubfx	r3, r3, #16, #1
 956              	.LVL117:
 957              		.loc 1 626 12 view .LVU360
 958 000c 8A40     		lsls	r2, r2, r1
ARM GAS  /tmp/ccDHnVZK.s 			page 30


 959              	.LVL118:
 627:Drivers/STM32G4xx_HAL_Driver/Src/stm32g4xx_hal_exti.c **** 
 628:Drivers/STM32G4xx_HAL_Driver/Src/stm32g4xx_hal_exti.c ****   regaddr = (&EXTI->SWIER1 + (EXTI_CONFIG_OFFSET * offset));
 960              		.loc 1 628 3 is_stmt 1 view .LVU361
 961              		.loc 1 628 28 is_stmt 0 view .LVU362
 962 000e 5B01     		lsls	r3, r3, #5
 963              		.loc 1 628 11 view .LVU363
 964 0010 0149     		ldr	r1, .L67
 965              	.LVL119:
 629:Drivers/STM32G4xx_HAL_Driver/Src/stm32g4xx_hal_exti.c ****   *regaddr = maskline;
 966              		.loc 1 629 3 is_stmt 1 view .LVU364
 967              		.loc 1 629 12 is_stmt 0 view .LVU365
 968 0012 5A50     		str	r2, [r3, r1]
 969              	.LVL120:
 630:Drivers/STM32G4xx_HAL_Driver/Src/stm32g4xx_hal_exti.c **** }
 970              		.loc 1 630 1 view .LVU366
 971 0014 7047     		bx	lr
 972              	.L68:
 973 0016 00BF     		.align	2
 974              	.L67:
 975 0018 10040140 		.word	1073808400
 976              		.cfi_endproc
 977              	.LFE365:
 979              		.text
 980              	.Letext0:
 981              		.file 2 "/usr/lib/gcc/arm-none-eabi/9.2.1/include/stdint.h"
 982              		.file 3 "Drivers/CMSIS/Include/core_cm4.h"
 983              		.file 4 "Drivers/CMSIS/Device/ST/STM32G4xx/Include/system_stm32g4xx.h"
 984              		.file 5 "Drivers/CMSIS/Device/ST/STM32G4xx/Include/stm32g474xx.h"
 985              		.file 6 "Drivers/STM32G4xx_HAL_Driver/Inc/stm32g4xx_hal_def.h"
 986              		.file 7 "Drivers/STM32G4xx_HAL_Driver/Inc/stm32g4xx_hal_exti.h"
 987              		.file 8 "Drivers/STM32G4xx_HAL_Driver/Inc/stm32g4xx_hal_flash.h"
 988              		.file 9 "Drivers/STM32G4xx_HAL_Driver/Inc/stm32g4xx_hal.h"
ARM GAS  /tmp/ccDHnVZK.s 			page 31

