ARM GAS  /tmp/cclKjP2I.s 			page 1


   1              		.cpu cortex-m4
   2              		.eabi_attribute 27, 1
   3              		.eabi_attribute 28, 1
   4              		.eabi_attribute 20, 1
   5              		.eabi_attribute 21, 1
   6              		.eabi_attribute 23, 3
   7              		.eabi_attribute 24, 1
   8              		.eabi_attribute 25, 1
   9              		.eabi_attribute 26, 1
  10              		.eabi_attribute 30, 4
  11              		.eabi_attribute 34, 1
  12              		.eabi_attribute 18, 4
  13              		.file	"stm32g4xx_hal_pcd.c"
  14              		.text
  15              	.Ltext0:
  16              		.cfi_sections	.debug_frame
  17              		.section	.text.HAL_PCD_MspInit,"ax",%progbits
  18              		.align	1
  19              		.weak	HAL_PCD_MspInit
  20              		.arch armv7e-m
  21              		.syntax unified
  22              		.thumb
  23              		.thumb_func
  24              		.fpu fpv4-sp-d16
  26              	HAL_PCD_MspInit:
  27              	.LVL0:
  28              	.LFB359:
  29              		.file 1 "Drivers/STM32G4xx_HAL_Driver/Src/stm32g4xx_hal_pcd.c"
   1:Drivers/STM32G4xx_HAL_Driver/Src/stm32g4xx_hal_pcd.c **** /**
   2:Drivers/STM32G4xx_HAL_Driver/Src/stm32g4xx_hal_pcd.c ****   ******************************************************************************
   3:Drivers/STM32G4xx_HAL_Driver/Src/stm32g4xx_hal_pcd.c ****   * @file    stm32g4xx_hal_pcd.c
   4:Drivers/STM32G4xx_HAL_Driver/Src/stm32g4xx_hal_pcd.c ****   * @author  MCD Application Team
   5:Drivers/STM32G4xx_HAL_Driver/Src/stm32g4xx_hal_pcd.c ****   * @brief   PCD HAL module driver.
   6:Drivers/STM32G4xx_HAL_Driver/Src/stm32g4xx_hal_pcd.c ****   *          This file provides firmware functions to manage the following
   7:Drivers/STM32G4xx_HAL_Driver/Src/stm32g4xx_hal_pcd.c ****   *          functionalities of the USB Peripheral Controller:
   8:Drivers/STM32G4xx_HAL_Driver/Src/stm32g4xx_hal_pcd.c ****   *           + Initialization and de-initialization functions
   9:Drivers/STM32G4xx_HAL_Driver/Src/stm32g4xx_hal_pcd.c ****   *           + IO operation functions
  10:Drivers/STM32G4xx_HAL_Driver/Src/stm32g4xx_hal_pcd.c ****   *           + Peripheral Control functions
  11:Drivers/STM32G4xx_HAL_Driver/Src/stm32g4xx_hal_pcd.c ****   *           + Peripheral State functions
  12:Drivers/STM32G4xx_HAL_Driver/Src/stm32g4xx_hal_pcd.c ****   *
  13:Drivers/STM32G4xx_HAL_Driver/Src/stm32g4xx_hal_pcd.c ****   @verbatim
  14:Drivers/STM32G4xx_HAL_Driver/Src/stm32g4xx_hal_pcd.c ****   ==============================================================================
  15:Drivers/STM32G4xx_HAL_Driver/Src/stm32g4xx_hal_pcd.c ****                     ##### How to use this driver #####
  16:Drivers/STM32G4xx_HAL_Driver/Src/stm32g4xx_hal_pcd.c ****   ==============================================================================
  17:Drivers/STM32G4xx_HAL_Driver/Src/stm32g4xx_hal_pcd.c ****     [..]
  18:Drivers/STM32G4xx_HAL_Driver/Src/stm32g4xx_hal_pcd.c ****       The PCD HAL driver can be used as follows:
  19:Drivers/STM32G4xx_HAL_Driver/Src/stm32g4xx_hal_pcd.c **** 
  20:Drivers/STM32G4xx_HAL_Driver/Src/stm32g4xx_hal_pcd.c ****      (#) Declare a PCD_HandleTypeDef handle structure, for example:
  21:Drivers/STM32G4xx_HAL_Driver/Src/stm32g4xx_hal_pcd.c ****          PCD_HandleTypeDef  hpcd;
  22:Drivers/STM32G4xx_HAL_Driver/Src/stm32g4xx_hal_pcd.c **** 
  23:Drivers/STM32G4xx_HAL_Driver/Src/stm32g4xx_hal_pcd.c ****      (#) Fill parameters of Init structure in HCD handle
  24:Drivers/STM32G4xx_HAL_Driver/Src/stm32g4xx_hal_pcd.c **** 
  25:Drivers/STM32G4xx_HAL_Driver/Src/stm32g4xx_hal_pcd.c ****      (#) Call HAL_PCD_Init() API to initialize the PCD peripheral (Core, Device core, ...)
  26:Drivers/STM32G4xx_HAL_Driver/Src/stm32g4xx_hal_pcd.c **** 
  27:Drivers/STM32G4xx_HAL_Driver/Src/stm32g4xx_hal_pcd.c ****      (#) Initialize the PCD low level resources through the HAL_PCD_MspInit() API:
  28:Drivers/STM32G4xx_HAL_Driver/Src/stm32g4xx_hal_pcd.c ****          (##) Enable the PCD/USB Low Level interface clock using
  29:Drivers/STM32G4xx_HAL_Driver/Src/stm32g4xx_hal_pcd.c ****               (+++) __HAL_RCC_USB_CLK_ENABLE(); For USB Device only FS peripheral
ARM GAS  /tmp/cclKjP2I.s 			page 2


  30:Drivers/STM32G4xx_HAL_Driver/Src/stm32g4xx_hal_pcd.c **** 
  31:Drivers/STM32G4xx_HAL_Driver/Src/stm32g4xx_hal_pcd.c ****          (##) Initialize the related GPIO clocks
  32:Drivers/STM32G4xx_HAL_Driver/Src/stm32g4xx_hal_pcd.c ****          (##) Configure PCD pin-out
  33:Drivers/STM32G4xx_HAL_Driver/Src/stm32g4xx_hal_pcd.c ****          (##) Configure PCD NVIC interrupt
  34:Drivers/STM32G4xx_HAL_Driver/Src/stm32g4xx_hal_pcd.c **** 
  35:Drivers/STM32G4xx_HAL_Driver/Src/stm32g4xx_hal_pcd.c ****      (#)Associate the Upper USB device stack to the HAL PCD Driver:
  36:Drivers/STM32G4xx_HAL_Driver/Src/stm32g4xx_hal_pcd.c ****          (##) hpcd.pData = pdev;
  37:Drivers/STM32G4xx_HAL_Driver/Src/stm32g4xx_hal_pcd.c **** 
  38:Drivers/STM32G4xx_HAL_Driver/Src/stm32g4xx_hal_pcd.c ****      (#)Enable PCD transmission and reception:
  39:Drivers/STM32G4xx_HAL_Driver/Src/stm32g4xx_hal_pcd.c ****          (##) HAL_PCD_Start();
  40:Drivers/STM32G4xx_HAL_Driver/Src/stm32g4xx_hal_pcd.c **** 
  41:Drivers/STM32G4xx_HAL_Driver/Src/stm32g4xx_hal_pcd.c ****   @endverbatim
  42:Drivers/STM32G4xx_HAL_Driver/Src/stm32g4xx_hal_pcd.c ****   ******************************************************************************
  43:Drivers/STM32G4xx_HAL_Driver/Src/stm32g4xx_hal_pcd.c ****   * @attention
  44:Drivers/STM32G4xx_HAL_Driver/Src/stm32g4xx_hal_pcd.c ****   *
  45:Drivers/STM32G4xx_HAL_Driver/Src/stm32g4xx_hal_pcd.c ****   * <h2><center>&copy; Copyright (c) 2019 STMicroelectronics.
  46:Drivers/STM32G4xx_HAL_Driver/Src/stm32g4xx_hal_pcd.c ****   * All rights reserved.</center></h2>
  47:Drivers/STM32G4xx_HAL_Driver/Src/stm32g4xx_hal_pcd.c ****   *
  48:Drivers/STM32G4xx_HAL_Driver/Src/stm32g4xx_hal_pcd.c ****   * This software component is licensed by ST under BSD 3-Clause license,
  49:Drivers/STM32G4xx_HAL_Driver/Src/stm32g4xx_hal_pcd.c ****   * the "License"; You may not use this file except in compliance with the
  50:Drivers/STM32G4xx_HAL_Driver/Src/stm32g4xx_hal_pcd.c ****   * License. You may obtain a copy of the License at:
  51:Drivers/STM32G4xx_HAL_Driver/Src/stm32g4xx_hal_pcd.c ****   *                        opensource.org/licenses/BSD-3-Clause
  52:Drivers/STM32G4xx_HAL_Driver/Src/stm32g4xx_hal_pcd.c ****   *
  53:Drivers/STM32G4xx_HAL_Driver/Src/stm32g4xx_hal_pcd.c ****   ******************************************************************************
  54:Drivers/STM32G4xx_HAL_Driver/Src/stm32g4xx_hal_pcd.c ****   */
  55:Drivers/STM32G4xx_HAL_Driver/Src/stm32g4xx_hal_pcd.c **** 
  56:Drivers/STM32G4xx_HAL_Driver/Src/stm32g4xx_hal_pcd.c **** /* Includes ------------------------------------------------------------------*/
  57:Drivers/STM32G4xx_HAL_Driver/Src/stm32g4xx_hal_pcd.c **** #include "stm32g4xx_hal.h"
  58:Drivers/STM32G4xx_HAL_Driver/Src/stm32g4xx_hal_pcd.c **** 
  59:Drivers/STM32G4xx_HAL_Driver/Src/stm32g4xx_hal_pcd.c **** /** @addtogroup STM32G4xx_HAL_Driver
  60:Drivers/STM32G4xx_HAL_Driver/Src/stm32g4xx_hal_pcd.c ****   * @{
  61:Drivers/STM32G4xx_HAL_Driver/Src/stm32g4xx_hal_pcd.c ****   */
  62:Drivers/STM32G4xx_HAL_Driver/Src/stm32g4xx_hal_pcd.c **** 
  63:Drivers/STM32G4xx_HAL_Driver/Src/stm32g4xx_hal_pcd.c **** /** @defgroup PCD PCD
  64:Drivers/STM32G4xx_HAL_Driver/Src/stm32g4xx_hal_pcd.c ****   * @brief PCD HAL module driver
  65:Drivers/STM32G4xx_HAL_Driver/Src/stm32g4xx_hal_pcd.c ****   * @{
  66:Drivers/STM32G4xx_HAL_Driver/Src/stm32g4xx_hal_pcd.c ****   */
  67:Drivers/STM32G4xx_HAL_Driver/Src/stm32g4xx_hal_pcd.c **** 
  68:Drivers/STM32G4xx_HAL_Driver/Src/stm32g4xx_hal_pcd.c **** #ifdef HAL_PCD_MODULE_ENABLED
  69:Drivers/STM32G4xx_HAL_Driver/Src/stm32g4xx_hal_pcd.c **** 
  70:Drivers/STM32G4xx_HAL_Driver/Src/stm32g4xx_hal_pcd.c **** #if defined (USB)
  71:Drivers/STM32G4xx_HAL_Driver/Src/stm32g4xx_hal_pcd.c **** 
  72:Drivers/STM32G4xx_HAL_Driver/Src/stm32g4xx_hal_pcd.c **** /* Private types -------------------------------------------------------------*/
  73:Drivers/STM32G4xx_HAL_Driver/Src/stm32g4xx_hal_pcd.c **** /* Private variables ---------------------------------------------------------*/
  74:Drivers/STM32G4xx_HAL_Driver/Src/stm32g4xx_hal_pcd.c **** /* Private constants ---------------------------------------------------------*/
  75:Drivers/STM32G4xx_HAL_Driver/Src/stm32g4xx_hal_pcd.c **** /* Private macros ------------------------------------------------------------*/
  76:Drivers/STM32G4xx_HAL_Driver/Src/stm32g4xx_hal_pcd.c **** /** @defgroup PCD_Private_Macros PCD Private Macros
  77:Drivers/STM32G4xx_HAL_Driver/Src/stm32g4xx_hal_pcd.c ****   * @{
  78:Drivers/STM32G4xx_HAL_Driver/Src/stm32g4xx_hal_pcd.c ****   */
  79:Drivers/STM32G4xx_HAL_Driver/Src/stm32g4xx_hal_pcd.c **** #define PCD_MIN(a, b)  (((a) < (b)) ? (a) : (b))
  80:Drivers/STM32G4xx_HAL_Driver/Src/stm32g4xx_hal_pcd.c **** #define PCD_MAX(a, b)  (((a) > (b)) ? (a) : (b))
  81:Drivers/STM32G4xx_HAL_Driver/Src/stm32g4xx_hal_pcd.c **** /**
  82:Drivers/STM32G4xx_HAL_Driver/Src/stm32g4xx_hal_pcd.c ****   * @}
  83:Drivers/STM32G4xx_HAL_Driver/Src/stm32g4xx_hal_pcd.c ****   */
  84:Drivers/STM32G4xx_HAL_Driver/Src/stm32g4xx_hal_pcd.c **** 
  85:Drivers/STM32G4xx_HAL_Driver/Src/stm32g4xx_hal_pcd.c **** /* Private functions prototypes ----------------------------------------------*/
  86:Drivers/STM32G4xx_HAL_Driver/Src/stm32g4xx_hal_pcd.c **** /** @defgroup PCD_Private_Functions PCD Private Functions
ARM GAS  /tmp/cclKjP2I.s 			page 3


  87:Drivers/STM32G4xx_HAL_Driver/Src/stm32g4xx_hal_pcd.c ****   * @{
  88:Drivers/STM32G4xx_HAL_Driver/Src/stm32g4xx_hal_pcd.c ****   */
  89:Drivers/STM32G4xx_HAL_Driver/Src/stm32g4xx_hal_pcd.c **** 
  90:Drivers/STM32G4xx_HAL_Driver/Src/stm32g4xx_hal_pcd.c **** static HAL_StatusTypeDef PCD_EP_ISR_Handler(PCD_HandleTypeDef *hpcd);
  91:Drivers/STM32G4xx_HAL_Driver/Src/stm32g4xx_hal_pcd.c **** 
  92:Drivers/STM32G4xx_HAL_Driver/Src/stm32g4xx_hal_pcd.c **** /**
  93:Drivers/STM32G4xx_HAL_Driver/Src/stm32g4xx_hal_pcd.c ****   * @}
  94:Drivers/STM32G4xx_HAL_Driver/Src/stm32g4xx_hal_pcd.c ****   */
  95:Drivers/STM32G4xx_HAL_Driver/Src/stm32g4xx_hal_pcd.c **** 
  96:Drivers/STM32G4xx_HAL_Driver/Src/stm32g4xx_hal_pcd.c **** /* Exported functions --------------------------------------------------------*/
  97:Drivers/STM32G4xx_HAL_Driver/Src/stm32g4xx_hal_pcd.c **** /** @defgroup PCD_Exported_Functions PCD Exported Functions
  98:Drivers/STM32G4xx_HAL_Driver/Src/stm32g4xx_hal_pcd.c ****   * @{
  99:Drivers/STM32G4xx_HAL_Driver/Src/stm32g4xx_hal_pcd.c ****   */
 100:Drivers/STM32G4xx_HAL_Driver/Src/stm32g4xx_hal_pcd.c **** 
 101:Drivers/STM32G4xx_HAL_Driver/Src/stm32g4xx_hal_pcd.c **** /** @defgroup PCD_Exported_Functions_Group1 Initialization and de-initialization functions
 102:Drivers/STM32G4xx_HAL_Driver/Src/stm32g4xx_hal_pcd.c ****  *  @brief    Initialization and Configuration functions
 103:Drivers/STM32G4xx_HAL_Driver/Src/stm32g4xx_hal_pcd.c ****  *
 104:Drivers/STM32G4xx_HAL_Driver/Src/stm32g4xx_hal_pcd.c **** @verbatim
 105:Drivers/STM32G4xx_HAL_Driver/Src/stm32g4xx_hal_pcd.c ****  ===============================================================================
 106:Drivers/STM32G4xx_HAL_Driver/Src/stm32g4xx_hal_pcd.c ****             ##### Initialization and de-initialization functions #####
 107:Drivers/STM32G4xx_HAL_Driver/Src/stm32g4xx_hal_pcd.c ****  ===============================================================================
 108:Drivers/STM32G4xx_HAL_Driver/Src/stm32g4xx_hal_pcd.c ****     [..]  This section provides functions allowing to:
 109:Drivers/STM32G4xx_HAL_Driver/Src/stm32g4xx_hal_pcd.c **** 
 110:Drivers/STM32G4xx_HAL_Driver/Src/stm32g4xx_hal_pcd.c **** @endverbatim
 111:Drivers/STM32G4xx_HAL_Driver/Src/stm32g4xx_hal_pcd.c ****   * @{
 112:Drivers/STM32G4xx_HAL_Driver/Src/stm32g4xx_hal_pcd.c ****   */
 113:Drivers/STM32G4xx_HAL_Driver/Src/stm32g4xx_hal_pcd.c **** 
 114:Drivers/STM32G4xx_HAL_Driver/Src/stm32g4xx_hal_pcd.c **** /**
 115:Drivers/STM32G4xx_HAL_Driver/Src/stm32g4xx_hal_pcd.c ****   * @brief  Initializes the PCD according to the specified
 116:Drivers/STM32G4xx_HAL_Driver/Src/stm32g4xx_hal_pcd.c ****   *         parameters in the PCD_InitTypeDef and initialize the associated handle.
 117:Drivers/STM32G4xx_HAL_Driver/Src/stm32g4xx_hal_pcd.c ****   * @param  hpcd PCD handle
 118:Drivers/STM32G4xx_HAL_Driver/Src/stm32g4xx_hal_pcd.c ****   * @retval HAL status
 119:Drivers/STM32G4xx_HAL_Driver/Src/stm32g4xx_hal_pcd.c ****   */
 120:Drivers/STM32G4xx_HAL_Driver/Src/stm32g4xx_hal_pcd.c **** HAL_StatusTypeDef HAL_PCD_Init(PCD_HandleTypeDef *hpcd)
 121:Drivers/STM32G4xx_HAL_Driver/Src/stm32g4xx_hal_pcd.c **** {
 122:Drivers/STM32G4xx_HAL_Driver/Src/stm32g4xx_hal_pcd.c ****   uint8_t i;
 123:Drivers/STM32G4xx_HAL_Driver/Src/stm32g4xx_hal_pcd.c **** 
 124:Drivers/STM32G4xx_HAL_Driver/Src/stm32g4xx_hal_pcd.c ****   /* Check the PCD handle allocation */
 125:Drivers/STM32G4xx_HAL_Driver/Src/stm32g4xx_hal_pcd.c ****   if (hpcd == NULL)
 126:Drivers/STM32G4xx_HAL_Driver/Src/stm32g4xx_hal_pcd.c ****   {
 127:Drivers/STM32G4xx_HAL_Driver/Src/stm32g4xx_hal_pcd.c ****     return HAL_ERROR;
 128:Drivers/STM32G4xx_HAL_Driver/Src/stm32g4xx_hal_pcd.c ****   }
 129:Drivers/STM32G4xx_HAL_Driver/Src/stm32g4xx_hal_pcd.c **** 
 130:Drivers/STM32G4xx_HAL_Driver/Src/stm32g4xx_hal_pcd.c ****   /* Check the parameters */
 131:Drivers/STM32G4xx_HAL_Driver/Src/stm32g4xx_hal_pcd.c ****   assert_param(IS_PCD_ALL_INSTANCE(hpcd->Instance));
 132:Drivers/STM32G4xx_HAL_Driver/Src/stm32g4xx_hal_pcd.c **** 
 133:Drivers/STM32G4xx_HAL_Driver/Src/stm32g4xx_hal_pcd.c ****   if (hpcd->State == HAL_PCD_STATE_RESET)
 134:Drivers/STM32G4xx_HAL_Driver/Src/stm32g4xx_hal_pcd.c ****   {
 135:Drivers/STM32G4xx_HAL_Driver/Src/stm32g4xx_hal_pcd.c ****     /* Allocate lock resource and initialize it */
 136:Drivers/STM32G4xx_HAL_Driver/Src/stm32g4xx_hal_pcd.c ****     hpcd->Lock = HAL_UNLOCKED;
 137:Drivers/STM32G4xx_HAL_Driver/Src/stm32g4xx_hal_pcd.c **** 
 138:Drivers/STM32G4xx_HAL_Driver/Src/stm32g4xx_hal_pcd.c **** #if (USE_HAL_PCD_REGISTER_CALLBACKS == 1U)
 139:Drivers/STM32G4xx_HAL_Driver/Src/stm32g4xx_hal_pcd.c ****     hpcd->SOFCallback = HAL_PCD_SOFCallback;
 140:Drivers/STM32G4xx_HAL_Driver/Src/stm32g4xx_hal_pcd.c ****     hpcd->SetupStageCallback = HAL_PCD_SetupStageCallback;
 141:Drivers/STM32G4xx_HAL_Driver/Src/stm32g4xx_hal_pcd.c ****     hpcd->ResetCallback = HAL_PCD_ResetCallback;
 142:Drivers/STM32G4xx_HAL_Driver/Src/stm32g4xx_hal_pcd.c ****     hpcd->SuspendCallback = HAL_PCD_SuspendCallback;
 143:Drivers/STM32G4xx_HAL_Driver/Src/stm32g4xx_hal_pcd.c ****     hpcd->ResumeCallback = HAL_PCD_ResumeCallback;
ARM GAS  /tmp/cclKjP2I.s 			page 4


 144:Drivers/STM32G4xx_HAL_Driver/Src/stm32g4xx_hal_pcd.c ****     hpcd->ConnectCallback = HAL_PCD_ConnectCallback;
 145:Drivers/STM32G4xx_HAL_Driver/Src/stm32g4xx_hal_pcd.c ****     hpcd->DisconnectCallback = HAL_PCD_DisconnectCallback;
 146:Drivers/STM32G4xx_HAL_Driver/Src/stm32g4xx_hal_pcd.c ****     hpcd->DataOutStageCallback = HAL_PCD_DataOutStageCallback;
 147:Drivers/STM32G4xx_HAL_Driver/Src/stm32g4xx_hal_pcd.c ****     hpcd->DataInStageCallback = HAL_PCD_DataInStageCallback;
 148:Drivers/STM32G4xx_HAL_Driver/Src/stm32g4xx_hal_pcd.c ****     hpcd->ISOOUTIncompleteCallback = HAL_PCD_ISOOUTIncompleteCallback;
 149:Drivers/STM32G4xx_HAL_Driver/Src/stm32g4xx_hal_pcd.c ****     hpcd->ISOINIncompleteCallback = HAL_PCD_ISOINIncompleteCallback;
 150:Drivers/STM32G4xx_HAL_Driver/Src/stm32g4xx_hal_pcd.c ****     hpcd->LPMCallback = HAL_PCDEx_LPM_Callback;
 151:Drivers/STM32G4xx_HAL_Driver/Src/stm32g4xx_hal_pcd.c ****     hpcd->BCDCallback = HAL_PCDEx_BCD_Callback;
 152:Drivers/STM32G4xx_HAL_Driver/Src/stm32g4xx_hal_pcd.c **** 
 153:Drivers/STM32G4xx_HAL_Driver/Src/stm32g4xx_hal_pcd.c ****     if (hpcd->MspInitCallback == NULL)
 154:Drivers/STM32G4xx_HAL_Driver/Src/stm32g4xx_hal_pcd.c ****     {
 155:Drivers/STM32G4xx_HAL_Driver/Src/stm32g4xx_hal_pcd.c ****       hpcd->MspInitCallback = HAL_PCD_MspInit;
 156:Drivers/STM32G4xx_HAL_Driver/Src/stm32g4xx_hal_pcd.c ****     }
 157:Drivers/STM32G4xx_HAL_Driver/Src/stm32g4xx_hal_pcd.c **** 
 158:Drivers/STM32G4xx_HAL_Driver/Src/stm32g4xx_hal_pcd.c ****     /* Init the low level hardware */
 159:Drivers/STM32G4xx_HAL_Driver/Src/stm32g4xx_hal_pcd.c ****     hpcd->MspInitCallback(hpcd);
 160:Drivers/STM32G4xx_HAL_Driver/Src/stm32g4xx_hal_pcd.c **** #else
 161:Drivers/STM32G4xx_HAL_Driver/Src/stm32g4xx_hal_pcd.c ****     /* Init the low level hardware : GPIO, CLOCK, NVIC... */
 162:Drivers/STM32G4xx_HAL_Driver/Src/stm32g4xx_hal_pcd.c ****     HAL_PCD_MspInit(hpcd);
 163:Drivers/STM32G4xx_HAL_Driver/Src/stm32g4xx_hal_pcd.c **** #endif /* (USE_HAL_PCD_REGISTER_CALLBACKS) */
 164:Drivers/STM32G4xx_HAL_Driver/Src/stm32g4xx_hal_pcd.c ****   }
 165:Drivers/STM32G4xx_HAL_Driver/Src/stm32g4xx_hal_pcd.c **** 
 166:Drivers/STM32G4xx_HAL_Driver/Src/stm32g4xx_hal_pcd.c ****   hpcd->State = HAL_PCD_STATE_BUSY;
 167:Drivers/STM32G4xx_HAL_Driver/Src/stm32g4xx_hal_pcd.c **** 
 168:Drivers/STM32G4xx_HAL_Driver/Src/stm32g4xx_hal_pcd.c ****   /* Disable the Interrupts */
 169:Drivers/STM32G4xx_HAL_Driver/Src/stm32g4xx_hal_pcd.c ****   __HAL_PCD_DISABLE(hpcd);
 170:Drivers/STM32G4xx_HAL_Driver/Src/stm32g4xx_hal_pcd.c **** 
 171:Drivers/STM32G4xx_HAL_Driver/Src/stm32g4xx_hal_pcd.c ****   /* Init endpoints structures */
 172:Drivers/STM32G4xx_HAL_Driver/Src/stm32g4xx_hal_pcd.c ****   for (i = 0U; i < hpcd->Init.dev_endpoints; i++)
 173:Drivers/STM32G4xx_HAL_Driver/Src/stm32g4xx_hal_pcd.c ****   {
 174:Drivers/STM32G4xx_HAL_Driver/Src/stm32g4xx_hal_pcd.c ****     /* Init ep structure */
 175:Drivers/STM32G4xx_HAL_Driver/Src/stm32g4xx_hal_pcd.c ****     hpcd->IN_ep[i].is_in = 1U;
 176:Drivers/STM32G4xx_HAL_Driver/Src/stm32g4xx_hal_pcd.c ****     hpcd->IN_ep[i].num = i;
 177:Drivers/STM32G4xx_HAL_Driver/Src/stm32g4xx_hal_pcd.c ****     hpcd->IN_ep[i].tx_fifo_num = i;
 178:Drivers/STM32G4xx_HAL_Driver/Src/stm32g4xx_hal_pcd.c ****     /* Control until ep is activated */
 179:Drivers/STM32G4xx_HAL_Driver/Src/stm32g4xx_hal_pcd.c ****     hpcd->IN_ep[i].type = EP_TYPE_CTRL;
 180:Drivers/STM32G4xx_HAL_Driver/Src/stm32g4xx_hal_pcd.c ****     hpcd->IN_ep[i].maxpacket = 0U;
 181:Drivers/STM32G4xx_HAL_Driver/Src/stm32g4xx_hal_pcd.c ****     hpcd->IN_ep[i].xfer_buff = 0U;
 182:Drivers/STM32G4xx_HAL_Driver/Src/stm32g4xx_hal_pcd.c ****     hpcd->IN_ep[i].xfer_len = 0U;
 183:Drivers/STM32G4xx_HAL_Driver/Src/stm32g4xx_hal_pcd.c ****   }
 184:Drivers/STM32G4xx_HAL_Driver/Src/stm32g4xx_hal_pcd.c **** 
 185:Drivers/STM32G4xx_HAL_Driver/Src/stm32g4xx_hal_pcd.c ****   for (i = 0U; i < hpcd->Init.dev_endpoints; i++)
 186:Drivers/STM32G4xx_HAL_Driver/Src/stm32g4xx_hal_pcd.c ****   {
 187:Drivers/STM32G4xx_HAL_Driver/Src/stm32g4xx_hal_pcd.c ****     hpcd->OUT_ep[i].is_in = 0U;
 188:Drivers/STM32G4xx_HAL_Driver/Src/stm32g4xx_hal_pcd.c ****     hpcd->OUT_ep[i].num = i;
 189:Drivers/STM32G4xx_HAL_Driver/Src/stm32g4xx_hal_pcd.c ****     /* Control until ep is activated */
 190:Drivers/STM32G4xx_HAL_Driver/Src/stm32g4xx_hal_pcd.c ****     hpcd->OUT_ep[i].type = EP_TYPE_CTRL;
 191:Drivers/STM32G4xx_HAL_Driver/Src/stm32g4xx_hal_pcd.c ****     hpcd->OUT_ep[i].maxpacket = 0U;
 192:Drivers/STM32G4xx_HAL_Driver/Src/stm32g4xx_hal_pcd.c ****     hpcd->OUT_ep[i].xfer_buff = 0U;
 193:Drivers/STM32G4xx_HAL_Driver/Src/stm32g4xx_hal_pcd.c ****     hpcd->OUT_ep[i].xfer_len = 0U;
 194:Drivers/STM32G4xx_HAL_Driver/Src/stm32g4xx_hal_pcd.c ****   }
 195:Drivers/STM32G4xx_HAL_Driver/Src/stm32g4xx_hal_pcd.c **** 
 196:Drivers/STM32G4xx_HAL_Driver/Src/stm32g4xx_hal_pcd.c ****   /* Init Device */
 197:Drivers/STM32G4xx_HAL_Driver/Src/stm32g4xx_hal_pcd.c ****   (void)USB_DevInit(hpcd->Instance, hpcd->Init);
 198:Drivers/STM32G4xx_HAL_Driver/Src/stm32g4xx_hal_pcd.c **** 
 199:Drivers/STM32G4xx_HAL_Driver/Src/stm32g4xx_hal_pcd.c ****   hpcd->USB_Address = 0U;
 200:Drivers/STM32G4xx_HAL_Driver/Src/stm32g4xx_hal_pcd.c ****   hpcd->State = HAL_PCD_STATE_READY;
ARM GAS  /tmp/cclKjP2I.s 			page 5


 201:Drivers/STM32G4xx_HAL_Driver/Src/stm32g4xx_hal_pcd.c ****   
 202:Drivers/STM32G4xx_HAL_Driver/Src/stm32g4xx_hal_pcd.c ****   /* Activate LPM */
 203:Drivers/STM32G4xx_HAL_Driver/Src/stm32g4xx_hal_pcd.c ****   if (hpcd->Init.lpm_enable == 1U)
 204:Drivers/STM32G4xx_HAL_Driver/Src/stm32g4xx_hal_pcd.c ****   {
 205:Drivers/STM32G4xx_HAL_Driver/Src/stm32g4xx_hal_pcd.c ****     (void)HAL_PCDEx_ActivateLPM(hpcd);
 206:Drivers/STM32G4xx_HAL_Driver/Src/stm32g4xx_hal_pcd.c ****   }
 207:Drivers/STM32G4xx_HAL_Driver/Src/stm32g4xx_hal_pcd.c ****   
 208:Drivers/STM32G4xx_HAL_Driver/Src/stm32g4xx_hal_pcd.c ****   return HAL_OK;
 209:Drivers/STM32G4xx_HAL_Driver/Src/stm32g4xx_hal_pcd.c **** }
 210:Drivers/STM32G4xx_HAL_Driver/Src/stm32g4xx_hal_pcd.c **** 
 211:Drivers/STM32G4xx_HAL_Driver/Src/stm32g4xx_hal_pcd.c **** /**
 212:Drivers/STM32G4xx_HAL_Driver/Src/stm32g4xx_hal_pcd.c ****   * @brief  DeInitializes the PCD peripheral.
 213:Drivers/STM32G4xx_HAL_Driver/Src/stm32g4xx_hal_pcd.c ****   * @param  hpcd PCD handle
 214:Drivers/STM32G4xx_HAL_Driver/Src/stm32g4xx_hal_pcd.c ****   * @retval HAL status
 215:Drivers/STM32G4xx_HAL_Driver/Src/stm32g4xx_hal_pcd.c ****   */
 216:Drivers/STM32G4xx_HAL_Driver/Src/stm32g4xx_hal_pcd.c **** HAL_StatusTypeDef HAL_PCD_DeInit(PCD_HandleTypeDef *hpcd)
 217:Drivers/STM32G4xx_HAL_Driver/Src/stm32g4xx_hal_pcd.c **** {
 218:Drivers/STM32G4xx_HAL_Driver/Src/stm32g4xx_hal_pcd.c ****   /* Check the PCD handle allocation */
 219:Drivers/STM32G4xx_HAL_Driver/Src/stm32g4xx_hal_pcd.c ****   if (hpcd == NULL)
 220:Drivers/STM32G4xx_HAL_Driver/Src/stm32g4xx_hal_pcd.c ****   {
 221:Drivers/STM32G4xx_HAL_Driver/Src/stm32g4xx_hal_pcd.c ****     return HAL_ERROR;
 222:Drivers/STM32G4xx_HAL_Driver/Src/stm32g4xx_hal_pcd.c ****   }
 223:Drivers/STM32G4xx_HAL_Driver/Src/stm32g4xx_hal_pcd.c **** 
 224:Drivers/STM32G4xx_HAL_Driver/Src/stm32g4xx_hal_pcd.c ****   hpcd->State = HAL_PCD_STATE_BUSY;
 225:Drivers/STM32G4xx_HAL_Driver/Src/stm32g4xx_hal_pcd.c **** 
 226:Drivers/STM32G4xx_HAL_Driver/Src/stm32g4xx_hal_pcd.c ****   /* Stop Device */
 227:Drivers/STM32G4xx_HAL_Driver/Src/stm32g4xx_hal_pcd.c ****   (void)HAL_PCD_Stop(hpcd);
 228:Drivers/STM32G4xx_HAL_Driver/Src/stm32g4xx_hal_pcd.c **** 
 229:Drivers/STM32G4xx_HAL_Driver/Src/stm32g4xx_hal_pcd.c **** #if (USE_HAL_PCD_REGISTER_CALLBACKS == 1U)
 230:Drivers/STM32G4xx_HAL_Driver/Src/stm32g4xx_hal_pcd.c ****   if (hpcd->MspDeInitCallback == NULL)
 231:Drivers/STM32G4xx_HAL_Driver/Src/stm32g4xx_hal_pcd.c ****   {
 232:Drivers/STM32G4xx_HAL_Driver/Src/stm32g4xx_hal_pcd.c ****     hpcd->MspDeInitCallback = HAL_PCD_MspDeInit; /* Legacy weak MspDeInit  */
 233:Drivers/STM32G4xx_HAL_Driver/Src/stm32g4xx_hal_pcd.c ****   }
 234:Drivers/STM32G4xx_HAL_Driver/Src/stm32g4xx_hal_pcd.c **** 
 235:Drivers/STM32G4xx_HAL_Driver/Src/stm32g4xx_hal_pcd.c ****   /* DeInit the low level hardware */
 236:Drivers/STM32G4xx_HAL_Driver/Src/stm32g4xx_hal_pcd.c ****   hpcd->MspDeInitCallback(hpcd);
 237:Drivers/STM32G4xx_HAL_Driver/Src/stm32g4xx_hal_pcd.c **** #else
 238:Drivers/STM32G4xx_HAL_Driver/Src/stm32g4xx_hal_pcd.c ****   /* DeInit the low level hardware: CLOCK, NVIC.*/
 239:Drivers/STM32G4xx_HAL_Driver/Src/stm32g4xx_hal_pcd.c ****   HAL_PCD_MspDeInit(hpcd);
 240:Drivers/STM32G4xx_HAL_Driver/Src/stm32g4xx_hal_pcd.c **** #endif /* USE_HAL_PCD_REGISTER_CALLBACKS */
 241:Drivers/STM32G4xx_HAL_Driver/Src/stm32g4xx_hal_pcd.c **** 
 242:Drivers/STM32G4xx_HAL_Driver/Src/stm32g4xx_hal_pcd.c ****   hpcd->State = HAL_PCD_STATE_RESET;
 243:Drivers/STM32G4xx_HAL_Driver/Src/stm32g4xx_hal_pcd.c **** 
 244:Drivers/STM32G4xx_HAL_Driver/Src/stm32g4xx_hal_pcd.c ****   return HAL_OK;
 245:Drivers/STM32G4xx_HAL_Driver/Src/stm32g4xx_hal_pcd.c **** }
 246:Drivers/STM32G4xx_HAL_Driver/Src/stm32g4xx_hal_pcd.c **** 
 247:Drivers/STM32G4xx_HAL_Driver/Src/stm32g4xx_hal_pcd.c **** /**
 248:Drivers/STM32G4xx_HAL_Driver/Src/stm32g4xx_hal_pcd.c ****   * @brief  Initializes the PCD MSP.
 249:Drivers/STM32G4xx_HAL_Driver/Src/stm32g4xx_hal_pcd.c ****   * @param  hpcd PCD handle
 250:Drivers/STM32G4xx_HAL_Driver/Src/stm32g4xx_hal_pcd.c ****   * @retval None
 251:Drivers/STM32G4xx_HAL_Driver/Src/stm32g4xx_hal_pcd.c ****   */
 252:Drivers/STM32G4xx_HAL_Driver/Src/stm32g4xx_hal_pcd.c **** __weak void HAL_PCD_MspInit(PCD_HandleTypeDef *hpcd)
 253:Drivers/STM32G4xx_HAL_Driver/Src/stm32g4xx_hal_pcd.c **** {
  30              		.loc 1 253 1 view -0
  31              		.cfi_startproc
  32              		@ args = 0, pretend = 0, frame = 0
  33              		@ frame_needed = 0, uses_anonymous_args = 0
ARM GAS  /tmp/cclKjP2I.s 			page 6


  34              		@ link register save eliminated.
 254:Drivers/STM32G4xx_HAL_Driver/Src/stm32g4xx_hal_pcd.c ****   /* Prevent unused argument(s) compilation warning */
 255:Drivers/STM32G4xx_HAL_Driver/Src/stm32g4xx_hal_pcd.c ****   UNUSED(hpcd);
  35              		.loc 1 255 3 view .LVU1
 256:Drivers/STM32G4xx_HAL_Driver/Src/stm32g4xx_hal_pcd.c **** 
 257:Drivers/STM32G4xx_HAL_Driver/Src/stm32g4xx_hal_pcd.c ****   /* NOTE : This function should not be modified, when the callback is needed,
 258:Drivers/STM32G4xx_HAL_Driver/Src/stm32g4xx_hal_pcd.c ****             the HAL_PCD_MspInit could be implemented in the user file
 259:Drivers/STM32G4xx_HAL_Driver/Src/stm32g4xx_hal_pcd.c ****    */
 260:Drivers/STM32G4xx_HAL_Driver/Src/stm32g4xx_hal_pcd.c **** }
  36              		.loc 1 260 1 is_stmt 0 view .LVU2
  37 0000 7047     		bx	lr
  38              		.cfi_endproc
  39              	.LFE359:
  41              		.section	.text.HAL_PCD_Init,"ax",%progbits
  42              		.align	1
  43              		.global	HAL_PCD_Init
  44              		.syntax unified
  45              		.thumb
  46              		.thumb_func
  47              		.fpu fpv4-sp-d16
  49              	HAL_PCD_Init:
  50              	.LVL1:
  51              	.LFB357:
 121:Drivers/STM32G4xx_HAL_Driver/Src/stm32g4xx_hal_pcd.c ****   uint8_t i;
  52              		.loc 1 121 1 is_stmt 1 view -0
  53              		.cfi_startproc
  54              		@ args = 0, pretend = 0, frame = 0
  55              		@ frame_needed = 0, uses_anonymous_args = 0
 122:Drivers/STM32G4xx_HAL_Driver/Src/stm32g4xx_hal_pcd.c **** 
  56              		.loc 1 122 3 view .LVU4
 125:Drivers/STM32G4xx_HAL_Driver/Src/stm32g4xx_hal_pcd.c ****   {
  57              		.loc 1 125 3 view .LVU5
 121:Drivers/STM32G4xx_HAL_Driver/Src/stm32g4xx_hal_pcd.c ****   uint8_t i;
  58              		.loc 1 121 1 is_stmt 0 view .LVU6
  59 0000 70B5     		push	{r4, r5, r6, lr}
  60              	.LCFI0:
  61              		.cfi_def_cfa_offset 16
  62              		.cfi_offset 4, -16
  63              		.cfi_offset 5, -12
  64              		.cfi_offset 6, -8
  65              		.cfi_offset 14, -4
 125:Drivers/STM32G4xx_HAL_Driver/Src/stm32g4xx_hal_pcd.c ****   {
  66              		.loc 1 125 6 view .LVU7
  67 0002 0446     		mov	r4, r0
 121:Drivers/STM32G4xx_HAL_Driver/Src/stm32g4xx_hal_pcd.c ****   uint8_t i;
  68              		.loc 1 121 1 view .LVU8
  69 0004 86B0     		sub	sp, sp, #24
  70              	.LCFI1:
  71              		.cfi_def_cfa_offset 40
 125:Drivers/STM32G4xx_HAL_Driver/Src/stm32g4xx_hal_pcd.c ****   {
  72              		.loc 1 125 6 view .LVU9
  73 0006 0028     		cmp	r0, #0
  74 0008 55D0     		beq	.L9
 131:Drivers/STM32G4xx_HAL_Driver/Src/stm32g4xx_hal_pcd.c **** 
  75              		.loc 1 131 3 is_stmt 1 view .LVU10
 133:Drivers/STM32G4xx_HAL_Driver/Src/stm32g4xx_hal_pcd.c ****   {
  76              		.loc 1 133 3 view .LVU11
ARM GAS  /tmp/cclKjP2I.s 			page 7


 133:Drivers/STM32G4xx_HAL_Driver/Src/stm32g4xx_hal_pcd.c ****   {
  77              		.loc 1 133 11 is_stmt 0 view .LVU12
  78 000a 90F82932 		ldrb	r3, [r0, #553]	@ zero_extendqisi2
 133:Drivers/STM32G4xx_HAL_Driver/Src/stm32g4xx_hal_pcd.c ****   {
  79              		.loc 1 133 6 view .LVU13
  80 000e 03F0FF02 		and	r2, r3, #255
  81 0012 1BB9     		cbnz	r3, .L4
 136:Drivers/STM32G4xx_HAL_Driver/Src/stm32g4xx_hal_pcd.c **** 
  82              		.loc 1 136 5 is_stmt 1 view .LVU14
 136:Drivers/STM32G4xx_HAL_Driver/Src/stm32g4xx_hal_pcd.c **** 
  83              		.loc 1 136 16 is_stmt 0 view .LVU15
  84 0014 80F82822 		strb	r2, [r0, #552]
 162:Drivers/STM32G4xx_HAL_Driver/Src/stm32g4xx_hal_pcd.c **** #endif /* (USE_HAL_PCD_REGISTER_CALLBACKS) */
  85              		.loc 1 162 5 is_stmt 1 view .LVU16
  86 0018 FFF7FEFF 		bl	HAL_PCD_MspInit
  87              	.LVL2:
  88              	.L4:
 166:Drivers/STM32G4xx_HAL_Driver/Src/stm32g4xx_hal_pcd.c **** 
  89              		.loc 1 166 3 view .LVU17
 166:Drivers/STM32G4xx_HAL_Driver/Src/stm32g4xx_hal_pcd.c **** 
  90              		.loc 1 166 15 is_stmt 0 view .LVU18
  91 001c 0323     		movs	r3, #3
 169:Drivers/STM32G4xx_HAL_Driver/Src/stm32g4xx_hal_pcd.c **** 
  92              		.loc 1 169 3 view .LVU19
  93 001e 2068     		ldr	r0, [r4]
 166:Drivers/STM32G4xx_HAL_Driver/Src/stm32g4xx_hal_pcd.c **** 
  94              		.loc 1 166 15 view .LVU20
  95 0020 84F82932 		strb	r3, [r4, #553]
 169:Drivers/STM32G4xx_HAL_Driver/Src/stm32g4xx_hal_pcd.c **** 
  96              		.loc 1 169 3 is_stmt 1 view .LVU21
  97 0024 FFF7FEFF 		bl	USB_DisableGlobalInt
  98              	.LVL3:
 172:Drivers/STM32G4xx_HAL_Driver/Src/stm32g4xx_hal_pcd.c ****   {
  99              		.loc 1 172 3 view .LVU22
 172:Drivers/STM32G4xx_HAL_Driver/Src/stm32g4xx_hal_pcd.c ****   {
 100              		.loc 1 172 3 is_stmt 0 view .LVU23
 101 0028 0022     		movs	r2, #0
 172:Drivers/STM32G4xx_HAL_Driver/Src/stm32g4xx_hal_pcd.c ****   {
 102              		.loc 1 172 30 view .LVU24
 103 002a 6068     		ldr	r0, [r4, #4]
 175:Drivers/STM32G4xx_HAL_Driver/Src/stm32g4xx_hal_pcd.c ****     hpcd->IN_ep[i].num = i;
 104              		.loc 1 175 26 view .LVU25
 105 002c 0126     		movs	r6, #1
 179:Drivers/STM32G4xx_HAL_Driver/Src/stm32g4xx_hal_pcd.c ****     hpcd->IN_ep[i].maxpacket = 0U;
 106              		.loc 1 179 25 view .LVU26
 107 002e 1546     		mov	r5, r2
 108              	.LVL4:
 109              	.L5:
 179:Drivers/STM32G4xx_HAL_Driver/Src/stm32g4xx_hal_pcd.c ****     hpcd->IN_ep[i].maxpacket = 0U;
 110              		.loc 1 179 25 view .LVU27
 111 0030 D3B2     		uxtb	r3, r2
 112              	.LVL5:
 172:Drivers/STM32G4xx_HAL_Driver/Src/stm32g4xx_hal_pcd.c ****   {
 113              		.loc 1 172 16 is_stmt 1 discriminator 1 view .LVU28
 172:Drivers/STM32G4xx_HAL_Driver/Src/stm32g4xx_hal_pcd.c ****   {
 114              		.loc 1 172 3 is_stmt 0 discriminator 1 view .LVU29
 115 0032 9842     		cmp	r0, r3
ARM GAS  /tmp/cclKjP2I.s 			page 8


 116 0034 02F10102 		add	r2, r2, #1
 117 0038 20D8     		bhi	.L6
 118 003a 0022     		movs	r2, #0
 187:Drivers/STM32G4xx_HAL_Driver/Src/stm32g4xx_hal_pcd.c ****     hpcd->OUT_ep[i].num = i;
 119              		.loc 1 187 27 view .LVU30
 120 003c 1146     		mov	r1, r2
 121              	.LVL6:
 122              	.L7:
 187:Drivers/STM32G4xx_HAL_Driver/Src/stm32g4xx_hal_pcd.c ****     hpcd->OUT_ep[i].num = i;
 123              		.loc 1 187 27 view .LVU31
 124 003e D3B2     		uxtb	r3, r2
 125              	.LVL7:
 185:Drivers/STM32G4xx_HAL_Driver/Src/stm32g4xx_hal_pcd.c ****   {
 126              		.loc 1 185 16 is_stmt 1 discriminator 1 view .LVU32
 185:Drivers/STM32G4xx_HAL_Driver/Src/stm32g4xx_hal_pcd.c ****   {
 127              		.loc 1 185 3 is_stmt 0 discriminator 1 view .LVU33
 128 0040 9842     		cmp	r0, r3
 129 0042 02F10102 		add	r2, r2, #1
 130 0046 28D8     		bhi	.L8
 197:Drivers/STM32G4xx_HAL_Driver/Src/stm32g4xx_hal_pcd.c **** 
 131              		.loc 1 197 3 is_stmt 1 view .LVU34
 197:Drivers/STM32G4xx_HAL_Driver/Src/stm32g4xx_hal_pcd.c **** 
 132              		.loc 1 197 9 is_stmt 0 view .LVU35
 133 0048 04F11006 		add	r6, r4, #16
 134 004c 0FCE     		ldmia	r6!, {r0, r1, r2, r3}
 135              	.LVL8:
 197:Drivers/STM32G4xx_HAL_Driver/Src/stm32g4xx_hal_pcd.c **** 
 136              		.loc 1 197 9 view .LVU36
 137 004e 6D46     		mov	r5, sp
 138 0050 0FC5     		stmia	r5!, {r0, r1, r2, r3}
 139 0052 3368     		ldr	r3, [r6]
 140 0054 2B60     		str	r3, [r5]
 141 0056 231D     		adds	r3, r4, #4
 142 0058 0ECB     		ldm	r3, {r1, r2, r3}
 143 005a 2068     		ldr	r0, [r4]
 144 005c FFF7FEFF 		bl	USB_DevInit
 145              	.LVL9:
 199:Drivers/STM32G4xx_HAL_Driver/Src/stm32g4xx_hal_pcd.c ****   hpcd->State = HAL_PCD_STATE_READY;
 146              		.loc 1 199 3 is_stmt 1 view .LVU37
 199:Drivers/STM32G4xx_HAL_Driver/Src/stm32g4xx_hal_pcd.c ****   hpcd->State = HAL_PCD_STATE_READY;
 147              		.loc 1 199 21 is_stmt 0 view .LVU38
 148 0060 0025     		movs	r5, #0
 200:Drivers/STM32G4xx_HAL_Driver/Src/stm32g4xx_hal_pcd.c ****   
 149              		.loc 1 200 15 view .LVU39
 150 0062 0123     		movs	r3, #1
 199:Drivers/STM32G4xx_HAL_Driver/Src/stm32g4xx_hal_pcd.c ****   hpcd->State = HAL_PCD_STATE_READY;
 151              		.loc 1 199 21 view .LVU40
 152 0064 84F82450 		strb	r5, [r4, #36]
 200:Drivers/STM32G4xx_HAL_Driver/Src/stm32g4xx_hal_pcd.c ****   
 153              		.loc 1 200 3 is_stmt 1 view .LVU41
 200:Drivers/STM32G4xx_HAL_Driver/Src/stm32g4xx_hal_pcd.c ****   
 154              		.loc 1 200 15 is_stmt 0 view .LVU42
 155 0068 84F82932 		strb	r3, [r4, #553]
 203:Drivers/STM32G4xx_HAL_Driver/Src/stm32g4xx_hal_pcd.c ****   {
 156              		.loc 1 203 3 is_stmt 1 view .LVU43
 203:Drivers/STM32G4xx_HAL_Driver/Src/stm32g4xx_hal_pcd.c ****   {
 157              		.loc 1 203 6 is_stmt 0 view .LVU44
ARM GAS  /tmp/cclKjP2I.s 			page 9


 158 006c E369     		ldr	r3, [r4, #28]
 159 006e 012B     		cmp	r3, #1
 160 0070 02D1     		bne	.L10
 205:Drivers/STM32G4xx_HAL_Driver/Src/stm32g4xx_hal_pcd.c ****   }
 161              		.loc 1 205 5 is_stmt 1 view .LVU45
 205:Drivers/STM32G4xx_HAL_Driver/Src/stm32g4xx_hal_pcd.c ****   }
 162              		.loc 1 205 11 is_stmt 0 view .LVU46
 163 0072 2046     		mov	r0, r4
 164 0074 FFF7FEFF 		bl	HAL_PCDEx_ActivateLPM
 165              	.LVL10:
 166              	.L10:
 208:Drivers/STM32G4xx_HAL_Driver/Src/stm32g4xx_hal_pcd.c **** }
 167              		.loc 1 208 10 view .LVU47
 168 0078 2846     		mov	r0, r5
 169 007a 1DE0     		b	.L3
 170              	.LVL11:
 171              	.L6:
 175:Drivers/STM32G4xx_HAL_Driver/Src/stm32g4xx_hal_pcd.c ****     hpcd->IN_ep[i].num = i;
 172              		.loc 1 175 5 is_stmt 1 discriminator 3 view .LVU48
 175:Drivers/STM32G4xx_HAL_Driver/Src/stm32g4xx_hal_pcd.c ****     hpcd->IN_ep[i].num = i;
 173              		.loc 1 175 26 is_stmt 0 discriminator 3 view .LVU49
 174 007c 04EB4311 		add	r1, r4, r3, lsl #5
 181:Drivers/STM32G4xx_HAL_Driver/Src/stm32g4xx_hal_pcd.c ****     hpcd->IN_ep[i].xfer_len = 0U;
 175              		.loc 1 181 30 discriminator 3 view .LVU50
 176 0080 C1E90E55 		strd	r5, r5, [r1, #56]
 176:Drivers/STM32G4xx_HAL_Driver/Src/stm32g4xx_hal_pcd.c ****     hpcd->IN_ep[i].tx_fifo_num = i;
 177              		.loc 1 176 24 discriminator 3 view .LVU51
 178 0084 81F82830 		strb	r3, [r1, #40]
 177:Drivers/STM32G4xx_HAL_Driver/Src/stm32g4xx_hal_pcd.c ****     /* Control until ep is activated */
 179              		.loc 1 177 32 discriminator 3 view .LVU52
 180 0088 CB86     		strh	r3, [r1, #54]	@ movhi
 182:Drivers/STM32G4xx_HAL_Driver/Src/stm32g4xx_hal_pcd.c ****   }
 181              		.loc 1 182 29 discriminator 3 view .LVU53
 182 008a 0233     		adds	r3, r3, #2
 183              	.LVL12:
 182:Drivers/STM32G4xx_HAL_Driver/Src/stm32g4xx_hal_pcd.c ****   }
 184              		.loc 1 182 29 discriminator 3 view .LVU54
 185 008c 5B01     		lsls	r3, r3, #5
 175:Drivers/STM32G4xx_HAL_Driver/Src/stm32g4xx_hal_pcd.c ****     hpcd->IN_ep[i].num = i;
 186              		.loc 1 175 26 discriminator 3 view .LVU55
 187 008e 81F82960 		strb	r6, [r1, #41]
 176:Drivers/STM32G4xx_HAL_Driver/Src/stm32g4xx_hal_pcd.c ****     hpcd->IN_ep[i].tx_fifo_num = i;
 188              		.loc 1 176 5 is_stmt 1 discriminator 3 view .LVU56
 177:Drivers/STM32G4xx_HAL_Driver/Src/stm32g4xx_hal_pcd.c ****     /* Control until ep is activated */
 189              		.loc 1 177 5 discriminator 3 view .LVU57
 179:Drivers/STM32G4xx_HAL_Driver/Src/stm32g4xx_hal_pcd.c ****     hpcd->IN_ep[i].maxpacket = 0U;
 190              		.loc 1 179 5 discriminator 3 view .LVU58
 179:Drivers/STM32G4xx_HAL_Driver/Src/stm32g4xx_hal_pcd.c ****     hpcd->IN_ep[i].maxpacket = 0U;
 191              		.loc 1 179 25 is_stmt 0 discriminator 3 view .LVU59
 192 0092 81F82B50 		strb	r5, [r1, #43]
 180:Drivers/STM32G4xx_HAL_Driver/Src/stm32g4xx_hal_pcd.c ****     hpcd->IN_ep[i].xfer_buff = 0U;
 193              		.loc 1 180 5 is_stmt 1 discriminator 3 view .LVU60
 182:Drivers/STM32G4xx_HAL_Driver/Src/stm32g4xx_hal_pcd.c ****   }
 194              		.loc 1 182 5 discriminator 3 view .LVU61
 182:Drivers/STM32G4xx_HAL_Driver/Src/stm32g4xx_hal_pcd.c ****   }
 195              		.loc 1 182 29 is_stmt 0 discriminator 3 view .LVU62
 196 0096 E550     		str	r5, [r4, r3]
ARM GAS  /tmp/cclKjP2I.s 			page 10


 197              	.LVL13:
 172:Drivers/STM32G4xx_HAL_Driver/Src/stm32g4xx_hal_pcd.c ****   {
 198              		.loc 1 172 46 is_stmt 1 discriminator 3 view .LVU63
 172:Drivers/STM32G4xx_HAL_Driver/Src/stm32g4xx_hal_pcd.c ****   {
 199              		.loc 1 172 46 is_stmt 0 discriminator 3 view .LVU64
 200 0098 CAE7     		b	.L5
 201              	.LVL14:
 202              	.L8:
 187:Drivers/STM32G4xx_HAL_Driver/Src/stm32g4xx_hal_pcd.c ****     hpcd->OUT_ep[i].num = i;
 203              		.loc 1 187 5 is_stmt 1 discriminator 3 view .LVU65
 187:Drivers/STM32G4xx_HAL_Driver/Src/stm32g4xx_hal_pcd.c ****     hpcd->OUT_ep[i].num = i;
 204              		.loc 1 187 27 is_stmt 0 discriminator 3 view .LVU66
 205 009a 04EB4315 		add	r5, r4, r3, lsl #5
 192:Drivers/STM32G4xx_HAL_Driver/Src/stm32g4xx_hal_pcd.c ****     hpcd->OUT_ep[i].xfer_len = 0U;
 206              		.loc 1 192 31 discriminator 3 view .LVU67
 207 009e C5E94E11 		strd	r1, r1, [r5, #312]
 188:Drivers/STM32G4xx_HAL_Driver/Src/stm32g4xx_hal_pcd.c ****     /* Control until ep is activated */
 208              		.loc 1 188 25 discriminator 3 view .LVU68
 209 00a2 85F82831 		strb	r3, [r5, #296]
 193:Drivers/STM32G4xx_HAL_Driver/Src/stm32g4xx_hal_pcd.c ****   }
 210              		.loc 1 193 30 discriminator 3 view .LVU69
 211 00a6 0A33     		adds	r3, r3, #10
 212              	.LVL15:
 193:Drivers/STM32G4xx_HAL_Driver/Src/stm32g4xx_hal_pcd.c ****   }
 213              		.loc 1 193 30 discriminator 3 view .LVU70
 214 00a8 5B01     		lsls	r3, r3, #5
 187:Drivers/STM32G4xx_HAL_Driver/Src/stm32g4xx_hal_pcd.c ****     hpcd->OUT_ep[i].num = i;
 215              		.loc 1 187 27 discriminator 3 view .LVU71
 216 00aa 85F82911 		strb	r1, [r5, #297]
 188:Drivers/STM32G4xx_HAL_Driver/Src/stm32g4xx_hal_pcd.c ****     /* Control until ep is activated */
 217              		.loc 1 188 5 is_stmt 1 discriminator 3 view .LVU72
 190:Drivers/STM32G4xx_HAL_Driver/Src/stm32g4xx_hal_pcd.c ****     hpcd->OUT_ep[i].maxpacket = 0U;
 218              		.loc 1 190 5 discriminator 3 view .LVU73
 190:Drivers/STM32G4xx_HAL_Driver/Src/stm32g4xx_hal_pcd.c ****     hpcd->OUT_ep[i].maxpacket = 0U;
 219              		.loc 1 190 26 is_stmt 0 discriminator 3 view .LVU74
 220 00ae 85F82B11 		strb	r1, [r5, #299]
 191:Drivers/STM32G4xx_HAL_Driver/Src/stm32g4xx_hal_pcd.c ****     hpcd->OUT_ep[i].xfer_buff = 0U;
 221              		.loc 1 191 5 is_stmt 1 discriminator 3 view .LVU75
 193:Drivers/STM32G4xx_HAL_Driver/Src/stm32g4xx_hal_pcd.c ****   }
 222              		.loc 1 193 5 discriminator 3 view .LVU76
 193:Drivers/STM32G4xx_HAL_Driver/Src/stm32g4xx_hal_pcd.c ****   }
 223              		.loc 1 193 30 is_stmt 0 discriminator 3 view .LVU77
 224 00b2 E150     		str	r1, [r4, r3]
 225              	.LVL16:
 185:Drivers/STM32G4xx_HAL_Driver/Src/stm32g4xx_hal_pcd.c ****   {
 226              		.loc 1 185 46 is_stmt 1 discriminator 3 view .LVU78
 185:Drivers/STM32G4xx_HAL_Driver/Src/stm32g4xx_hal_pcd.c ****   {
 227              		.loc 1 185 46 is_stmt 0 discriminator 3 view .LVU79
 228 00b4 C3E7     		b	.L7
 229              	.LVL17:
 230              	.L9:
 127:Drivers/STM32G4xx_HAL_Driver/Src/stm32g4xx_hal_pcd.c ****   }
 231              		.loc 1 127 12 view .LVU80
 232 00b6 0120     		movs	r0, #1
 233              	.LVL18:
 234              	.L3:
 209:Drivers/STM32G4xx_HAL_Driver/Src/stm32g4xx_hal_pcd.c **** 
ARM GAS  /tmp/cclKjP2I.s 			page 11


 235              		.loc 1 209 1 view .LVU81
 236 00b8 06B0     		add	sp, sp, #24
 237              	.LCFI2:
 238              		.cfi_def_cfa_offset 16
 239              		@ sp needed
 240 00ba 70BD     		pop	{r4, r5, r6, pc}
 209:Drivers/STM32G4xx_HAL_Driver/Src/stm32g4xx_hal_pcd.c **** 
 241              		.loc 1 209 1 view .LVU82
 242              		.cfi_endproc
 243              	.LFE357:
 245              		.section	.text.HAL_PCD_MspDeInit,"ax",%progbits
 246              		.align	1
 247              		.weak	HAL_PCD_MspDeInit
 248              		.syntax unified
 249              		.thumb
 250              		.thumb_func
 251              		.fpu fpv4-sp-d16
 253              	HAL_PCD_MspDeInit:
 254              	.LFB391:
 255              		.cfi_startproc
 256              		@ args = 0, pretend = 0, frame = 0
 257              		@ frame_needed = 0, uses_anonymous_args = 0
 258              		@ link register save eliminated.
 259 0000 7047     		bx	lr
 260              		.cfi_endproc
 261              	.LFE391:
 263              		.section	.text.HAL_PCD_Start,"ax",%progbits
 264              		.align	1
 265              		.global	HAL_PCD_Start
 266              		.syntax unified
 267              		.thumb
 268              		.thumb_func
 269              		.fpu fpv4-sp-d16
 271              	HAL_PCD_Start:
 272              	.LVL19:
 273              	.LFB361:
 261:Drivers/STM32G4xx_HAL_Driver/Src/stm32g4xx_hal_pcd.c **** 
 262:Drivers/STM32G4xx_HAL_Driver/Src/stm32g4xx_hal_pcd.c **** /**
 263:Drivers/STM32G4xx_HAL_Driver/Src/stm32g4xx_hal_pcd.c ****   * @brief  DeInitializes PCD MSP.
 264:Drivers/STM32G4xx_HAL_Driver/Src/stm32g4xx_hal_pcd.c ****   * @param  hpcd PCD handle
 265:Drivers/STM32G4xx_HAL_Driver/Src/stm32g4xx_hal_pcd.c ****   * @retval None
 266:Drivers/STM32G4xx_HAL_Driver/Src/stm32g4xx_hal_pcd.c ****   */
 267:Drivers/STM32G4xx_HAL_Driver/Src/stm32g4xx_hal_pcd.c **** __weak void HAL_PCD_MspDeInit(PCD_HandleTypeDef *hpcd)
 268:Drivers/STM32G4xx_HAL_Driver/Src/stm32g4xx_hal_pcd.c **** {
 269:Drivers/STM32G4xx_HAL_Driver/Src/stm32g4xx_hal_pcd.c ****   /* Prevent unused argument(s) compilation warning */
 270:Drivers/STM32G4xx_HAL_Driver/Src/stm32g4xx_hal_pcd.c ****   UNUSED(hpcd);
 271:Drivers/STM32G4xx_HAL_Driver/Src/stm32g4xx_hal_pcd.c **** 
 272:Drivers/STM32G4xx_HAL_Driver/Src/stm32g4xx_hal_pcd.c ****   /* NOTE : This function should not be modified, when the callback is needed,
 273:Drivers/STM32G4xx_HAL_Driver/Src/stm32g4xx_hal_pcd.c ****             the HAL_PCD_MspDeInit could be implemented in the user file
 274:Drivers/STM32G4xx_HAL_Driver/Src/stm32g4xx_hal_pcd.c ****    */
 275:Drivers/STM32G4xx_HAL_Driver/Src/stm32g4xx_hal_pcd.c **** }
 276:Drivers/STM32G4xx_HAL_Driver/Src/stm32g4xx_hal_pcd.c **** 
 277:Drivers/STM32G4xx_HAL_Driver/Src/stm32g4xx_hal_pcd.c **** #if (USE_HAL_PCD_REGISTER_CALLBACKS == 1U)
 278:Drivers/STM32G4xx_HAL_Driver/Src/stm32g4xx_hal_pcd.c **** /**
 279:Drivers/STM32G4xx_HAL_Driver/Src/stm32g4xx_hal_pcd.c ****   * @brief  Register a User USB PCD Callback
 280:Drivers/STM32G4xx_HAL_Driver/Src/stm32g4xx_hal_pcd.c ****   *         To be used instead of the weak predefined callback
 281:Drivers/STM32G4xx_HAL_Driver/Src/stm32g4xx_hal_pcd.c ****   * @param  hpcd USB PCD handle
ARM GAS  /tmp/cclKjP2I.s 			page 12


 282:Drivers/STM32G4xx_HAL_Driver/Src/stm32g4xx_hal_pcd.c ****   * @param  CallbackID ID of the callback to be registered
 283:Drivers/STM32G4xx_HAL_Driver/Src/stm32g4xx_hal_pcd.c ****   *         This parameter can be one of the following values:
 284:Drivers/STM32G4xx_HAL_Driver/Src/stm32g4xx_hal_pcd.c ****   *          @arg @ref HAL_PCD_SOF_CB_ID USB PCD SOF callback ID
 285:Drivers/STM32G4xx_HAL_Driver/Src/stm32g4xx_hal_pcd.c ****   *          @arg @ref HAL_PCD_SETUPSTAGE_CB_ID USB PCD Setup callback ID
 286:Drivers/STM32G4xx_HAL_Driver/Src/stm32g4xx_hal_pcd.c ****   *          @arg @ref HAL_PCD_RESET_CB_ID USB PCD Reset callback ID
 287:Drivers/STM32G4xx_HAL_Driver/Src/stm32g4xx_hal_pcd.c ****   *          @arg @ref HAL_PCD_SUSPEND_CB_ID USB PCD Suspend callback ID
 288:Drivers/STM32G4xx_HAL_Driver/Src/stm32g4xx_hal_pcd.c ****   *          @arg @ref HAL_PCD_RESUME_CB_ID USB PCD Resume callback ID
 289:Drivers/STM32G4xx_HAL_Driver/Src/stm32g4xx_hal_pcd.c ****   *          @arg @ref HAL_PCD_CONNECT_CB_ID USB PCD Connect callback ID
 290:Drivers/STM32G4xx_HAL_Driver/Src/stm32g4xx_hal_pcd.c ****   *          @arg @ref HAL_PCD_DISCONNECT_CB_ID OTG PCD Disconnect callback ID
 291:Drivers/STM32G4xx_HAL_Driver/Src/stm32g4xx_hal_pcd.c ****   *          @arg @ref HAL_PCD_MSPINIT_CB_ID MspDeInit callback ID
 292:Drivers/STM32G4xx_HAL_Driver/Src/stm32g4xx_hal_pcd.c ****   *          @arg @ref HAL_PCD_MSPDEINIT_CB_ID MspDeInit callback ID
 293:Drivers/STM32G4xx_HAL_Driver/Src/stm32g4xx_hal_pcd.c ****   * @param  pCallback pointer to the Callback function
 294:Drivers/STM32G4xx_HAL_Driver/Src/stm32g4xx_hal_pcd.c ****   * @retval HAL status
 295:Drivers/STM32G4xx_HAL_Driver/Src/stm32g4xx_hal_pcd.c ****   */
 296:Drivers/STM32G4xx_HAL_Driver/Src/stm32g4xx_hal_pcd.c **** HAL_StatusTypeDef HAL_PCD_RegisterCallback(PCD_HandleTypeDef *hpcd, HAL_PCD_CallbackIDTypeDef Callb
 297:Drivers/STM32G4xx_HAL_Driver/Src/stm32g4xx_hal_pcd.c **** {
 298:Drivers/STM32G4xx_HAL_Driver/Src/stm32g4xx_hal_pcd.c ****   HAL_StatusTypeDef status = HAL_OK;
 299:Drivers/STM32G4xx_HAL_Driver/Src/stm32g4xx_hal_pcd.c **** 
 300:Drivers/STM32G4xx_HAL_Driver/Src/stm32g4xx_hal_pcd.c ****   if (pCallback == NULL)
 301:Drivers/STM32G4xx_HAL_Driver/Src/stm32g4xx_hal_pcd.c ****   {
 302:Drivers/STM32G4xx_HAL_Driver/Src/stm32g4xx_hal_pcd.c ****     /* Update the error code */
 303:Drivers/STM32G4xx_HAL_Driver/Src/stm32g4xx_hal_pcd.c ****     hpcd->ErrorCode |= HAL_PCD_ERROR_INVALID_CALLBACK;
 304:Drivers/STM32G4xx_HAL_Driver/Src/stm32g4xx_hal_pcd.c ****     return HAL_ERROR;
 305:Drivers/STM32G4xx_HAL_Driver/Src/stm32g4xx_hal_pcd.c ****   }
 306:Drivers/STM32G4xx_HAL_Driver/Src/stm32g4xx_hal_pcd.c ****   /* Process locked */
 307:Drivers/STM32G4xx_HAL_Driver/Src/stm32g4xx_hal_pcd.c ****   __HAL_LOCK(hpcd);
 308:Drivers/STM32G4xx_HAL_Driver/Src/stm32g4xx_hal_pcd.c **** 
 309:Drivers/STM32G4xx_HAL_Driver/Src/stm32g4xx_hal_pcd.c ****   if (hpcd->State == HAL_PCD_STATE_READY)
 310:Drivers/STM32G4xx_HAL_Driver/Src/stm32g4xx_hal_pcd.c ****   {
 311:Drivers/STM32G4xx_HAL_Driver/Src/stm32g4xx_hal_pcd.c ****     switch (CallbackID)
 312:Drivers/STM32G4xx_HAL_Driver/Src/stm32g4xx_hal_pcd.c ****     {
 313:Drivers/STM32G4xx_HAL_Driver/Src/stm32g4xx_hal_pcd.c ****       case HAL_PCD_SOF_CB_ID :
 314:Drivers/STM32G4xx_HAL_Driver/Src/stm32g4xx_hal_pcd.c ****         hpcd->SOFCallback = pCallback;
 315:Drivers/STM32G4xx_HAL_Driver/Src/stm32g4xx_hal_pcd.c ****         break;
 316:Drivers/STM32G4xx_HAL_Driver/Src/stm32g4xx_hal_pcd.c **** 
 317:Drivers/STM32G4xx_HAL_Driver/Src/stm32g4xx_hal_pcd.c ****       case HAL_PCD_SETUPSTAGE_CB_ID :
 318:Drivers/STM32G4xx_HAL_Driver/Src/stm32g4xx_hal_pcd.c ****         hpcd->SetupStageCallback = pCallback;
 319:Drivers/STM32G4xx_HAL_Driver/Src/stm32g4xx_hal_pcd.c ****         break;
 320:Drivers/STM32G4xx_HAL_Driver/Src/stm32g4xx_hal_pcd.c **** 
 321:Drivers/STM32G4xx_HAL_Driver/Src/stm32g4xx_hal_pcd.c ****       case HAL_PCD_RESET_CB_ID :
 322:Drivers/STM32G4xx_HAL_Driver/Src/stm32g4xx_hal_pcd.c ****         hpcd->ResetCallback = pCallback;
 323:Drivers/STM32G4xx_HAL_Driver/Src/stm32g4xx_hal_pcd.c ****         break;
 324:Drivers/STM32G4xx_HAL_Driver/Src/stm32g4xx_hal_pcd.c **** 
 325:Drivers/STM32G4xx_HAL_Driver/Src/stm32g4xx_hal_pcd.c ****       case HAL_PCD_SUSPEND_CB_ID :
 326:Drivers/STM32G4xx_HAL_Driver/Src/stm32g4xx_hal_pcd.c ****         hpcd->SuspendCallback = pCallback;
 327:Drivers/STM32G4xx_HAL_Driver/Src/stm32g4xx_hal_pcd.c ****         break;
 328:Drivers/STM32G4xx_HAL_Driver/Src/stm32g4xx_hal_pcd.c **** 
 329:Drivers/STM32G4xx_HAL_Driver/Src/stm32g4xx_hal_pcd.c ****       case HAL_PCD_RESUME_CB_ID :
 330:Drivers/STM32G4xx_HAL_Driver/Src/stm32g4xx_hal_pcd.c ****         hpcd->ResumeCallback = pCallback;
 331:Drivers/STM32G4xx_HAL_Driver/Src/stm32g4xx_hal_pcd.c ****         break;
 332:Drivers/STM32G4xx_HAL_Driver/Src/stm32g4xx_hal_pcd.c **** 
 333:Drivers/STM32G4xx_HAL_Driver/Src/stm32g4xx_hal_pcd.c ****       case HAL_PCD_CONNECT_CB_ID :
 334:Drivers/STM32G4xx_HAL_Driver/Src/stm32g4xx_hal_pcd.c ****         hpcd->ConnectCallback = pCallback;
 335:Drivers/STM32G4xx_HAL_Driver/Src/stm32g4xx_hal_pcd.c ****         break;
 336:Drivers/STM32G4xx_HAL_Driver/Src/stm32g4xx_hal_pcd.c **** 
 337:Drivers/STM32G4xx_HAL_Driver/Src/stm32g4xx_hal_pcd.c ****       case HAL_PCD_DISCONNECT_CB_ID :
 338:Drivers/STM32G4xx_HAL_Driver/Src/stm32g4xx_hal_pcd.c ****         hpcd->DisconnectCallback = pCallback;
ARM GAS  /tmp/cclKjP2I.s 			page 13


 339:Drivers/STM32G4xx_HAL_Driver/Src/stm32g4xx_hal_pcd.c ****         break;
 340:Drivers/STM32G4xx_HAL_Driver/Src/stm32g4xx_hal_pcd.c **** 
 341:Drivers/STM32G4xx_HAL_Driver/Src/stm32g4xx_hal_pcd.c ****       case HAL_PCD_MSPINIT_CB_ID :
 342:Drivers/STM32G4xx_HAL_Driver/Src/stm32g4xx_hal_pcd.c ****         hpcd->MspInitCallback = pCallback;
 343:Drivers/STM32G4xx_HAL_Driver/Src/stm32g4xx_hal_pcd.c ****         break;
 344:Drivers/STM32G4xx_HAL_Driver/Src/stm32g4xx_hal_pcd.c **** 
 345:Drivers/STM32G4xx_HAL_Driver/Src/stm32g4xx_hal_pcd.c ****       case HAL_PCD_MSPDEINIT_CB_ID :
 346:Drivers/STM32G4xx_HAL_Driver/Src/stm32g4xx_hal_pcd.c ****         hpcd->MspDeInitCallback = pCallback;
 347:Drivers/STM32G4xx_HAL_Driver/Src/stm32g4xx_hal_pcd.c ****         break;
 348:Drivers/STM32G4xx_HAL_Driver/Src/stm32g4xx_hal_pcd.c **** 
 349:Drivers/STM32G4xx_HAL_Driver/Src/stm32g4xx_hal_pcd.c ****       default :
 350:Drivers/STM32G4xx_HAL_Driver/Src/stm32g4xx_hal_pcd.c ****         /* Update the error code */
 351:Drivers/STM32G4xx_HAL_Driver/Src/stm32g4xx_hal_pcd.c ****         hpcd->ErrorCode |= HAL_PCD_ERROR_INVALID_CALLBACK;
 352:Drivers/STM32G4xx_HAL_Driver/Src/stm32g4xx_hal_pcd.c ****         /* Return error status */
 353:Drivers/STM32G4xx_HAL_Driver/Src/stm32g4xx_hal_pcd.c ****         status =  HAL_ERROR;
 354:Drivers/STM32G4xx_HAL_Driver/Src/stm32g4xx_hal_pcd.c ****         break;
 355:Drivers/STM32G4xx_HAL_Driver/Src/stm32g4xx_hal_pcd.c ****     }
 356:Drivers/STM32G4xx_HAL_Driver/Src/stm32g4xx_hal_pcd.c ****   }
 357:Drivers/STM32G4xx_HAL_Driver/Src/stm32g4xx_hal_pcd.c ****   else if (hpcd->State == HAL_PCD_STATE_RESET)
 358:Drivers/STM32G4xx_HAL_Driver/Src/stm32g4xx_hal_pcd.c ****   {
 359:Drivers/STM32G4xx_HAL_Driver/Src/stm32g4xx_hal_pcd.c ****     switch (CallbackID)
 360:Drivers/STM32G4xx_HAL_Driver/Src/stm32g4xx_hal_pcd.c ****     {
 361:Drivers/STM32G4xx_HAL_Driver/Src/stm32g4xx_hal_pcd.c ****       case HAL_PCD_MSPINIT_CB_ID :
 362:Drivers/STM32G4xx_HAL_Driver/Src/stm32g4xx_hal_pcd.c ****         hpcd->MspInitCallback = pCallback;
 363:Drivers/STM32G4xx_HAL_Driver/Src/stm32g4xx_hal_pcd.c ****         break;
 364:Drivers/STM32G4xx_HAL_Driver/Src/stm32g4xx_hal_pcd.c **** 
 365:Drivers/STM32G4xx_HAL_Driver/Src/stm32g4xx_hal_pcd.c ****       case HAL_PCD_MSPDEINIT_CB_ID :
 366:Drivers/STM32G4xx_HAL_Driver/Src/stm32g4xx_hal_pcd.c ****         hpcd->MspDeInitCallback = pCallback;
 367:Drivers/STM32G4xx_HAL_Driver/Src/stm32g4xx_hal_pcd.c ****         break;
 368:Drivers/STM32G4xx_HAL_Driver/Src/stm32g4xx_hal_pcd.c **** 
 369:Drivers/STM32G4xx_HAL_Driver/Src/stm32g4xx_hal_pcd.c ****       default :
 370:Drivers/STM32G4xx_HAL_Driver/Src/stm32g4xx_hal_pcd.c ****         /* Update the error code */
 371:Drivers/STM32G4xx_HAL_Driver/Src/stm32g4xx_hal_pcd.c ****         hpcd->ErrorCode |= HAL_PCD_ERROR_INVALID_CALLBACK;
 372:Drivers/STM32G4xx_HAL_Driver/Src/stm32g4xx_hal_pcd.c ****         /* Return error status */
 373:Drivers/STM32G4xx_HAL_Driver/Src/stm32g4xx_hal_pcd.c ****         status =  HAL_ERROR;
 374:Drivers/STM32G4xx_HAL_Driver/Src/stm32g4xx_hal_pcd.c ****         break;
 375:Drivers/STM32G4xx_HAL_Driver/Src/stm32g4xx_hal_pcd.c ****     }
 376:Drivers/STM32G4xx_HAL_Driver/Src/stm32g4xx_hal_pcd.c ****   }
 377:Drivers/STM32G4xx_HAL_Driver/Src/stm32g4xx_hal_pcd.c ****   else
 378:Drivers/STM32G4xx_HAL_Driver/Src/stm32g4xx_hal_pcd.c ****   {
 379:Drivers/STM32G4xx_HAL_Driver/Src/stm32g4xx_hal_pcd.c ****     /* Update the error code */
 380:Drivers/STM32G4xx_HAL_Driver/Src/stm32g4xx_hal_pcd.c ****     hpcd->ErrorCode |= HAL_PCD_ERROR_INVALID_CALLBACK;
 381:Drivers/STM32G4xx_HAL_Driver/Src/stm32g4xx_hal_pcd.c ****     /* Return error status */
 382:Drivers/STM32G4xx_HAL_Driver/Src/stm32g4xx_hal_pcd.c ****     status =  HAL_ERROR;
 383:Drivers/STM32G4xx_HAL_Driver/Src/stm32g4xx_hal_pcd.c ****   }
 384:Drivers/STM32G4xx_HAL_Driver/Src/stm32g4xx_hal_pcd.c **** 
 385:Drivers/STM32G4xx_HAL_Driver/Src/stm32g4xx_hal_pcd.c ****   /* Release Lock */
 386:Drivers/STM32G4xx_HAL_Driver/Src/stm32g4xx_hal_pcd.c ****   __HAL_UNLOCK(hpcd);
 387:Drivers/STM32G4xx_HAL_Driver/Src/stm32g4xx_hal_pcd.c ****   return status;
 388:Drivers/STM32G4xx_HAL_Driver/Src/stm32g4xx_hal_pcd.c **** }
 389:Drivers/STM32G4xx_HAL_Driver/Src/stm32g4xx_hal_pcd.c **** 
 390:Drivers/STM32G4xx_HAL_Driver/Src/stm32g4xx_hal_pcd.c **** /**
 391:Drivers/STM32G4xx_HAL_Driver/Src/stm32g4xx_hal_pcd.c ****   * @brief  Unregister an USB PCD Callback
 392:Drivers/STM32G4xx_HAL_Driver/Src/stm32g4xx_hal_pcd.c ****   *         USB PCD callabck is redirected to the weak predefined callback
 393:Drivers/STM32G4xx_HAL_Driver/Src/stm32g4xx_hal_pcd.c ****   * @param  hpcd USB PCD handle
 394:Drivers/STM32G4xx_HAL_Driver/Src/stm32g4xx_hal_pcd.c ****   * @param  CallbackID ID of the callback to be unregistered
 395:Drivers/STM32G4xx_HAL_Driver/Src/stm32g4xx_hal_pcd.c ****   *         This parameter can be one of the following values:
ARM GAS  /tmp/cclKjP2I.s 			page 14


 396:Drivers/STM32G4xx_HAL_Driver/Src/stm32g4xx_hal_pcd.c ****   *          @arg @ref HAL_PCD_SOF_CB_ID USB PCD SOF callback ID
 397:Drivers/STM32G4xx_HAL_Driver/Src/stm32g4xx_hal_pcd.c ****   *          @arg @ref HAL_PCD_SETUPSTAGE_CB_ID USB PCD Setup callback ID
 398:Drivers/STM32G4xx_HAL_Driver/Src/stm32g4xx_hal_pcd.c ****   *          @arg @ref HAL_PCD_RESET_CB_ID USB PCD Reset callback ID
 399:Drivers/STM32G4xx_HAL_Driver/Src/stm32g4xx_hal_pcd.c ****   *          @arg @ref HAL_PCD_SUSPEND_CB_ID USB PCD Suspend callback ID
 400:Drivers/STM32G4xx_HAL_Driver/Src/stm32g4xx_hal_pcd.c ****   *          @arg @ref HAL_PCD_RESUME_CB_ID USB PCD Resume callback ID
 401:Drivers/STM32G4xx_HAL_Driver/Src/stm32g4xx_hal_pcd.c ****   *          @arg @ref HAL_PCD_CONNECT_CB_ID USB PCD Connect callback ID
 402:Drivers/STM32G4xx_HAL_Driver/Src/stm32g4xx_hal_pcd.c ****   *          @arg @ref HAL_PCD_DISCONNECT_CB_ID OTG PCD Disconnect callback ID
 403:Drivers/STM32G4xx_HAL_Driver/Src/stm32g4xx_hal_pcd.c ****   *          @arg @ref HAL_PCD_MSPINIT_CB_ID MspDeInit callback ID
 404:Drivers/STM32G4xx_HAL_Driver/Src/stm32g4xx_hal_pcd.c ****   *          @arg @ref HAL_PCD_MSPDEINIT_CB_ID MspDeInit callback ID
 405:Drivers/STM32G4xx_HAL_Driver/Src/stm32g4xx_hal_pcd.c ****   * @retval HAL status
 406:Drivers/STM32G4xx_HAL_Driver/Src/stm32g4xx_hal_pcd.c ****   */
 407:Drivers/STM32G4xx_HAL_Driver/Src/stm32g4xx_hal_pcd.c **** HAL_StatusTypeDef HAL_PCD_UnRegisterCallback(PCD_HandleTypeDef *hpcd, HAL_PCD_CallbackIDTypeDef Cal
 408:Drivers/STM32G4xx_HAL_Driver/Src/stm32g4xx_hal_pcd.c **** {
 409:Drivers/STM32G4xx_HAL_Driver/Src/stm32g4xx_hal_pcd.c ****   HAL_StatusTypeDef status = HAL_OK;
 410:Drivers/STM32G4xx_HAL_Driver/Src/stm32g4xx_hal_pcd.c **** 
 411:Drivers/STM32G4xx_HAL_Driver/Src/stm32g4xx_hal_pcd.c ****   /* Process locked */
 412:Drivers/STM32G4xx_HAL_Driver/Src/stm32g4xx_hal_pcd.c ****   __HAL_LOCK(hpcd);
 413:Drivers/STM32G4xx_HAL_Driver/Src/stm32g4xx_hal_pcd.c **** 
 414:Drivers/STM32G4xx_HAL_Driver/Src/stm32g4xx_hal_pcd.c ****   /* Setup Legacy weak Callbacks  */
 415:Drivers/STM32G4xx_HAL_Driver/Src/stm32g4xx_hal_pcd.c ****   if (hpcd->State == HAL_PCD_STATE_READY)
 416:Drivers/STM32G4xx_HAL_Driver/Src/stm32g4xx_hal_pcd.c ****   {
 417:Drivers/STM32G4xx_HAL_Driver/Src/stm32g4xx_hal_pcd.c ****     switch (CallbackID)
 418:Drivers/STM32G4xx_HAL_Driver/Src/stm32g4xx_hal_pcd.c ****     {
 419:Drivers/STM32G4xx_HAL_Driver/Src/stm32g4xx_hal_pcd.c ****       case HAL_PCD_SOF_CB_ID :
 420:Drivers/STM32G4xx_HAL_Driver/Src/stm32g4xx_hal_pcd.c ****         hpcd->SOFCallback = HAL_PCD_SOFCallback;
 421:Drivers/STM32G4xx_HAL_Driver/Src/stm32g4xx_hal_pcd.c ****         break;
 422:Drivers/STM32G4xx_HAL_Driver/Src/stm32g4xx_hal_pcd.c **** 
 423:Drivers/STM32G4xx_HAL_Driver/Src/stm32g4xx_hal_pcd.c ****       case HAL_PCD_SETUPSTAGE_CB_ID :
 424:Drivers/STM32G4xx_HAL_Driver/Src/stm32g4xx_hal_pcd.c ****         hpcd->SetupStageCallback = HAL_PCD_SetupStageCallback;
 425:Drivers/STM32G4xx_HAL_Driver/Src/stm32g4xx_hal_pcd.c ****         break;
 426:Drivers/STM32G4xx_HAL_Driver/Src/stm32g4xx_hal_pcd.c **** 
 427:Drivers/STM32G4xx_HAL_Driver/Src/stm32g4xx_hal_pcd.c ****       case HAL_PCD_RESET_CB_ID :
 428:Drivers/STM32G4xx_HAL_Driver/Src/stm32g4xx_hal_pcd.c ****         hpcd->ResetCallback = HAL_PCD_ResetCallback;
 429:Drivers/STM32G4xx_HAL_Driver/Src/stm32g4xx_hal_pcd.c ****         break;
 430:Drivers/STM32G4xx_HAL_Driver/Src/stm32g4xx_hal_pcd.c **** 
 431:Drivers/STM32G4xx_HAL_Driver/Src/stm32g4xx_hal_pcd.c ****       case HAL_PCD_SUSPEND_CB_ID :
 432:Drivers/STM32G4xx_HAL_Driver/Src/stm32g4xx_hal_pcd.c ****         hpcd->SuspendCallback = HAL_PCD_SuspendCallback;
 433:Drivers/STM32G4xx_HAL_Driver/Src/stm32g4xx_hal_pcd.c ****         break;
 434:Drivers/STM32G4xx_HAL_Driver/Src/stm32g4xx_hal_pcd.c **** 
 435:Drivers/STM32G4xx_HAL_Driver/Src/stm32g4xx_hal_pcd.c ****       case HAL_PCD_RESUME_CB_ID :
 436:Drivers/STM32G4xx_HAL_Driver/Src/stm32g4xx_hal_pcd.c ****         hpcd->ResumeCallback = HAL_PCD_ResumeCallback;
 437:Drivers/STM32G4xx_HAL_Driver/Src/stm32g4xx_hal_pcd.c ****         break;
 438:Drivers/STM32G4xx_HAL_Driver/Src/stm32g4xx_hal_pcd.c **** 
 439:Drivers/STM32G4xx_HAL_Driver/Src/stm32g4xx_hal_pcd.c ****       case HAL_PCD_CONNECT_CB_ID :
 440:Drivers/STM32G4xx_HAL_Driver/Src/stm32g4xx_hal_pcd.c ****         hpcd->ConnectCallback = HAL_PCD_ConnectCallback;
 441:Drivers/STM32G4xx_HAL_Driver/Src/stm32g4xx_hal_pcd.c ****         break;
 442:Drivers/STM32G4xx_HAL_Driver/Src/stm32g4xx_hal_pcd.c **** 
 443:Drivers/STM32G4xx_HAL_Driver/Src/stm32g4xx_hal_pcd.c ****       case HAL_PCD_DISCONNECT_CB_ID :
 444:Drivers/STM32G4xx_HAL_Driver/Src/stm32g4xx_hal_pcd.c ****         hpcd->DisconnectCallback = HAL_PCD_DisconnectCallback;
 445:Drivers/STM32G4xx_HAL_Driver/Src/stm32g4xx_hal_pcd.c ****         break;
 446:Drivers/STM32G4xx_HAL_Driver/Src/stm32g4xx_hal_pcd.c **** 
 447:Drivers/STM32G4xx_HAL_Driver/Src/stm32g4xx_hal_pcd.c ****       case HAL_PCD_MSPINIT_CB_ID :
 448:Drivers/STM32G4xx_HAL_Driver/Src/stm32g4xx_hal_pcd.c ****         hpcd->MspInitCallback = HAL_PCD_MspInit;
 449:Drivers/STM32G4xx_HAL_Driver/Src/stm32g4xx_hal_pcd.c ****         break;
 450:Drivers/STM32G4xx_HAL_Driver/Src/stm32g4xx_hal_pcd.c **** 
 451:Drivers/STM32G4xx_HAL_Driver/Src/stm32g4xx_hal_pcd.c ****       case HAL_PCD_MSPDEINIT_CB_ID :
 452:Drivers/STM32G4xx_HAL_Driver/Src/stm32g4xx_hal_pcd.c ****         hpcd->MspDeInitCallback = HAL_PCD_MspDeInit;
ARM GAS  /tmp/cclKjP2I.s 			page 15


 453:Drivers/STM32G4xx_HAL_Driver/Src/stm32g4xx_hal_pcd.c ****         break;
 454:Drivers/STM32G4xx_HAL_Driver/Src/stm32g4xx_hal_pcd.c **** 
 455:Drivers/STM32G4xx_HAL_Driver/Src/stm32g4xx_hal_pcd.c ****       default :
 456:Drivers/STM32G4xx_HAL_Driver/Src/stm32g4xx_hal_pcd.c ****         /* Update the error code */
 457:Drivers/STM32G4xx_HAL_Driver/Src/stm32g4xx_hal_pcd.c ****         hpcd->ErrorCode |= HAL_PCD_ERROR_INVALID_CALLBACK;
 458:Drivers/STM32G4xx_HAL_Driver/Src/stm32g4xx_hal_pcd.c **** 
 459:Drivers/STM32G4xx_HAL_Driver/Src/stm32g4xx_hal_pcd.c ****         /* Return error status */
 460:Drivers/STM32G4xx_HAL_Driver/Src/stm32g4xx_hal_pcd.c ****         status =  HAL_ERROR;
 461:Drivers/STM32G4xx_HAL_Driver/Src/stm32g4xx_hal_pcd.c ****         break;
 462:Drivers/STM32G4xx_HAL_Driver/Src/stm32g4xx_hal_pcd.c ****     }
 463:Drivers/STM32G4xx_HAL_Driver/Src/stm32g4xx_hal_pcd.c ****   }
 464:Drivers/STM32G4xx_HAL_Driver/Src/stm32g4xx_hal_pcd.c ****   else if (hpcd->State == HAL_PCD_STATE_RESET)
 465:Drivers/STM32G4xx_HAL_Driver/Src/stm32g4xx_hal_pcd.c ****   {
 466:Drivers/STM32G4xx_HAL_Driver/Src/stm32g4xx_hal_pcd.c ****     switch (CallbackID)
 467:Drivers/STM32G4xx_HAL_Driver/Src/stm32g4xx_hal_pcd.c ****     {
 468:Drivers/STM32G4xx_HAL_Driver/Src/stm32g4xx_hal_pcd.c ****       case HAL_PCD_MSPINIT_CB_ID :
 469:Drivers/STM32G4xx_HAL_Driver/Src/stm32g4xx_hal_pcd.c ****         hpcd->MspInitCallback = HAL_PCD_MspInit;
 470:Drivers/STM32G4xx_HAL_Driver/Src/stm32g4xx_hal_pcd.c ****         break;
 471:Drivers/STM32G4xx_HAL_Driver/Src/stm32g4xx_hal_pcd.c **** 
 472:Drivers/STM32G4xx_HAL_Driver/Src/stm32g4xx_hal_pcd.c ****       case HAL_PCD_MSPDEINIT_CB_ID :
 473:Drivers/STM32G4xx_HAL_Driver/Src/stm32g4xx_hal_pcd.c ****         hpcd->MspDeInitCallback = HAL_PCD_MspDeInit;
 474:Drivers/STM32G4xx_HAL_Driver/Src/stm32g4xx_hal_pcd.c ****         break;
 475:Drivers/STM32G4xx_HAL_Driver/Src/stm32g4xx_hal_pcd.c **** 
 476:Drivers/STM32G4xx_HAL_Driver/Src/stm32g4xx_hal_pcd.c ****       default :
 477:Drivers/STM32G4xx_HAL_Driver/Src/stm32g4xx_hal_pcd.c ****         /* Update the error code */
 478:Drivers/STM32G4xx_HAL_Driver/Src/stm32g4xx_hal_pcd.c ****         hpcd->ErrorCode |= HAL_PCD_ERROR_INVALID_CALLBACK;
 479:Drivers/STM32G4xx_HAL_Driver/Src/stm32g4xx_hal_pcd.c **** 
 480:Drivers/STM32G4xx_HAL_Driver/Src/stm32g4xx_hal_pcd.c ****         /* Return error status */
 481:Drivers/STM32G4xx_HAL_Driver/Src/stm32g4xx_hal_pcd.c ****         status =  HAL_ERROR;
 482:Drivers/STM32G4xx_HAL_Driver/Src/stm32g4xx_hal_pcd.c ****         break;
 483:Drivers/STM32G4xx_HAL_Driver/Src/stm32g4xx_hal_pcd.c ****     }
 484:Drivers/STM32G4xx_HAL_Driver/Src/stm32g4xx_hal_pcd.c ****   }
 485:Drivers/STM32G4xx_HAL_Driver/Src/stm32g4xx_hal_pcd.c ****   else
 486:Drivers/STM32G4xx_HAL_Driver/Src/stm32g4xx_hal_pcd.c ****   {
 487:Drivers/STM32G4xx_HAL_Driver/Src/stm32g4xx_hal_pcd.c ****     /* Update the error code */
 488:Drivers/STM32G4xx_HAL_Driver/Src/stm32g4xx_hal_pcd.c ****     hpcd->ErrorCode |= HAL_PCD_ERROR_INVALID_CALLBACK;
 489:Drivers/STM32G4xx_HAL_Driver/Src/stm32g4xx_hal_pcd.c **** 
 490:Drivers/STM32G4xx_HAL_Driver/Src/stm32g4xx_hal_pcd.c ****     /* Return error status */
 491:Drivers/STM32G4xx_HAL_Driver/Src/stm32g4xx_hal_pcd.c ****     status =  HAL_ERROR;
 492:Drivers/STM32G4xx_HAL_Driver/Src/stm32g4xx_hal_pcd.c ****   }
 493:Drivers/STM32G4xx_HAL_Driver/Src/stm32g4xx_hal_pcd.c **** 
 494:Drivers/STM32G4xx_HAL_Driver/Src/stm32g4xx_hal_pcd.c ****   /* Release Lock */
 495:Drivers/STM32G4xx_HAL_Driver/Src/stm32g4xx_hal_pcd.c ****   __HAL_UNLOCK(hpcd);
 496:Drivers/STM32G4xx_HAL_Driver/Src/stm32g4xx_hal_pcd.c ****   return status;
 497:Drivers/STM32G4xx_HAL_Driver/Src/stm32g4xx_hal_pcd.c **** }
 498:Drivers/STM32G4xx_HAL_Driver/Src/stm32g4xx_hal_pcd.c **** 
 499:Drivers/STM32G4xx_HAL_Driver/Src/stm32g4xx_hal_pcd.c **** /**
 500:Drivers/STM32G4xx_HAL_Driver/Src/stm32g4xx_hal_pcd.c ****   * @brief  Register USB PCD Data OUT Stage Callback
 501:Drivers/STM32G4xx_HAL_Driver/Src/stm32g4xx_hal_pcd.c ****   *         To be used instead of the weak HAL_PCD_DataOutStageCallback() predefined callback
 502:Drivers/STM32G4xx_HAL_Driver/Src/stm32g4xx_hal_pcd.c ****   * @param  hpcd PCD handle
 503:Drivers/STM32G4xx_HAL_Driver/Src/stm32g4xx_hal_pcd.c ****   * @param  pCallback pointer to the USB PCD Data OUT Stage Callback function
 504:Drivers/STM32G4xx_HAL_Driver/Src/stm32g4xx_hal_pcd.c ****   * @retval HAL status
 505:Drivers/STM32G4xx_HAL_Driver/Src/stm32g4xx_hal_pcd.c ****   */
 506:Drivers/STM32G4xx_HAL_Driver/Src/stm32g4xx_hal_pcd.c **** HAL_StatusTypeDef HAL_PCD_RegisterDataOutStageCallback(PCD_HandleTypeDef *hpcd, pPCD_DataOutStageCa
 507:Drivers/STM32G4xx_HAL_Driver/Src/stm32g4xx_hal_pcd.c **** {
 508:Drivers/STM32G4xx_HAL_Driver/Src/stm32g4xx_hal_pcd.c ****   HAL_StatusTypeDef status = HAL_OK;
 509:Drivers/STM32G4xx_HAL_Driver/Src/stm32g4xx_hal_pcd.c **** 
ARM GAS  /tmp/cclKjP2I.s 			page 16


 510:Drivers/STM32G4xx_HAL_Driver/Src/stm32g4xx_hal_pcd.c ****   if (pCallback == NULL)
 511:Drivers/STM32G4xx_HAL_Driver/Src/stm32g4xx_hal_pcd.c ****   {
 512:Drivers/STM32G4xx_HAL_Driver/Src/stm32g4xx_hal_pcd.c ****     /* Update the error code */
 513:Drivers/STM32G4xx_HAL_Driver/Src/stm32g4xx_hal_pcd.c ****     hpcd->ErrorCode |= HAL_PCD_ERROR_INVALID_CALLBACK;
 514:Drivers/STM32G4xx_HAL_Driver/Src/stm32g4xx_hal_pcd.c **** 
 515:Drivers/STM32G4xx_HAL_Driver/Src/stm32g4xx_hal_pcd.c ****     return HAL_ERROR;
 516:Drivers/STM32G4xx_HAL_Driver/Src/stm32g4xx_hal_pcd.c ****   }
 517:Drivers/STM32G4xx_HAL_Driver/Src/stm32g4xx_hal_pcd.c **** 
 518:Drivers/STM32G4xx_HAL_Driver/Src/stm32g4xx_hal_pcd.c ****   /* Process locked */
 519:Drivers/STM32G4xx_HAL_Driver/Src/stm32g4xx_hal_pcd.c ****   __HAL_LOCK(hpcd);
 520:Drivers/STM32G4xx_HAL_Driver/Src/stm32g4xx_hal_pcd.c **** 
 521:Drivers/STM32G4xx_HAL_Driver/Src/stm32g4xx_hal_pcd.c ****   if (hpcd->State == HAL_PCD_STATE_READY)
 522:Drivers/STM32G4xx_HAL_Driver/Src/stm32g4xx_hal_pcd.c ****   {
 523:Drivers/STM32G4xx_HAL_Driver/Src/stm32g4xx_hal_pcd.c ****     hpcd->DataOutStageCallback = pCallback;
 524:Drivers/STM32G4xx_HAL_Driver/Src/stm32g4xx_hal_pcd.c ****   }
 525:Drivers/STM32G4xx_HAL_Driver/Src/stm32g4xx_hal_pcd.c ****   else
 526:Drivers/STM32G4xx_HAL_Driver/Src/stm32g4xx_hal_pcd.c ****   {
 527:Drivers/STM32G4xx_HAL_Driver/Src/stm32g4xx_hal_pcd.c ****     /* Update the error code */
 528:Drivers/STM32G4xx_HAL_Driver/Src/stm32g4xx_hal_pcd.c ****     hpcd->ErrorCode |= HAL_PCD_ERROR_INVALID_CALLBACK;
 529:Drivers/STM32G4xx_HAL_Driver/Src/stm32g4xx_hal_pcd.c **** 
 530:Drivers/STM32G4xx_HAL_Driver/Src/stm32g4xx_hal_pcd.c ****     /* Return error status */
 531:Drivers/STM32G4xx_HAL_Driver/Src/stm32g4xx_hal_pcd.c ****     status =  HAL_ERROR;
 532:Drivers/STM32G4xx_HAL_Driver/Src/stm32g4xx_hal_pcd.c ****   }
 533:Drivers/STM32G4xx_HAL_Driver/Src/stm32g4xx_hal_pcd.c **** 
 534:Drivers/STM32G4xx_HAL_Driver/Src/stm32g4xx_hal_pcd.c ****   /* Release Lock */
 535:Drivers/STM32G4xx_HAL_Driver/Src/stm32g4xx_hal_pcd.c ****   __HAL_UNLOCK(hpcd);
 536:Drivers/STM32G4xx_HAL_Driver/Src/stm32g4xx_hal_pcd.c **** 
 537:Drivers/STM32G4xx_HAL_Driver/Src/stm32g4xx_hal_pcd.c ****   return status;
 538:Drivers/STM32G4xx_HAL_Driver/Src/stm32g4xx_hal_pcd.c **** }
 539:Drivers/STM32G4xx_HAL_Driver/Src/stm32g4xx_hal_pcd.c **** 
 540:Drivers/STM32G4xx_HAL_Driver/Src/stm32g4xx_hal_pcd.c **** /**
 541:Drivers/STM32G4xx_HAL_Driver/Src/stm32g4xx_hal_pcd.c ****   * @brief  UnRegister the USB PCD Data OUT Stage Callback
 542:Drivers/STM32G4xx_HAL_Driver/Src/stm32g4xx_hal_pcd.c ****   *         USB PCD Data OUT Stage Callback is redirected to the weak HAL_PCD_DataOutStageCallback(
 543:Drivers/STM32G4xx_HAL_Driver/Src/stm32g4xx_hal_pcd.c ****   * @param  hpcd PCD handle
 544:Drivers/STM32G4xx_HAL_Driver/Src/stm32g4xx_hal_pcd.c ****   * @retval HAL status
 545:Drivers/STM32G4xx_HAL_Driver/Src/stm32g4xx_hal_pcd.c ****   */
 546:Drivers/STM32G4xx_HAL_Driver/Src/stm32g4xx_hal_pcd.c **** HAL_StatusTypeDef HAL_PCD_UnRegisterDataOutStageCallback(PCD_HandleTypeDef *hpcd)
 547:Drivers/STM32G4xx_HAL_Driver/Src/stm32g4xx_hal_pcd.c **** {
 548:Drivers/STM32G4xx_HAL_Driver/Src/stm32g4xx_hal_pcd.c ****   HAL_StatusTypeDef status = HAL_OK;
 549:Drivers/STM32G4xx_HAL_Driver/Src/stm32g4xx_hal_pcd.c **** 
 550:Drivers/STM32G4xx_HAL_Driver/Src/stm32g4xx_hal_pcd.c ****   /* Process locked */
 551:Drivers/STM32G4xx_HAL_Driver/Src/stm32g4xx_hal_pcd.c ****   __HAL_LOCK(hpcd);
 552:Drivers/STM32G4xx_HAL_Driver/Src/stm32g4xx_hal_pcd.c **** 
 553:Drivers/STM32G4xx_HAL_Driver/Src/stm32g4xx_hal_pcd.c ****   if (hpcd->State == HAL_PCD_STATE_READY)
 554:Drivers/STM32G4xx_HAL_Driver/Src/stm32g4xx_hal_pcd.c ****   {
 555:Drivers/STM32G4xx_HAL_Driver/Src/stm32g4xx_hal_pcd.c ****     hpcd->DataOutStageCallback = HAL_PCD_DataOutStageCallback; /* Legacy weak DataOutStageCallback 
 556:Drivers/STM32G4xx_HAL_Driver/Src/stm32g4xx_hal_pcd.c ****   }
 557:Drivers/STM32G4xx_HAL_Driver/Src/stm32g4xx_hal_pcd.c ****   else
 558:Drivers/STM32G4xx_HAL_Driver/Src/stm32g4xx_hal_pcd.c ****   {
 559:Drivers/STM32G4xx_HAL_Driver/Src/stm32g4xx_hal_pcd.c ****     /* Update the error code */
 560:Drivers/STM32G4xx_HAL_Driver/Src/stm32g4xx_hal_pcd.c ****     hpcd->ErrorCode |= HAL_PCD_ERROR_INVALID_CALLBACK;
 561:Drivers/STM32G4xx_HAL_Driver/Src/stm32g4xx_hal_pcd.c **** 
 562:Drivers/STM32G4xx_HAL_Driver/Src/stm32g4xx_hal_pcd.c ****     /* Return error status */
 563:Drivers/STM32G4xx_HAL_Driver/Src/stm32g4xx_hal_pcd.c ****     status =  HAL_ERROR;
 564:Drivers/STM32G4xx_HAL_Driver/Src/stm32g4xx_hal_pcd.c ****   }
 565:Drivers/STM32G4xx_HAL_Driver/Src/stm32g4xx_hal_pcd.c **** 
 566:Drivers/STM32G4xx_HAL_Driver/Src/stm32g4xx_hal_pcd.c ****   /* Release Lock */
ARM GAS  /tmp/cclKjP2I.s 			page 17


 567:Drivers/STM32G4xx_HAL_Driver/Src/stm32g4xx_hal_pcd.c ****   __HAL_UNLOCK(hpcd);
 568:Drivers/STM32G4xx_HAL_Driver/Src/stm32g4xx_hal_pcd.c **** 
 569:Drivers/STM32G4xx_HAL_Driver/Src/stm32g4xx_hal_pcd.c ****   return status;
 570:Drivers/STM32G4xx_HAL_Driver/Src/stm32g4xx_hal_pcd.c **** }
 571:Drivers/STM32G4xx_HAL_Driver/Src/stm32g4xx_hal_pcd.c **** 
 572:Drivers/STM32G4xx_HAL_Driver/Src/stm32g4xx_hal_pcd.c **** /**
 573:Drivers/STM32G4xx_HAL_Driver/Src/stm32g4xx_hal_pcd.c ****   * @brief  Register USB PCD Data IN Stage Callback
 574:Drivers/STM32G4xx_HAL_Driver/Src/stm32g4xx_hal_pcd.c ****   *         To be used instead of the weak HAL_PCD_DataInStageCallback() predefined callback
 575:Drivers/STM32G4xx_HAL_Driver/Src/stm32g4xx_hal_pcd.c ****   * @param  hpcd PCD handle
 576:Drivers/STM32G4xx_HAL_Driver/Src/stm32g4xx_hal_pcd.c ****   * @param  pCallback pointer to the USB PCD Data IN Stage Callback function
 577:Drivers/STM32G4xx_HAL_Driver/Src/stm32g4xx_hal_pcd.c ****   * @retval HAL status
 578:Drivers/STM32G4xx_HAL_Driver/Src/stm32g4xx_hal_pcd.c ****   */
 579:Drivers/STM32G4xx_HAL_Driver/Src/stm32g4xx_hal_pcd.c **** HAL_StatusTypeDef HAL_PCD_RegisterDataInStageCallback(PCD_HandleTypeDef *hpcd, pPCD_DataInStageCall
 580:Drivers/STM32G4xx_HAL_Driver/Src/stm32g4xx_hal_pcd.c **** {
 581:Drivers/STM32G4xx_HAL_Driver/Src/stm32g4xx_hal_pcd.c ****   HAL_StatusTypeDef status = HAL_OK;
 582:Drivers/STM32G4xx_HAL_Driver/Src/stm32g4xx_hal_pcd.c **** 
 583:Drivers/STM32G4xx_HAL_Driver/Src/stm32g4xx_hal_pcd.c ****   if (pCallback == NULL)
 584:Drivers/STM32G4xx_HAL_Driver/Src/stm32g4xx_hal_pcd.c ****   {
 585:Drivers/STM32G4xx_HAL_Driver/Src/stm32g4xx_hal_pcd.c ****     /* Update the error code */
 586:Drivers/STM32G4xx_HAL_Driver/Src/stm32g4xx_hal_pcd.c ****     hpcd->ErrorCode |= HAL_PCD_ERROR_INVALID_CALLBACK;
 587:Drivers/STM32G4xx_HAL_Driver/Src/stm32g4xx_hal_pcd.c **** 
 588:Drivers/STM32G4xx_HAL_Driver/Src/stm32g4xx_hal_pcd.c ****     return HAL_ERROR;
 589:Drivers/STM32G4xx_HAL_Driver/Src/stm32g4xx_hal_pcd.c ****   }
 590:Drivers/STM32G4xx_HAL_Driver/Src/stm32g4xx_hal_pcd.c **** 
 591:Drivers/STM32G4xx_HAL_Driver/Src/stm32g4xx_hal_pcd.c ****   /* Process locked */
 592:Drivers/STM32G4xx_HAL_Driver/Src/stm32g4xx_hal_pcd.c ****   __HAL_LOCK(hpcd);
 593:Drivers/STM32G4xx_HAL_Driver/Src/stm32g4xx_hal_pcd.c **** 
 594:Drivers/STM32G4xx_HAL_Driver/Src/stm32g4xx_hal_pcd.c ****   if (hpcd->State == HAL_PCD_STATE_READY)
 595:Drivers/STM32G4xx_HAL_Driver/Src/stm32g4xx_hal_pcd.c ****   {
 596:Drivers/STM32G4xx_HAL_Driver/Src/stm32g4xx_hal_pcd.c ****     hpcd->DataInStageCallback = pCallback;
 597:Drivers/STM32G4xx_HAL_Driver/Src/stm32g4xx_hal_pcd.c ****   }
 598:Drivers/STM32G4xx_HAL_Driver/Src/stm32g4xx_hal_pcd.c ****   else
 599:Drivers/STM32G4xx_HAL_Driver/Src/stm32g4xx_hal_pcd.c ****   {
 600:Drivers/STM32G4xx_HAL_Driver/Src/stm32g4xx_hal_pcd.c ****     /* Update the error code */
 601:Drivers/STM32G4xx_HAL_Driver/Src/stm32g4xx_hal_pcd.c ****     hpcd->ErrorCode |= HAL_PCD_ERROR_INVALID_CALLBACK;
 602:Drivers/STM32G4xx_HAL_Driver/Src/stm32g4xx_hal_pcd.c **** 
 603:Drivers/STM32G4xx_HAL_Driver/Src/stm32g4xx_hal_pcd.c ****     /* Return error status */
 604:Drivers/STM32G4xx_HAL_Driver/Src/stm32g4xx_hal_pcd.c ****     status =  HAL_ERROR;
 605:Drivers/STM32G4xx_HAL_Driver/Src/stm32g4xx_hal_pcd.c ****   }
 606:Drivers/STM32G4xx_HAL_Driver/Src/stm32g4xx_hal_pcd.c **** 
 607:Drivers/STM32G4xx_HAL_Driver/Src/stm32g4xx_hal_pcd.c ****   /* Release Lock */
 608:Drivers/STM32G4xx_HAL_Driver/Src/stm32g4xx_hal_pcd.c ****   __HAL_UNLOCK(hpcd);
 609:Drivers/STM32G4xx_HAL_Driver/Src/stm32g4xx_hal_pcd.c **** 
 610:Drivers/STM32G4xx_HAL_Driver/Src/stm32g4xx_hal_pcd.c ****   return status;
 611:Drivers/STM32G4xx_HAL_Driver/Src/stm32g4xx_hal_pcd.c **** }
 612:Drivers/STM32G4xx_HAL_Driver/Src/stm32g4xx_hal_pcd.c **** 
 613:Drivers/STM32G4xx_HAL_Driver/Src/stm32g4xx_hal_pcd.c **** /**
 614:Drivers/STM32G4xx_HAL_Driver/Src/stm32g4xx_hal_pcd.c ****   * @brief  UnRegister the USB PCD Data IN Stage Callback
 615:Drivers/STM32G4xx_HAL_Driver/Src/stm32g4xx_hal_pcd.c ****   *         USB PCD Data OUT Stage Callback is redirected to the weak HAL_PCD_DataInStageCallback()
 616:Drivers/STM32G4xx_HAL_Driver/Src/stm32g4xx_hal_pcd.c ****   * @param  hpcd PCD handle
 617:Drivers/STM32G4xx_HAL_Driver/Src/stm32g4xx_hal_pcd.c ****   * @retval HAL status
 618:Drivers/STM32G4xx_HAL_Driver/Src/stm32g4xx_hal_pcd.c ****   */
 619:Drivers/STM32G4xx_HAL_Driver/Src/stm32g4xx_hal_pcd.c **** HAL_StatusTypeDef HAL_PCD_UnRegisterDataInStageCallback(PCD_HandleTypeDef *hpcd)
 620:Drivers/STM32G4xx_HAL_Driver/Src/stm32g4xx_hal_pcd.c **** {
 621:Drivers/STM32G4xx_HAL_Driver/Src/stm32g4xx_hal_pcd.c ****   HAL_StatusTypeDef status = HAL_OK;
 622:Drivers/STM32G4xx_HAL_Driver/Src/stm32g4xx_hal_pcd.c **** 
 623:Drivers/STM32G4xx_HAL_Driver/Src/stm32g4xx_hal_pcd.c ****   /* Process locked */
ARM GAS  /tmp/cclKjP2I.s 			page 18


 624:Drivers/STM32G4xx_HAL_Driver/Src/stm32g4xx_hal_pcd.c ****   __HAL_LOCK(hpcd);
 625:Drivers/STM32G4xx_HAL_Driver/Src/stm32g4xx_hal_pcd.c **** 
 626:Drivers/STM32G4xx_HAL_Driver/Src/stm32g4xx_hal_pcd.c ****   if (hpcd->State == HAL_PCD_STATE_READY)
 627:Drivers/STM32G4xx_HAL_Driver/Src/stm32g4xx_hal_pcd.c ****   {
 628:Drivers/STM32G4xx_HAL_Driver/Src/stm32g4xx_hal_pcd.c ****     hpcd->DataInStageCallback = HAL_PCD_DataInStageCallback; /* Legacy weak DataInStageCallback  */
 629:Drivers/STM32G4xx_HAL_Driver/Src/stm32g4xx_hal_pcd.c ****   }
 630:Drivers/STM32G4xx_HAL_Driver/Src/stm32g4xx_hal_pcd.c ****   else
 631:Drivers/STM32G4xx_HAL_Driver/Src/stm32g4xx_hal_pcd.c ****   {
 632:Drivers/STM32G4xx_HAL_Driver/Src/stm32g4xx_hal_pcd.c ****     /* Update the error code */
 633:Drivers/STM32G4xx_HAL_Driver/Src/stm32g4xx_hal_pcd.c ****     hpcd->ErrorCode |= HAL_PCD_ERROR_INVALID_CALLBACK;
 634:Drivers/STM32G4xx_HAL_Driver/Src/stm32g4xx_hal_pcd.c **** 
 635:Drivers/STM32G4xx_HAL_Driver/Src/stm32g4xx_hal_pcd.c ****     /* Return error status */
 636:Drivers/STM32G4xx_HAL_Driver/Src/stm32g4xx_hal_pcd.c ****     status =  HAL_ERROR;
 637:Drivers/STM32G4xx_HAL_Driver/Src/stm32g4xx_hal_pcd.c ****   }
 638:Drivers/STM32G4xx_HAL_Driver/Src/stm32g4xx_hal_pcd.c **** 
 639:Drivers/STM32G4xx_HAL_Driver/Src/stm32g4xx_hal_pcd.c ****   /* Release Lock */
 640:Drivers/STM32G4xx_HAL_Driver/Src/stm32g4xx_hal_pcd.c ****   __HAL_UNLOCK(hpcd);
 641:Drivers/STM32G4xx_HAL_Driver/Src/stm32g4xx_hal_pcd.c **** 
 642:Drivers/STM32G4xx_HAL_Driver/Src/stm32g4xx_hal_pcd.c ****   return status;
 643:Drivers/STM32G4xx_HAL_Driver/Src/stm32g4xx_hal_pcd.c **** }
 644:Drivers/STM32G4xx_HAL_Driver/Src/stm32g4xx_hal_pcd.c **** 
 645:Drivers/STM32G4xx_HAL_Driver/Src/stm32g4xx_hal_pcd.c **** /**
 646:Drivers/STM32G4xx_HAL_Driver/Src/stm32g4xx_hal_pcd.c ****   * @brief  Register USB PCD Iso OUT incomplete Callback
 647:Drivers/STM32G4xx_HAL_Driver/Src/stm32g4xx_hal_pcd.c ****   *         To be used instead of the weak HAL_PCD_ISOOUTIncompleteCallback() predefined callback
 648:Drivers/STM32G4xx_HAL_Driver/Src/stm32g4xx_hal_pcd.c ****   * @param  hpcd PCD handle
 649:Drivers/STM32G4xx_HAL_Driver/Src/stm32g4xx_hal_pcd.c ****   * @param  pCallback pointer to the USB PCD Iso OUT incomplete Callback function
 650:Drivers/STM32G4xx_HAL_Driver/Src/stm32g4xx_hal_pcd.c ****   * @retval HAL status
 651:Drivers/STM32G4xx_HAL_Driver/Src/stm32g4xx_hal_pcd.c ****   */
 652:Drivers/STM32G4xx_HAL_Driver/Src/stm32g4xx_hal_pcd.c **** HAL_StatusTypeDef HAL_PCD_RegisterIsoOutIncpltCallback(PCD_HandleTypeDef *hpcd, pPCD_IsoOutIncpltCa
 653:Drivers/STM32G4xx_HAL_Driver/Src/stm32g4xx_hal_pcd.c **** {
 654:Drivers/STM32G4xx_HAL_Driver/Src/stm32g4xx_hal_pcd.c ****   HAL_StatusTypeDef status = HAL_OK;
 655:Drivers/STM32G4xx_HAL_Driver/Src/stm32g4xx_hal_pcd.c **** 
 656:Drivers/STM32G4xx_HAL_Driver/Src/stm32g4xx_hal_pcd.c ****   if (pCallback == NULL)
 657:Drivers/STM32G4xx_HAL_Driver/Src/stm32g4xx_hal_pcd.c ****   {
 658:Drivers/STM32G4xx_HAL_Driver/Src/stm32g4xx_hal_pcd.c ****     /* Update the error code */
 659:Drivers/STM32G4xx_HAL_Driver/Src/stm32g4xx_hal_pcd.c ****     hpcd->ErrorCode |= HAL_PCD_ERROR_INVALID_CALLBACK;
 660:Drivers/STM32G4xx_HAL_Driver/Src/stm32g4xx_hal_pcd.c **** 
 661:Drivers/STM32G4xx_HAL_Driver/Src/stm32g4xx_hal_pcd.c ****     return HAL_ERROR;
 662:Drivers/STM32G4xx_HAL_Driver/Src/stm32g4xx_hal_pcd.c ****   }
 663:Drivers/STM32G4xx_HAL_Driver/Src/stm32g4xx_hal_pcd.c **** 
 664:Drivers/STM32G4xx_HAL_Driver/Src/stm32g4xx_hal_pcd.c ****   /* Process locked */
 665:Drivers/STM32G4xx_HAL_Driver/Src/stm32g4xx_hal_pcd.c ****   __HAL_LOCK(hpcd);
 666:Drivers/STM32G4xx_HAL_Driver/Src/stm32g4xx_hal_pcd.c **** 
 667:Drivers/STM32G4xx_HAL_Driver/Src/stm32g4xx_hal_pcd.c ****   if (hpcd->State == HAL_PCD_STATE_READY)
 668:Drivers/STM32G4xx_HAL_Driver/Src/stm32g4xx_hal_pcd.c ****   {
 669:Drivers/STM32G4xx_HAL_Driver/Src/stm32g4xx_hal_pcd.c ****     hpcd->ISOOUTIncompleteCallback = pCallback;
 670:Drivers/STM32G4xx_HAL_Driver/Src/stm32g4xx_hal_pcd.c ****   }
 671:Drivers/STM32G4xx_HAL_Driver/Src/stm32g4xx_hal_pcd.c ****   else
 672:Drivers/STM32G4xx_HAL_Driver/Src/stm32g4xx_hal_pcd.c ****   {
 673:Drivers/STM32G4xx_HAL_Driver/Src/stm32g4xx_hal_pcd.c ****     /* Update the error code */
 674:Drivers/STM32G4xx_HAL_Driver/Src/stm32g4xx_hal_pcd.c ****     hpcd->ErrorCode |= HAL_PCD_ERROR_INVALID_CALLBACK;
 675:Drivers/STM32G4xx_HAL_Driver/Src/stm32g4xx_hal_pcd.c **** 
 676:Drivers/STM32G4xx_HAL_Driver/Src/stm32g4xx_hal_pcd.c ****     /* Return error status */
 677:Drivers/STM32G4xx_HAL_Driver/Src/stm32g4xx_hal_pcd.c ****     status =  HAL_ERROR;
 678:Drivers/STM32G4xx_HAL_Driver/Src/stm32g4xx_hal_pcd.c ****   }
 679:Drivers/STM32G4xx_HAL_Driver/Src/stm32g4xx_hal_pcd.c **** 
 680:Drivers/STM32G4xx_HAL_Driver/Src/stm32g4xx_hal_pcd.c ****   /* Release Lock */
ARM GAS  /tmp/cclKjP2I.s 			page 19


 681:Drivers/STM32G4xx_HAL_Driver/Src/stm32g4xx_hal_pcd.c ****   __HAL_UNLOCK(hpcd);
 682:Drivers/STM32G4xx_HAL_Driver/Src/stm32g4xx_hal_pcd.c **** 
 683:Drivers/STM32G4xx_HAL_Driver/Src/stm32g4xx_hal_pcd.c ****   return status;
 684:Drivers/STM32G4xx_HAL_Driver/Src/stm32g4xx_hal_pcd.c **** }
 685:Drivers/STM32G4xx_HAL_Driver/Src/stm32g4xx_hal_pcd.c **** 
 686:Drivers/STM32G4xx_HAL_Driver/Src/stm32g4xx_hal_pcd.c **** /**
 687:Drivers/STM32G4xx_HAL_Driver/Src/stm32g4xx_hal_pcd.c ****   * @brief  UnRegister the USB PCD Iso OUT incomplete Callback
 688:Drivers/STM32G4xx_HAL_Driver/Src/stm32g4xx_hal_pcd.c ****   *         USB PCD Iso OUT incomplete Callback is redirected to the weak HAL_PCD_ISOOUTIncompleteC
 689:Drivers/STM32G4xx_HAL_Driver/Src/stm32g4xx_hal_pcd.c ****   * @param  hpcd PCD handle
 690:Drivers/STM32G4xx_HAL_Driver/Src/stm32g4xx_hal_pcd.c ****   * @retval HAL status
 691:Drivers/STM32G4xx_HAL_Driver/Src/stm32g4xx_hal_pcd.c ****   */
 692:Drivers/STM32G4xx_HAL_Driver/Src/stm32g4xx_hal_pcd.c **** HAL_StatusTypeDef HAL_PCD_UnRegisterIsoOutIncpltCallback(PCD_HandleTypeDef *hpcd)
 693:Drivers/STM32G4xx_HAL_Driver/Src/stm32g4xx_hal_pcd.c **** {
 694:Drivers/STM32G4xx_HAL_Driver/Src/stm32g4xx_hal_pcd.c ****   HAL_StatusTypeDef status = HAL_OK;
 695:Drivers/STM32G4xx_HAL_Driver/Src/stm32g4xx_hal_pcd.c **** 
 696:Drivers/STM32G4xx_HAL_Driver/Src/stm32g4xx_hal_pcd.c ****   /* Process locked */
 697:Drivers/STM32G4xx_HAL_Driver/Src/stm32g4xx_hal_pcd.c ****   __HAL_LOCK(hpcd);
 698:Drivers/STM32G4xx_HAL_Driver/Src/stm32g4xx_hal_pcd.c **** 
 699:Drivers/STM32G4xx_HAL_Driver/Src/stm32g4xx_hal_pcd.c ****   if (hpcd->State == HAL_PCD_STATE_READY)
 700:Drivers/STM32G4xx_HAL_Driver/Src/stm32g4xx_hal_pcd.c ****   {
 701:Drivers/STM32G4xx_HAL_Driver/Src/stm32g4xx_hal_pcd.c ****     hpcd->ISOOUTIncompleteCallback = HAL_PCD_ISOOUTIncompleteCallback; /* Legacy weak ISOOUTIncompl
 702:Drivers/STM32G4xx_HAL_Driver/Src/stm32g4xx_hal_pcd.c ****   }
 703:Drivers/STM32G4xx_HAL_Driver/Src/stm32g4xx_hal_pcd.c ****   else
 704:Drivers/STM32G4xx_HAL_Driver/Src/stm32g4xx_hal_pcd.c ****   {
 705:Drivers/STM32G4xx_HAL_Driver/Src/stm32g4xx_hal_pcd.c ****     /* Update the error code */
 706:Drivers/STM32G4xx_HAL_Driver/Src/stm32g4xx_hal_pcd.c ****     hpcd->ErrorCode |= HAL_PCD_ERROR_INVALID_CALLBACK;
 707:Drivers/STM32G4xx_HAL_Driver/Src/stm32g4xx_hal_pcd.c **** 
 708:Drivers/STM32G4xx_HAL_Driver/Src/stm32g4xx_hal_pcd.c ****     /* Return error status */
 709:Drivers/STM32G4xx_HAL_Driver/Src/stm32g4xx_hal_pcd.c ****     status =  HAL_ERROR;
 710:Drivers/STM32G4xx_HAL_Driver/Src/stm32g4xx_hal_pcd.c ****   }
 711:Drivers/STM32G4xx_HAL_Driver/Src/stm32g4xx_hal_pcd.c **** 
 712:Drivers/STM32G4xx_HAL_Driver/Src/stm32g4xx_hal_pcd.c ****   /* Release Lock */
 713:Drivers/STM32G4xx_HAL_Driver/Src/stm32g4xx_hal_pcd.c ****   __HAL_UNLOCK(hpcd);
 714:Drivers/STM32G4xx_HAL_Driver/Src/stm32g4xx_hal_pcd.c **** 
 715:Drivers/STM32G4xx_HAL_Driver/Src/stm32g4xx_hal_pcd.c ****   return status;
 716:Drivers/STM32G4xx_HAL_Driver/Src/stm32g4xx_hal_pcd.c **** }
 717:Drivers/STM32G4xx_HAL_Driver/Src/stm32g4xx_hal_pcd.c **** 
 718:Drivers/STM32G4xx_HAL_Driver/Src/stm32g4xx_hal_pcd.c **** /**
 719:Drivers/STM32G4xx_HAL_Driver/Src/stm32g4xx_hal_pcd.c ****   * @brief  Register USB PCD Iso IN incomplete Callback
 720:Drivers/STM32G4xx_HAL_Driver/Src/stm32g4xx_hal_pcd.c ****   *         To be used instead of the weak HAL_PCD_ISOINIncompleteCallback() predefined callback
 721:Drivers/STM32G4xx_HAL_Driver/Src/stm32g4xx_hal_pcd.c ****   * @param  hpcd PCD handle
 722:Drivers/STM32G4xx_HAL_Driver/Src/stm32g4xx_hal_pcd.c ****   * @param  pCallback pointer to the USB PCD Iso IN incomplete Callback function
 723:Drivers/STM32G4xx_HAL_Driver/Src/stm32g4xx_hal_pcd.c ****   * @retval HAL status
 724:Drivers/STM32G4xx_HAL_Driver/Src/stm32g4xx_hal_pcd.c ****   */
 725:Drivers/STM32G4xx_HAL_Driver/Src/stm32g4xx_hal_pcd.c **** HAL_StatusTypeDef HAL_PCD_RegisterIsoInIncpltCallback(PCD_HandleTypeDef *hpcd, pPCD_IsoInIncpltCall
 726:Drivers/STM32G4xx_HAL_Driver/Src/stm32g4xx_hal_pcd.c **** {
 727:Drivers/STM32G4xx_HAL_Driver/Src/stm32g4xx_hal_pcd.c ****   HAL_StatusTypeDef status = HAL_OK;
 728:Drivers/STM32G4xx_HAL_Driver/Src/stm32g4xx_hal_pcd.c **** 
 729:Drivers/STM32G4xx_HAL_Driver/Src/stm32g4xx_hal_pcd.c ****   if (pCallback == NULL)
 730:Drivers/STM32G4xx_HAL_Driver/Src/stm32g4xx_hal_pcd.c ****   {
 731:Drivers/STM32G4xx_HAL_Driver/Src/stm32g4xx_hal_pcd.c ****     /* Update the error code */
 732:Drivers/STM32G4xx_HAL_Driver/Src/stm32g4xx_hal_pcd.c ****     hpcd->ErrorCode |= HAL_PCD_ERROR_INVALID_CALLBACK;
 733:Drivers/STM32G4xx_HAL_Driver/Src/stm32g4xx_hal_pcd.c **** 
 734:Drivers/STM32G4xx_HAL_Driver/Src/stm32g4xx_hal_pcd.c ****     return HAL_ERROR;
 735:Drivers/STM32G4xx_HAL_Driver/Src/stm32g4xx_hal_pcd.c ****   }
 736:Drivers/STM32G4xx_HAL_Driver/Src/stm32g4xx_hal_pcd.c **** 
 737:Drivers/STM32G4xx_HAL_Driver/Src/stm32g4xx_hal_pcd.c ****   /* Process locked */
ARM GAS  /tmp/cclKjP2I.s 			page 20


 738:Drivers/STM32G4xx_HAL_Driver/Src/stm32g4xx_hal_pcd.c ****   __HAL_LOCK(hpcd);
 739:Drivers/STM32G4xx_HAL_Driver/Src/stm32g4xx_hal_pcd.c **** 
 740:Drivers/STM32G4xx_HAL_Driver/Src/stm32g4xx_hal_pcd.c ****   if (hpcd->State == HAL_PCD_STATE_READY)
 741:Drivers/STM32G4xx_HAL_Driver/Src/stm32g4xx_hal_pcd.c ****   {
 742:Drivers/STM32G4xx_HAL_Driver/Src/stm32g4xx_hal_pcd.c ****     hpcd->ISOINIncompleteCallback = pCallback;
 743:Drivers/STM32G4xx_HAL_Driver/Src/stm32g4xx_hal_pcd.c ****   }
 744:Drivers/STM32G4xx_HAL_Driver/Src/stm32g4xx_hal_pcd.c ****   else
 745:Drivers/STM32G4xx_HAL_Driver/Src/stm32g4xx_hal_pcd.c ****   {
 746:Drivers/STM32G4xx_HAL_Driver/Src/stm32g4xx_hal_pcd.c ****     /* Update the error code */
 747:Drivers/STM32G4xx_HAL_Driver/Src/stm32g4xx_hal_pcd.c ****     hpcd->ErrorCode |= HAL_PCD_ERROR_INVALID_CALLBACK;
 748:Drivers/STM32G4xx_HAL_Driver/Src/stm32g4xx_hal_pcd.c **** 
 749:Drivers/STM32G4xx_HAL_Driver/Src/stm32g4xx_hal_pcd.c ****     /* Return error status */
 750:Drivers/STM32G4xx_HAL_Driver/Src/stm32g4xx_hal_pcd.c ****     status =  HAL_ERROR;
 751:Drivers/STM32G4xx_HAL_Driver/Src/stm32g4xx_hal_pcd.c ****   }
 752:Drivers/STM32G4xx_HAL_Driver/Src/stm32g4xx_hal_pcd.c **** 
 753:Drivers/STM32G4xx_HAL_Driver/Src/stm32g4xx_hal_pcd.c ****   /* Release Lock */
 754:Drivers/STM32G4xx_HAL_Driver/Src/stm32g4xx_hal_pcd.c ****   __HAL_UNLOCK(hpcd);
 755:Drivers/STM32G4xx_HAL_Driver/Src/stm32g4xx_hal_pcd.c **** 
 756:Drivers/STM32G4xx_HAL_Driver/Src/stm32g4xx_hal_pcd.c ****   return status;
 757:Drivers/STM32G4xx_HAL_Driver/Src/stm32g4xx_hal_pcd.c **** }
 758:Drivers/STM32G4xx_HAL_Driver/Src/stm32g4xx_hal_pcd.c **** 
 759:Drivers/STM32G4xx_HAL_Driver/Src/stm32g4xx_hal_pcd.c **** /**
 760:Drivers/STM32G4xx_HAL_Driver/Src/stm32g4xx_hal_pcd.c ****   * @brief  UnRegister the USB PCD Iso IN incomplete Callback
 761:Drivers/STM32G4xx_HAL_Driver/Src/stm32g4xx_hal_pcd.c ****   *         USB PCD Iso IN incomplete Callback is redirected to the weak HAL_PCD_ISOINIncompleteCal
 762:Drivers/STM32G4xx_HAL_Driver/Src/stm32g4xx_hal_pcd.c ****   * @param  hpcd PCD handle
 763:Drivers/STM32G4xx_HAL_Driver/Src/stm32g4xx_hal_pcd.c ****   * @retval HAL status
 764:Drivers/STM32G4xx_HAL_Driver/Src/stm32g4xx_hal_pcd.c ****   */
 765:Drivers/STM32G4xx_HAL_Driver/Src/stm32g4xx_hal_pcd.c **** HAL_StatusTypeDef HAL_PCD_UnRegisterIsoInIncpltCallback(PCD_HandleTypeDef *hpcd)
 766:Drivers/STM32G4xx_HAL_Driver/Src/stm32g4xx_hal_pcd.c **** {
 767:Drivers/STM32G4xx_HAL_Driver/Src/stm32g4xx_hal_pcd.c ****   HAL_StatusTypeDef status = HAL_OK;
 768:Drivers/STM32G4xx_HAL_Driver/Src/stm32g4xx_hal_pcd.c **** 
 769:Drivers/STM32G4xx_HAL_Driver/Src/stm32g4xx_hal_pcd.c ****   /* Process locked */
 770:Drivers/STM32G4xx_HAL_Driver/Src/stm32g4xx_hal_pcd.c ****   __HAL_LOCK(hpcd);
 771:Drivers/STM32G4xx_HAL_Driver/Src/stm32g4xx_hal_pcd.c **** 
 772:Drivers/STM32G4xx_HAL_Driver/Src/stm32g4xx_hal_pcd.c ****   if (hpcd->State == HAL_PCD_STATE_READY)
 773:Drivers/STM32G4xx_HAL_Driver/Src/stm32g4xx_hal_pcd.c ****   {
 774:Drivers/STM32G4xx_HAL_Driver/Src/stm32g4xx_hal_pcd.c ****     hpcd->ISOINIncompleteCallback = HAL_PCD_ISOINIncompleteCallback; /* Legacy weak ISOINIncomplete
 775:Drivers/STM32G4xx_HAL_Driver/Src/stm32g4xx_hal_pcd.c ****   }
 776:Drivers/STM32G4xx_HAL_Driver/Src/stm32g4xx_hal_pcd.c ****   else
 777:Drivers/STM32G4xx_HAL_Driver/Src/stm32g4xx_hal_pcd.c ****   {
 778:Drivers/STM32G4xx_HAL_Driver/Src/stm32g4xx_hal_pcd.c ****     /* Update the error code */
 779:Drivers/STM32G4xx_HAL_Driver/Src/stm32g4xx_hal_pcd.c ****     hpcd->ErrorCode |= HAL_PCD_ERROR_INVALID_CALLBACK;
 780:Drivers/STM32G4xx_HAL_Driver/Src/stm32g4xx_hal_pcd.c **** 
 781:Drivers/STM32G4xx_HAL_Driver/Src/stm32g4xx_hal_pcd.c ****     /* Return error status */
 782:Drivers/STM32G4xx_HAL_Driver/Src/stm32g4xx_hal_pcd.c ****     status =  HAL_ERROR;
 783:Drivers/STM32G4xx_HAL_Driver/Src/stm32g4xx_hal_pcd.c ****   }
 784:Drivers/STM32G4xx_HAL_Driver/Src/stm32g4xx_hal_pcd.c **** 
 785:Drivers/STM32G4xx_HAL_Driver/Src/stm32g4xx_hal_pcd.c ****   /* Release Lock */
 786:Drivers/STM32G4xx_HAL_Driver/Src/stm32g4xx_hal_pcd.c ****   __HAL_UNLOCK(hpcd);
 787:Drivers/STM32G4xx_HAL_Driver/Src/stm32g4xx_hal_pcd.c **** 
 788:Drivers/STM32G4xx_HAL_Driver/Src/stm32g4xx_hal_pcd.c ****   return status;
 789:Drivers/STM32G4xx_HAL_Driver/Src/stm32g4xx_hal_pcd.c **** }
 790:Drivers/STM32G4xx_HAL_Driver/Src/stm32g4xx_hal_pcd.c **** 
 791:Drivers/STM32G4xx_HAL_Driver/Src/stm32g4xx_hal_pcd.c **** /**
 792:Drivers/STM32G4xx_HAL_Driver/Src/stm32g4xx_hal_pcd.c ****   * @brief  Register USB PCD BCD Callback
 793:Drivers/STM32G4xx_HAL_Driver/Src/stm32g4xx_hal_pcd.c ****   *         To be used instead of the weak HAL_PCDEx_BCD_Callback() predefined callback
 794:Drivers/STM32G4xx_HAL_Driver/Src/stm32g4xx_hal_pcd.c ****   * @param  hpcd PCD handle
ARM GAS  /tmp/cclKjP2I.s 			page 21


 795:Drivers/STM32G4xx_HAL_Driver/Src/stm32g4xx_hal_pcd.c ****   * @param  pCallback pointer to the USB PCD BCD Callback function
 796:Drivers/STM32G4xx_HAL_Driver/Src/stm32g4xx_hal_pcd.c ****   * @retval HAL status
 797:Drivers/STM32G4xx_HAL_Driver/Src/stm32g4xx_hal_pcd.c ****   */
 798:Drivers/STM32G4xx_HAL_Driver/Src/stm32g4xx_hal_pcd.c **** HAL_StatusTypeDef HAL_PCD_RegisterBcdCallback(PCD_HandleTypeDef *hpcd, pPCD_BcdCallbackTypeDef pCal
 799:Drivers/STM32G4xx_HAL_Driver/Src/stm32g4xx_hal_pcd.c **** {
 800:Drivers/STM32G4xx_HAL_Driver/Src/stm32g4xx_hal_pcd.c ****   HAL_StatusTypeDef status = HAL_OK;
 801:Drivers/STM32G4xx_HAL_Driver/Src/stm32g4xx_hal_pcd.c **** 
 802:Drivers/STM32G4xx_HAL_Driver/Src/stm32g4xx_hal_pcd.c ****   if (pCallback == NULL)
 803:Drivers/STM32G4xx_HAL_Driver/Src/stm32g4xx_hal_pcd.c ****   {
 804:Drivers/STM32G4xx_HAL_Driver/Src/stm32g4xx_hal_pcd.c ****     /* Update the error code */
 805:Drivers/STM32G4xx_HAL_Driver/Src/stm32g4xx_hal_pcd.c ****     hpcd->ErrorCode |= HAL_PCD_ERROR_INVALID_CALLBACK;
 806:Drivers/STM32G4xx_HAL_Driver/Src/stm32g4xx_hal_pcd.c **** 
 807:Drivers/STM32G4xx_HAL_Driver/Src/stm32g4xx_hal_pcd.c ****     return HAL_ERROR;
 808:Drivers/STM32G4xx_HAL_Driver/Src/stm32g4xx_hal_pcd.c ****   }
 809:Drivers/STM32G4xx_HAL_Driver/Src/stm32g4xx_hal_pcd.c **** 
 810:Drivers/STM32G4xx_HAL_Driver/Src/stm32g4xx_hal_pcd.c ****   /* Process locked */
 811:Drivers/STM32G4xx_HAL_Driver/Src/stm32g4xx_hal_pcd.c ****   __HAL_LOCK(hpcd);
 812:Drivers/STM32G4xx_HAL_Driver/Src/stm32g4xx_hal_pcd.c **** 
 813:Drivers/STM32G4xx_HAL_Driver/Src/stm32g4xx_hal_pcd.c ****   if (hpcd->State == HAL_PCD_STATE_READY)
 814:Drivers/STM32G4xx_HAL_Driver/Src/stm32g4xx_hal_pcd.c ****   {
 815:Drivers/STM32G4xx_HAL_Driver/Src/stm32g4xx_hal_pcd.c ****     hpcd->BCDCallback = pCallback;
 816:Drivers/STM32G4xx_HAL_Driver/Src/stm32g4xx_hal_pcd.c ****   }
 817:Drivers/STM32G4xx_HAL_Driver/Src/stm32g4xx_hal_pcd.c ****   else
 818:Drivers/STM32G4xx_HAL_Driver/Src/stm32g4xx_hal_pcd.c ****   {
 819:Drivers/STM32G4xx_HAL_Driver/Src/stm32g4xx_hal_pcd.c ****     /* Update the error code */
 820:Drivers/STM32G4xx_HAL_Driver/Src/stm32g4xx_hal_pcd.c ****     hpcd->ErrorCode |= HAL_PCD_ERROR_INVALID_CALLBACK;
 821:Drivers/STM32G4xx_HAL_Driver/Src/stm32g4xx_hal_pcd.c **** 
 822:Drivers/STM32G4xx_HAL_Driver/Src/stm32g4xx_hal_pcd.c ****     /* Return error status */
 823:Drivers/STM32G4xx_HAL_Driver/Src/stm32g4xx_hal_pcd.c ****     status =  HAL_ERROR;
 824:Drivers/STM32G4xx_HAL_Driver/Src/stm32g4xx_hal_pcd.c ****   }
 825:Drivers/STM32G4xx_HAL_Driver/Src/stm32g4xx_hal_pcd.c **** 
 826:Drivers/STM32G4xx_HAL_Driver/Src/stm32g4xx_hal_pcd.c ****   /* Release Lock */
 827:Drivers/STM32G4xx_HAL_Driver/Src/stm32g4xx_hal_pcd.c ****   __HAL_UNLOCK(hpcd);
 828:Drivers/STM32G4xx_HAL_Driver/Src/stm32g4xx_hal_pcd.c **** 
 829:Drivers/STM32G4xx_HAL_Driver/Src/stm32g4xx_hal_pcd.c ****   return status;
 830:Drivers/STM32G4xx_HAL_Driver/Src/stm32g4xx_hal_pcd.c **** }
 831:Drivers/STM32G4xx_HAL_Driver/Src/stm32g4xx_hal_pcd.c **** 
 832:Drivers/STM32G4xx_HAL_Driver/Src/stm32g4xx_hal_pcd.c **** /**
 833:Drivers/STM32G4xx_HAL_Driver/Src/stm32g4xx_hal_pcd.c ****   * @brief  UnRegister the USB PCD BCD Callback
 834:Drivers/STM32G4xx_HAL_Driver/Src/stm32g4xx_hal_pcd.c ****   *         USB BCD Callback is redirected to the weak HAL_PCDEx_BCD_Callback() predefined callback
 835:Drivers/STM32G4xx_HAL_Driver/Src/stm32g4xx_hal_pcd.c ****   * @param  hpcd PCD handle
 836:Drivers/STM32G4xx_HAL_Driver/Src/stm32g4xx_hal_pcd.c ****   * @retval HAL status
 837:Drivers/STM32G4xx_HAL_Driver/Src/stm32g4xx_hal_pcd.c ****   */
 838:Drivers/STM32G4xx_HAL_Driver/Src/stm32g4xx_hal_pcd.c **** HAL_StatusTypeDef HAL_PCD_UnRegisterBcdCallback(PCD_HandleTypeDef *hpcd)
 839:Drivers/STM32G4xx_HAL_Driver/Src/stm32g4xx_hal_pcd.c **** {
 840:Drivers/STM32G4xx_HAL_Driver/Src/stm32g4xx_hal_pcd.c ****   HAL_StatusTypeDef status = HAL_OK;
 841:Drivers/STM32G4xx_HAL_Driver/Src/stm32g4xx_hal_pcd.c **** 
 842:Drivers/STM32G4xx_HAL_Driver/Src/stm32g4xx_hal_pcd.c ****   /* Process locked */
 843:Drivers/STM32G4xx_HAL_Driver/Src/stm32g4xx_hal_pcd.c ****   __HAL_LOCK(hpcd);
 844:Drivers/STM32G4xx_HAL_Driver/Src/stm32g4xx_hal_pcd.c **** 
 845:Drivers/STM32G4xx_HAL_Driver/Src/stm32g4xx_hal_pcd.c ****   if (hpcd->State == HAL_PCD_STATE_READY)
 846:Drivers/STM32G4xx_HAL_Driver/Src/stm32g4xx_hal_pcd.c ****   {
 847:Drivers/STM32G4xx_HAL_Driver/Src/stm32g4xx_hal_pcd.c ****     hpcd->BCDCallback = HAL_PCDEx_BCD_Callback; /* Legacy weak HAL_PCDEx_BCD_Callback  */
 848:Drivers/STM32G4xx_HAL_Driver/Src/stm32g4xx_hal_pcd.c ****   }
 849:Drivers/STM32G4xx_HAL_Driver/Src/stm32g4xx_hal_pcd.c ****   else
 850:Drivers/STM32G4xx_HAL_Driver/Src/stm32g4xx_hal_pcd.c ****   {
 851:Drivers/STM32G4xx_HAL_Driver/Src/stm32g4xx_hal_pcd.c ****     /* Update the error code */
ARM GAS  /tmp/cclKjP2I.s 			page 22


 852:Drivers/STM32G4xx_HAL_Driver/Src/stm32g4xx_hal_pcd.c ****     hpcd->ErrorCode |= HAL_PCD_ERROR_INVALID_CALLBACK;
 853:Drivers/STM32G4xx_HAL_Driver/Src/stm32g4xx_hal_pcd.c **** 
 854:Drivers/STM32G4xx_HAL_Driver/Src/stm32g4xx_hal_pcd.c ****     /* Return error status */
 855:Drivers/STM32G4xx_HAL_Driver/Src/stm32g4xx_hal_pcd.c ****     status =  HAL_ERROR;
 856:Drivers/STM32G4xx_HAL_Driver/Src/stm32g4xx_hal_pcd.c ****   }
 857:Drivers/STM32G4xx_HAL_Driver/Src/stm32g4xx_hal_pcd.c **** 
 858:Drivers/STM32G4xx_HAL_Driver/Src/stm32g4xx_hal_pcd.c ****   /* Release Lock */
 859:Drivers/STM32G4xx_HAL_Driver/Src/stm32g4xx_hal_pcd.c ****   __HAL_UNLOCK(hpcd);
 860:Drivers/STM32G4xx_HAL_Driver/Src/stm32g4xx_hal_pcd.c **** 
 861:Drivers/STM32G4xx_HAL_Driver/Src/stm32g4xx_hal_pcd.c ****   return status;
 862:Drivers/STM32G4xx_HAL_Driver/Src/stm32g4xx_hal_pcd.c **** }
 863:Drivers/STM32G4xx_HAL_Driver/Src/stm32g4xx_hal_pcd.c **** 
 864:Drivers/STM32G4xx_HAL_Driver/Src/stm32g4xx_hal_pcd.c **** /**
 865:Drivers/STM32G4xx_HAL_Driver/Src/stm32g4xx_hal_pcd.c ****   * @brief  Register USB PCD LPM Callback
 866:Drivers/STM32G4xx_HAL_Driver/Src/stm32g4xx_hal_pcd.c ****   *         To be used instead of the weak HAL_PCDEx_LPM_Callback() predefined callback
 867:Drivers/STM32G4xx_HAL_Driver/Src/stm32g4xx_hal_pcd.c ****   * @param  hpcd PCD handle
 868:Drivers/STM32G4xx_HAL_Driver/Src/stm32g4xx_hal_pcd.c ****   * @param  pCallback pointer to the USB PCD LPM Callback function
 869:Drivers/STM32G4xx_HAL_Driver/Src/stm32g4xx_hal_pcd.c ****   * @retval HAL status
 870:Drivers/STM32G4xx_HAL_Driver/Src/stm32g4xx_hal_pcd.c ****   */
 871:Drivers/STM32G4xx_HAL_Driver/Src/stm32g4xx_hal_pcd.c **** HAL_StatusTypeDef HAL_PCD_RegisterLpmCallback(PCD_HandleTypeDef *hpcd, pPCD_LpmCallbackTypeDef pCal
 872:Drivers/STM32G4xx_HAL_Driver/Src/stm32g4xx_hal_pcd.c **** {
 873:Drivers/STM32G4xx_HAL_Driver/Src/stm32g4xx_hal_pcd.c ****   HAL_StatusTypeDef status = HAL_OK;
 874:Drivers/STM32G4xx_HAL_Driver/Src/stm32g4xx_hal_pcd.c **** 
 875:Drivers/STM32G4xx_HAL_Driver/Src/stm32g4xx_hal_pcd.c ****   if (pCallback == NULL)
 876:Drivers/STM32G4xx_HAL_Driver/Src/stm32g4xx_hal_pcd.c ****   {
 877:Drivers/STM32G4xx_HAL_Driver/Src/stm32g4xx_hal_pcd.c ****     /* Update the error code */
 878:Drivers/STM32G4xx_HAL_Driver/Src/stm32g4xx_hal_pcd.c ****     hpcd->ErrorCode |= HAL_PCD_ERROR_INVALID_CALLBACK;
 879:Drivers/STM32G4xx_HAL_Driver/Src/stm32g4xx_hal_pcd.c **** 
 880:Drivers/STM32G4xx_HAL_Driver/Src/stm32g4xx_hal_pcd.c ****     return HAL_ERROR;
 881:Drivers/STM32G4xx_HAL_Driver/Src/stm32g4xx_hal_pcd.c ****   }
 882:Drivers/STM32G4xx_HAL_Driver/Src/stm32g4xx_hal_pcd.c **** 
 883:Drivers/STM32G4xx_HAL_Driver/Src/stm32g4xx_hal_pcd.c ****   /* Process locked */
 884:Drivers/STM32G4xx_HAL_Driver/Src/stm32g4xx_hal_pcd.c ****   __HAL_LOCK(hpcd);
 885:Drivers/STM32G4xx_HAL_Driver/Src/stm32g4xx_hal_pcd.c **** 
 886:Drivers/STM32G4xx_HAL_Driver/Src/stm32g4xx_hal_pcd.c ****   if (hpcd->State == HAL_PCD_STATE_READY)
 887:Drivers/STM32G4xx_HAL_Driver/Src/stm32g4xx_hal_pcd.c ****   {
 888:Drivers/STM32G4xx_HAL_Driver/Src/stm32g4xx_hal_pcd.c ****     hpcd->LPMCallback = pCallback;
 889:Drivers/STM32G4xx_HAL_Driver/Src/stm32g4xx_hal_pcd.c ****   }
 890:Drivers/STM32G4xx_HAL_Driver/Src/stm32g4xx_hal_pcd.c ****   else
 891:Drivers/STM32G4xx_HAL_Driver/Src/stm32g4xx_hal_pcd.c ****   {
 892:Drivers/STM32G4xx_HAL_Driver/Src/stm32g4xx_hal_pcd.c ****     /* Update the error code */
 893:Drivers/STM32G4xx_HAL_Driver/Src/stm32g4xx_hal_pcd.c ****     hpcd->ErrorCode |= HAL_PCD_ERROR_INVALID_CALLBACK;
 894:Drivers/STM32G4xx_HAL_Driver/Src/stm32g4xx_hal_pcd.c **** 
 895:Drivers/STM32G4xx_HAL_Driver/Src/stm32g4xx_hal_pcd.c ****     /* Return error status */
 896:Drivers/STM32G4xx_HAL_Driver/Src/stm32g4xx_hal_pcd.c ****     status =  HAL_ERROR;
 897:Drivers/STM32G4xx_HAL_Driver/Src/stm32g4xx_hal_pcd.c ****   }
 898:Drivers/STM32G4xx_HAL_Driver/Src/stm32g4xx_hal_pcd.c **** 
 899:Drivers/STM32G4xx_HAL_Driver/Src/stm32g4xx_hal_pcd.c ****   /* Release Lock */
 900:Drivers/STM32G4xx_HAL_Driver/Src/stm32g4xx_hal_pcd.c ****   __HAL_UNLOCK(hpcd);
 901:Drivers/STM32G4xx_HAL_Driver/Src/stm32g4xx_hal_pcd.c **** 
 902:Drivers/STM32G4xx_HAL_Driver/Src/stm32g4xx_hal_pcd.c ****   return status;
 903:Drivers/STM32G4xx_HAL_Driver/Src/stm32g4xx_hal_pcd.c **** }
 904:Drivers/STM32G4xx_HAL_Driver/Src/stm32g4xx_hal_pcd.c **** 
 905:Drivers/STM32G4xx_HAL_Driver/Src/stm32g4xx_hal_pcd.c **** /**
 906:Drivers/STM32G4xx_HAL_Driver/Src/stm32g4xx_hal_pcd.c ****   * @brief  UnRegister the USB PCD LPM Callback
 907:Drivers/STM32G4xx_HAL_Driver/Src/stm32g4xx_hal_pcd.c ****   *         USB LPM Callback is redirected to the weak HAL_PCDEx_LPM_Callback() predefined callback
 908:Drivers/STM32G4xx_HAL_Driver/Src/stm32g4xx_hal_pcd.c ****   * @param  hpcd PCD handle
ARM GAS  /tmp/cclKjP2I.s 			page 23


 909:Drivers/STM32G4xx_HAL_Driver/Src/stm32g4xx_hal_pcd.c ****   * @retval HAL status
 910:Drivers/STM32G4xx_HAL_Driver/Src/stm32g4xx_hal_pcd.c ****   */
 911:Drivers/STM32G4xx_HAL_Driver/Src/stm32g4xx_hal_pcd.c **** HAL_StatusTypeDef HAL_PCD_UnRegisterLpmCallback(PCD_HandleTypeDef *hpcd)
 912:Drivers/STM32G4xx_HAL_Driver/Src/stm32g4xx_hal_pcd.c **** {
 913:Drivers/STM32G4xx_HAL_Driver/Src/stm32g4xx_hal_pcd.c ****   HAL_StatusTypeDef status = HAL_OK;
 914:Drivers/STM32G4xx_HAL_Driver/Src/stm32g4xx_hal_pcd.c **** 
 915:Drivers/STM32G4xx_HAL_Driver/Src/stm32g4xx_hal_pcd.c ****   /* Process locked */
 916:Drivers/STM32G4xx_HAL_Driver/Src/stm32g4xx_hal_pcd.c ****   __HAL_LOCK(hpcd);
 917:Drivers/STM32G4xx_HAL_Driver/Src/stm32g4xx_hal_pcd.c **** 
 918:Drivers/STM32G4xx_HAL_Driver/Src/stm32g4xx_hal_pcd.c ****   if (hpcd->State == HAL_PCD_STATE_READY)
 919:Drivers/STM32G4xx_HAL_Driver/Src/stm32g4xx_hal_pcd.c ****   {
 920:Drivers/STM32G4xx_HAL_Driver/Src/stm32g4xx_hal_pcd.c ****     hpcd->LPMCallback = HAL_PCDEx_LPM_Callback; /* Legacy weak HAL_PCDEx_LPM_Callback  */
 921:Drivers/STM32G4xx_HAL_Driver/Src/stm32g4xx_hal_pcd.c ****   }
 922:Drivers/STM32G4xx_HAL_Driver/Src/stm32g4xx_hal_pcd.c ****   else
 923:Drivers/STM32G4xx_HAL_Driver/Src/stm32g4xx_hal_pcd.c ****   {
 924:Drivers/STM32G4xx_HAL_Driver/Src/stm32g4xx_hal_pcd.c ****     /* Update the error code */
 925:Drivers/STM32G4xx_HAL_Driver/Src/stm32g4xx_hal_pcd.c ****     hpcd->ErrorCode |= HAL_PCD_ERROR_INVALID_CALLBACK;
 926:Drivers/STM32G4xx_HAL_Driver/Src/stm32g4xx_hal_pcd.c **** 
 927:Drivers/STM32G4xx_HAL_Driver/Src/stm32g4xx_hal_pcd.c ****     /* Return error status */
 928:Drivers/STM32G4xx_HAL_Driver/Src/stm32g4xx_hal_pcd.c ****     status =  HAL_ERROR;
 929:Drivers/STM32G4xx_HAL_Driver/Src/stm32g4xx_hal_pcd.c ****   }
 930:Drivers/STM32G4xx_HAL_Driver/Src/stm32g4xx_hal_pcd.c **** 
 931:Drivers/STM32G4xx_HAL_Driver/Src/stm32g4xx_hal_pcd.c ****   /* Release Lock */
 932:Drivers/STM32G4xx_HAL_Driver/Src/stm32g4xx_hal_pcd.c ****   __HAL_UNLOCK(hpcd);
 933:Drivers/STM32G4xx_HAL_Driver/Src/stm32g4xx_hal_pcd.c **** 
 934:Drivers/STM32G4xx_HAL_Driver/Src/stm32g4xx_hal_pcd.c ****   return status;
 935:Drivers/STM32G4xx_HAL_Driver/Src/stm32g4xx_hal_pcd.c **** }
 936:Drivers/STM32G4xx_HAL_Driver/Src/stm32g4xx_hal_pcd.c **** #endif /* USE_HAL_PCD_REGISTER_CALLBACKS */
 937:Drivers/STM32G4xx_HAL_Driver/Src/stm32g4xx_hal_pcd.c **** 
 938:Drivers/STM32G4xx_HAL_Driver/Src/stm32g4xx_hal_pcd.c **** /**
 939:Drivers/STM32G4xx_HAL_Driver/Src/stm32g4xx_hal_pcd.c ****   * @}
 940:Drivers/STM32G4xx_HAL_Driver/Src/stm32g4xx_hal_pcd.c ****   */
 941:Drivers/STM32G4xx_HAL_Driver/Src/stm32g4xx_hal_pcd.c **** 
 942:Drivers/STM32G4xx_HAL_Driver/Src/stm32g4xx_hal_pcd.c **** /** @defgroup PCD_Exported_Functions_Group2 Input and Output operation functions
 943:Drivers/STM32G4xx_HAL_Driver/Src/stm32g4xx_hal_pcd.c ****  *  @brief   Data transfers functions
 944:Drivers/STM32G4xx_HAL_Driver/Src/stm32g4xx_hal_pcd.c ****  *
 945:Drivers/STM32G4xx_HAL_Driver/Src/stm32g4xx_hal_pcd.c **** @verbatim
 946:Drivers/STM32G4xx_HAL_Driver/Src/stm32g4xx_hal_pcd.c ****  ===============================================================================
 947:Drivers/STM32G4xx_HAL_Driver/Src/stm32g4xx_hal_pcd.c ****                       ##### IO operation functions #####
 948:Drivers/STM32G4xx_HAL_Driver/Src/stm32g4xx_hal_pcd.c ****  ===============================================================================
 949:Drivers/STM32G4xx_HAL_Driver/Src/stm32g4xx_hal_pcd.c ****     [..]
 950:Drivers/STM32G4xx_HAL_Driver/Src/stm32g4xx_hal_pcd.c ****     This subsection provides a set of functions allowing to manage the PCD data
 951:Drivers/STM32G4xx_HAL_Driver/Src/stm32g4xx_hal_pcd.c ****     transfers.
 952:Drivers/STM32G4xx_HAL_Driver/Src/stm32g4xx_hal_pcd.c **** 
 953:Drivers/STM32G4xx_HAL_Driver/Src/stm32g4xx_hal_pcd.c **** @endverbatim
 954:Drivers/STM32G4xx_HAL_Driver/Src/stm32g4xx_hal_pcd.c ****   * @{
 955:Drivers/STM32G4xx_HAL_Driver/Src/stm32g4xx_hal_pcd.c ****   */
 956:Drivers/STM32G4xx_HAL_Driver/Src/stm32g4xx_hal_pcd.c **** 
 957:Drivers/STM32G4xx_HAL_Driver/Src/stm32g4xx_hal_pcd.c **** /**
 958:Drivers/STM32G4xx_HAL_Driver/Src/stm32g4xx_hal_pcd.c ****   * @brief  Start the USB device
 959:Drivers/STM32G4xx_HAL_Driver/Src/stm32g4xx_hal_pcd.c ****   * @param  hpcd PCD handle
 960:Drivers/STM32G4xx_HAL_Driver/Src/stm32g4xx_hal_pcd.c ****   * @retval HAL status
 961:Drivers/STM32G4xx_HAL_Driver/Src/stm32g4xx_hal_pcd.c ****   */
 962:Drivers/STM32G4xx_HAL_Driver/Src/stm32g4xx_hal_pcd.c **** HAL_StatusTypeDef HAL_PCD_Start(PCD_HandleTypeDef *hpcd)
 963:Drivers/STM32G4xx_HAL_Driver/Src/stm32g4xx_hal_pcd.c **** {
 274              		.loc 1 963 1 is_stmt 1 view -0
 275              		.cfi_startproc
ARM GAS  /tmp/cclKjP2I.s 			page 24


 276              		@ args = 0, pretend = 0, frame = 0
 277              		@ frame_needed = 0, uses_anonymous_args = 0
 964:Drivers/STM32G4xx_HAL_Driver/Src/stm32g4xx_hal_pcd.c ****   __HAL_LOCK(hpcd);
 278              		.loc 1 964 3 view .LVU84
 279              		.loc 1 964 3 view .LVU85
 963:Drivers/STM32G4xx_HAL_Driver/Src/stm32g4xx_hal_pcd.c ****   __HAL_LOCK(hpcd);
 280              		.loc 1 963 1 is_stmt 0 view .LVU86
 281 0000 10B5     		push	{r4, lr}
 282              	.LCFI3:
 283              		.cfi_def_cfa_offset 8
 284              		.cfi_offset 4, -8
 285              		.cfi_offset 14, -4
 286              		.loc 1 964 3 view .LVU87
 287 0002 90F82832 		ldrb	r3, [r0, #552]	@ zero_extendqisi2
 288 0006 012B     		cmp	r3, #1
 963:Drivers/STM32G4xx_HAL_Driver/Src/stm32g4xx_hal_pcd.c ****   __HAL_LOCK(hpcd);
 289              		.loc 1 963 1 view .LVU88
 290 0008 0446     		mov	r4, r0
 291              		.loc 1 964 3 view .LVU89
 292 000a 0CD0     		beq	.L14
 293              		.loc 1 964 3 is_stmt 1 discriminator 2 view .LVU90
 294 000c 0123     		movs	r3, #1
 295 000e 80F82832 		strb	r3, [r0, #552]
 296              		.loc 1 964 3 discriminator 2 view .LVU91
 965:Drivers/STM32G4xx_HAL_Driver/Src/stm32g4xx_hal_pcd.c ****   (void)USB_DevConnect(hpcd->Instance);
 297              		.loc 1 965 3 discriminator 2 view .LVU92
 298              		.loc 1 965 9 is_stmt 0 discriminator 2 view .LVU93
 299 0012 0068     		ldr	r0, [r0]
 300              	.LVL20:
 301              		.loc 1 965 9 discriminator 2 view .LVU94
 302 0014 FFF7FEFF 		bl	USB_DevConnect
 303              	.LVL21:
 966:Drivers/STM32G4xx_HAL_Driver/Src/stm32g4xx_hal_pcd.c ****   __HAL_PCD_ENABLE(hpcd);
 304              		.loc 1 966 3 is_stmt 1 discriminator 2 view .LVU95
 305 0018 2068     		ldr	r0, [r4]
 306 001a FFF7FEFF 		bl	USB_EnableGlobalInt
 307              	.LVL22:
 967:Drivers/STM32G4xx_HAL_Driver/Src/stm32g4xx_hal_pcd.c ****   __HAL_UNLOCK(hpcd);
 308              		.loc 1 967 3 discriminator 2 view .LVU96
 309              		.loc 1 967 3 discriminator 2 view .LVU97
 310 001e 0020     		movs	r0, #0
 311 0020 84F82802 		strb	r0, [r4, #552]
 312              		.loc 1 967 3 discriminator 2 view .LVU98
 968:Drivers/STM32G4xx_HAL_Driver/Src/stm32g4xx_hal_pcd.c ****   return HAL_OK;
 313              		.loc 1 968 3 discriminator 2 view .LVU99
 314              	.L13:
 969:Drivers/STM32G4xx_HAL_Driver/Src/stm32g4xx_hal_pcd.c **** }
 315              		.loc 1 969 1 is_stmt 0 view .LVU100
 316 0024 10BD     		pop	{r4, pc}
 317              	.LVL23:
 318              	.L14:
 964:Drivers/STM32G4xx_HAL_Driver/Src/stm32g4xx_hal_pcd.c ****   (void)USB_DevConnect(hpcd->Instance);
 319              		.loc 1 964 3 view .LVU101
 320 0026 0220     		movs	r0, #2
 321              	.LVL24:
 964:Drivers/STM32G4xx_HAL_Driver/Src/stm32g4xx_hal_pcd.c ****   (void)USB_DevConnect(hpcd->Instance);
 322              		.loc 1 964 3 view .LVU102
ARM GAS  /tmp/cclKjP2I.s 			page 25


 323 0028 FCE7     		b	.L13
 324              		.cfi_endproc
 325              	.LFE361:
 327              		.section	.text.HAL_PCD_Stop,"ax",%progbits
 328              		.align	1
 329              		.global	HAL_PCD_Stop
 330              		.syntax unified
 331              		.thumb
 332              		.thumb_func
 333              		.fpu fpv4-sp-d16
 335              	HAL_PCD_Stop:
 336              	.LVL25:
 337              	.LFB362:
 970:Drivers/STM32G4xx_HAL_Driver/Src/stm32g4xx_hal_pcd.c **** 
 971:Drivers/STM32G4xx_HAL_Driver/Src/stm32g4xx_hal_pcd.c **** /**
 972:Drivers/STM32G4xx_HAL_Driver/Src/stm32g4xx_hal_pcd.c ****   * @brief  Stop the USB device.
 973:Drivers/STM32G4xx_HAL_Driver/Src/stm32g4xx_hal_pcd.c ****   * @param  hpcd PCD handle
 974:Drivers/STM32G4xx_HAL_Driver/Src/stm32g4xx_hal_pcd.c ****   * @retval HAL status
 975:Drivers/STM32G4xx_HAL_Driver/Src/stm32g4xx_hal_pcd.c ****   */
 976:Drivers/STM32G4xx_HAL_Driver/Src/stm32g4xx_hal_pcd.c **** HAL_StatusTypeDef HAL_PCD_Stop(PCD_HandleTypeDef *hpcd)
 977:Drivers/STM32G4xx_HAL_Driver/Src/stm32g4xx_hal_pcd.c **** {
 338              		.loc 1 977 1 is_stmt 1 view -0
 339              		.cfi_startproc
 340              		@ args = 0, pretend = 0, frame = 0
 341              		@ frame_needed = 0, uses_anonymous_args = 0
 978:Drivers/STM32G4xx_HAL_Driver/Src/stm32g4xx_hal_pcd.c ****   __HAL_LOCK(hpcd);
 342              		.loc 1 978 3 view .LVU104
 343              		.loc 1 978 3 view .LVU105
 977:Drivers/STM32G4xx_HAL_Driver/Src/stm32g4xx_hal_pcd.c ****   __HAL_LOCK(hpcd);
 344              		.loc 1 977 1 is_stmt 0 view .LVU106
 345 0000 10B5     		push	{r4, lr}
 346              	.LCFI4:
 347              		.cfi_def_cfa_offset 8
 348              		.cfi_offset 4, -8
 349              		.cfi_offset 14, -4
 350              		.loc 1 978 3 view .LVU107
 351 0002 90F82832 		ldrb	r3, [r0, #552]	@ zero_extendqisi2
 352 0006 012B     		cmp	r3, #1
 977:Drivers/STM32G4xx_HAL_Driver/Src/stm32g4xx_hal_pcd.c ****   __HAL_LOCK(hpcd);
 353              		.loc 1 977 1 view .LVU108
 354 0008 0446     		mov	r4, r0
 355              		.loc 1 978 3 view .LVU109
 356 000a 0CD0     		beq	.L17
 357              		.loc 1 978 3 is_stmt 1 discriminator 2 view .LVU110
 358 000c 0123     		movs	r3, #1
 359 000e 80F82832 		strb	r3, [r0, #552]
 360              		.loc 1 978 3 discriminator 2 view .LVU111
 979:Drivers/STM32G4xx_HAL_Driver/Src/stm32g4xx_hal_pcd.c ****   __HAL_PCD_DISABLE(hpcd);
 361              		.loc 1 979 3 discriminator 2 view .LVU112
 362 0012 0068     		ldr	r0, [r0]
 363              	.LVL26:
 364              		.loc 1 979 3 is_stmt 0 discriminator 2 view .LVU113
 365 0014 FFF7FEFF 		bl	USB_DisableGlobalInt
 366              	.LVL27:
 980:Drivers/STM32G4xx_HAL_Driver/Src/stm32g4xx_hal_pcd.c **** 
 981:Drivers/STM32G4xx_HAL_Driver/Src/stm32g4xx_hal_pcd.c ****   (void)USB_StopDevice(hpcd->Instance);
 367              		.loc 1 981 3 is_stmt 1 discriminator 2 view .LVU114
ARM GAS  /tmp/cclKjP2I.s 			page 26


 368              		.loc 1 981 9 is_stmt 0 discriminator 2 view .LVU115
 369 0018 2068     		ldr	r0, [r4]
 370 001a FFF7FEFF 		bl	USB_StopDevice
 371              	.LVL28:
 982:Drivers/STM32G4xx_HAL_Driver/Src/stm32g4xx_hal_pcd.c **** 
 983:Drivers/STM32G4xx_HAL_Driver/Src/stm32g4xx_hal_pcd.c ****   __HAL_UNLOCK(hpcd);
 372              		.loc 1 983 3 is_stmt 1 discriminator 2 view .LVU116
 373              		.loc 1 983 3 discriminator 2 view .LVU117
 374 001e 0020     		movs	r0, #0
 375 0020 84F82802 		strb	r0, [r4, #552]
 376              		.loc 1 983 3 discriminator 2 view .LVU118
 984:Drivers/STM32G4xx_HAL_Driver/Src/stm32g4xx_hal_pcd.c **** 
 985:Drivers/STM32G4xx_HAL_Driver/Src/stm32g4xx_hal_pcd.c ****   return HAL_OK;
 377              		.loc 1 985 3 discriminator 2 view .LVU119
 378              	.L16:
 986:Drivers/STM32G4xx_HAL_Driver/Src/stm32g4xx_hal_pcd.c **** }
 379              		.loc 1 986 1 is_stmt 0 view .LVU120
 380 0024 10BD     		pop	{r4, pc}
 381              	.LVL29:
 382              	.L17:
 978:Drivers/STM32G4xx_HAL_Driver/Src/stm32g4xx_hal_pcd.c ****   __HAL_PCD_DISABLE(hpcd);
 383              		.loc 1 978 3 view .LVU121
 384 0026 0220     		movs	r0, #2
 385              	.LVL30:
 978:Drivers/STM32G4xx_HAL_Driver/Src/stm32g4xx_hal_pcd.c ****   __HAL_PCD_DISABLE(hpcd);
 386              		.loc 1 978 3 view .LVU122
 387 0028 FCE7     		b	.L16
 388              		.cfi_endproc
 389              	.LFE362:
 391              		.section	.text.HAL_PCD_DeInit,"ax",%progbits
 392              		.align	1
 393              		.global	HAL_PCD_DeInit
 394              		.syntax unified
 395              		.thumb
 396              		.thumb_func
 397              		.fpu fpv4-sp-d16
 399              	HAL_PCD_DeInit:
 400              	.LVL31:
 401              	.LFB358:
 217:Drivers/STM32G4xx_HAL_Driver/Src/stm32g4xx_hal_pcd.c ****   /* Check the PCD handle allocation */
 402              		.loc 1 217 1 is_stmt 1 view -0
 403              		.cfi_startproc
 404              		@ args = 0, pretend = 0, frame = 0
 405              		@ frame_needed = 0, uses_anonymous_args = 0
 219:Drivers/STM32G4xx_HAL_Driver/Src/stm32g4xx_hal_pcd.c ****   {
 406              		.loc 1 219 3 view .LVU124
 217:Drivers/STM32G4xx_HAL_Driver/Src/stm32g4xx_hal_pcd.c ****   /* Check the PCD handle allocation */
 407              		.loc 1 217 1 is_stmt 0 view .LVU125
 408 0000 10B5     		push	{r4, lr}
 409              	.LCFI5:
 410              		.cfi_def_cfa_offset 8
 411              		.cfi_offset 4, -8
 412              		.cfi_offset 14, -4
 219:Drivers/STM32G4xx_HAL_Driver/Src/stm32g4xx_hal_pcd.c ****   {
 413              		.loc 1 219 6 view .LVU126
 414 0002 0446     		mov	r4, r0
 415 0004 58B1     		cbz	r0, .L20
ARM GAS  /tmp/cclKjP2I.s 			page 27


 224:Drivers/STM32G4xx_HAL_Driver/Src/stm32g4xx_hal_pcd.c **** 
 416              		.loc 1 224 3 is_stmt 1 view .LVU127
 224:Drivers/STM32G4xx_HAL_Driver/Src/stm32g4xx_hal_pcd.c **** 
 417              		.loc 1 224 15 is_stmt 0 view .LVU128
 418 0006 0323     		movs	r3, #3
 419 0008 80F82932 		strb	r3, [r0, #553]
 227:Drivers/STM32G4xx_HAL_Driver/Src/stm32g4xx_hal_pcd.c **** 
 420              		.loc 1 227 3 is_stmt 1 view .LVU129
 227:Drivers/STM32G4xx_HAL_Driver/Src/stm32g4xx_hal_pcd.c **** 
 421              		.loc 1 227 9 is_stmt 0 view .LVU130
 422 000c FFF7FEFF 		bl	HAL_PCD_Stop
 423              	.LVL32:
 239:Drivers/STM32G4xx_HAL_Driver/Src/stm32g4xx_hal_pcd.c **** #endif /* USE_HAL_PCD_REGISTER_CALLBACKS */
 424              		.loc 1 239 3 is_stmt 1 view .LVU131
 425 0010 2046     		mov	r0, r4
 426 0012 FFF7FEFF 		bl	HAL_PCD_MspDeInit
 427              	.LVL33:
 242:Drivers/STM32G4xx_HAL_Driver/Src/stm32g4xx_hal_pcd.c **** 
 428              		.loc 1 242 3 view .LVU132
 242:Drivers/STM32G4xx_HAL_Driver/Src/stm32g4xx_hal_pcd.c **** 
 429              		.loc 1 242 15 is_stmt 0 view .LVU133
 430 0016 0020     		movs	r0, #0
 431 0018 84F82902 		strb	r0, [r4, #553]
 244:Drivers/STM32G4xx_HAL_Driver/Src/stm32g4xx_hal_pcd.c **** }
 432              		.loc 1 244 3 is_stmt 1 view .LVU134
 433              	.L19:
 245:Drivers/STM32G4xx_HAL_Driver/Src/stm32g4xx_hal_pcd.c **** 
 434              		.loc 1 245 1 is_stmt 0 view .LVU135
 435 001c 10BD     		pop	{r4, pc}
 436              	.LVL34:
 437              	.L20:
 221:Drivers/STM32G4xx_HAL_Driver/Src/stm32g4xx_hal_pcd.c ****   }
 438              		.loc 1 221 12 view .LVU136
 439 001e 0120     		movs	r0, #1
 440              	.LVL35:
 221:Drivers/STM32G4xx_HAL_Driver/Src/stm32g4xx_hal_pcd.c ****   }
 441              		.loc 1 221 12 view .LVU137
 442 0020 FCE7     		b	.L19
 443              		.cfi_endproc
 444              	.LFE358:
 446              		.section	.text.HAL_PCD_DataOutStageCallback,"ax",%progbits
 447              		.align	1
 448              		.weak	HAL_PCD_DataOutStageCallback
 449              		.syntax unified
 450              		.thumb
 451              		.thumb_func
 452              		.fpu fpv4-sp-d16
 454              	HAL_PCD_DataOutStageCallback:
 455              	.LVL36:
 456              	.LFB364:
 987:Drivers/STM32G4xx_HAL_Driver/Src/stm32g4xx_hal_pcd.c **** 
 988:Drivers/STM32G4xx_HAL_Driver/Src/stm32g4xx_hal_pcd.c **** 
 989:Drivers/STM32G4xx_HAL_Driver/Src/stm32g4xx_hal_pcd.c **** /**
 990:Drivers/STM32G4xx_HAL_Driver/Src/stm32g4xx_hal_pcd.c ****   * @brief  This function handles PCD interrupt request.
 991:Drivers/STM32G4xx_HAL_Driver/Src/stm32g4xx_hal_pcd.c ****   * @param  hpcd PCD handle
 992:Drivers/STM32G4xx_HAL_Driver/Src/stm32g4xx_hal_pcd.c ****   * @retval HAL status
 993:Drivers/STM32G4xx_HAL_Driver/Src/stm32g4xx_hal_pcd.c ****   */
ARM GAS  /tmp/cclKjP2I.s 			page 28


 994:Drivers/STM32G4xx_HAL_Driver/Src/stm32g4xx_hal_pcd.c **** void HAL_PCD_IRQHandler(PCD_HandleTypeDef *hpcd)
 995:Drivers/STM32G4xx_HAL_Driver/Src/stm32g4xx_hal_pcd.c **** {
 996:Drivers/STM32G4xx_HAL_Driver/Src/stm32g4xx_hal_pcd.c ****   if (__HAL_PCD_GET_FLAG(hpcd, USB_ISTR_CTR))
 997:Drivers/STM32G4xx_HAL_Driver/Src/stm32g4xx_hal_pcd.c ****   {
 998:Drivers/STM32G4xx_HAL_Driver/Src/stm32g4xx_hal_pcd.c ****     /* servicing of the endpoint correct transfer interrupt */
 999:Drivers/STM32G4xx_HAL_Driver/Src/stm32g4xx_hal_pcd.c ****     /* clear of the CTR flag into the sub */
1000:Drivers/STM32G4xx_HAL_Driver/Src/stm32g4xx_hal_pcd.c ****     (void)PCD_EP_ISR_Handler(hpcd);
1001:Drivers/STM32G4xx_HAL_Driver/Src/stm32g4xx_hal_pcd.c ****   }
1002:Drivers/STM32G4xx_HAL_Driver/Src/stm32g4xx_hal_pcd.c **** 
1003:Drivers/STM32G4xx_HAL_Driver/Src/stm32g4xx_hal_pcd.c ****   if (__HAL_PCD_GET_FLAG(hpcd, USB_ISTR_RESET))
1004:Drivers/STM32G4xx_HAL_Driver/Src/stm32g4xx_hal_pcd.c ****   {
1005:Drivers/STM32G4xx_HAL_Driver/Src/stm32g4xx_hal_pcd.c ****     __HAL_PCD_CLEAR_FLAG(hpcd, USB_ISTR_RESET);
1006:Drivers/STM32G4xx_HAL_Driver/Src/stm32g4xx_hal_pcd.c **** 
1007:Drivers/STM32G4xx_HAL_Driver/Src/stm32g4xx_hal_pcd.c **** #if (USE_HAL_PCD_REGISTER_CALLBACKS == 1U)
1008:Drivers/STM32G4xx_HAL_Driver/Src/stm32g4xx_hal_pcd.c ****     hpcd->ResetCallback(hpcd);
1009:Drivers/STM32G4xx_HAL_Driver/Src/stm32g4xx_hal_pcd.c **** #else
1010:Drivers/STM32G4xx_HAL_Driver/Src/stm32g4xx_hal_pcd.c ****     HAL_PCD_ResetCallback(hpcd);
1011:Drivers/STM32G4xx_HAL_Driver/Src/stm32g4xx_hal_pcd.c **** #endif /* USE_HAL_PCD_REGISTER_CALLBACKS */
1012:Drivers/STM32G4xx_HAL_Driver/Src/stm32g4xx_hal_pcd.c **** 
1013:Drivers/STM32G4xx_HAL_Driver/Src/stm32g4xx_hal_pcd.c ****     (void)HAL_PCD_SetAddress(hpcd, 0U);
1014:Drivers/STM32G4xx_HAL_Driver/Src/stm32g4xx_hal_pcd.c ****   }
1015:Drivers/STM32G4xx_HAL_Driver/Src/stm32g4xx_hal_pcd.c **** 
1016:Drivers/STM32G4xx_HAL_Driver/Src/stm32g4xx_hal_pcd.c ****   if (__HAL_PCD_GET_FLAG(hpcd, USB_ISTR_PMAOVR))
1017:Drivers/STM32G4xx_HAL_Driver/Src/stm32g4xx_hal_pcd.c ****   {
1018:Drivers/STM32G4xx_HAL_Driver/Src/stm32g4xx_hal_pcd.c ****     __HAL_PCD_CLEAR_FLAG(hpcd, USB_ISTR_PMAOVR);
1019:Drivers/STM32G4xx_HAL_Driver/Src/stm32g4xx_hal_pcd.c ****   }
1020:Drivers/STM32G4xx_HAL_Driver/Src/stm32g4xx_hal_pcd.c **** 
1021:Drivers/STM32G4xx_HAL_Driver/Src/stm32g4xx_hal_pcd.c ****   if (__HAL_PCD_GET_FLAG(hpcd, USB_ISTR_ERR))
1022:Drivers/STM32G4xx_HAL_Driver/Src/stm32g4xx_hal_pcd.c ****   {
1023:Drivers/STM32G4xx_HAL_Driver/Src/stm32g4xx_hal_pcd.c ****     __HAL_PCD_CLEAR_FLAG(hpcd, USB_ISTR_ERR);
1024:Drivers/STM32G4xx_HAL_Driver/Src/stm32g4xx_hal_pcd.c ****   }
1025:Drivers/STM32G4xx_HAL_Driver/Src/stm32g4xx_hal_pcd.c **** 
1026:Drivers/STM32G4xx_HAL_Driver/Src/stm32g4xx_hal_pcd.c ****   if (__HAL_PCD_GET_FLAG(hpcd, USB_ISTR_WKUP))
1027:Drivers/STM32G4xx_HAL_Driver/Src/stm32g4xx_hal_pcd.c ****   {
1028:Drivers/STM32G4xx_HAL_Driver/Src/stm32g4xx_hal_pcd.c ****     hpcd->Instance->CNTR &= (uint16_t) ~(USB_CNTR_LPMODE);
1029:Drivers/STM32G4xx_HAL_Driver/Src/stm32g4xx_hal_pcd.c ****     hpcd->Instance->CNTR &= (uint16_t) ~(USB_CNTR_FSUSP);
1030:Drivers/STM32G4xx_HAL_Driver/Src/stm32g4xx_hal_pcd.c **** 
1031:Drivers/STM32G4xx_HAL_Driver/Src/stm32g4xx_hal_pcd.c ****     if (hpcd->LPM_State == LPM_L1)
1032:Drivers/STM32G4xx_HAL_Driver/Src/stm32g4xx_hal_pcd.c ****     {
1033:Drivers/STM32G4xx_HAL_Driver/Src/stm32g4xx_hal_pcd.c ****       hpcd->LPM_State = LPM_L0;
1034:Drivers/STM32G4xx_HAL_Driver/Src/stm32g4xx_hal_pcd.c **** #if (USE_HAL_PCD_REGISTER_CALLBACKS == 1U)
1035:Drivers/STM32G4xx_HAL_Driver/Src/stm32g4xx_hal_pcd.c ****       hpcd->LPMCallback(hpcd, PCD_LPM_L0_ACTIVE);
1036:Drivers/STM32G4xx_HAL_Driver/Src/stm32g4xx_hal_pcd.c **** #else
1037:Drivers/STM32G4xx_HAL_Driver/Src/stm32g4xx_hal_pcd.c ****       HAL_PCDEx_LPM_Callback(hpcd, PCD_LPM_L0_ACTIVE);
1038:Drivers/STM32G4xx_HAL_Driver/Src/stm32g4xx_hal_pcd.c **** #endif /* USE_HAL_PCD_REGISTER_CALLBACKS */
1039:Drivers/STM32G4xx_HAL_Driver/Src/stm32g4xx_hal_pcd.c ****     }
1040:Drivers/STM32G4xx_HAL_Driver/Src/stm32g4xx_hal_pcd.c **** 
1041:Drivers/STM32G4xx_HAL_Driver/Src/stm32g4xx_hal_pcd.c **** #if (USE_HAL_PCD_REGISTER_CALLBACKS == 1U)
1042:Drivers/STM32G4xx_HAL_Driver/Src/stm32g4xx_hal_pcd.c ****     hpcd->ResumeCallback(hpcd);
1043:Drivers/STM32G4xx_HAL_Driver/Src/stm32g4xx_hal_pcd.c **** #else
1044:Drivers/STM32G4xx_HAL_Driver/Src/stm32g4xx_hal_pcd.c ****     HAL_PCD_ResumeCallback(hpcd);
1045:Drivers/STM32G4xx_HAL_Driver/Src/stm32g4xx_hal_pcd.c **** #endif /* USE_HAL_PCD_REGISTER_CALLBACKS */
1046:Drivers/STM32G4xx_HAL_Driver/Src/stm32g4xx_hal_pcd.c **** 
1047:Drivers/STM32G4xx_HAL_Driver/Src/stm32g4xx_hal_pcd.c ****     __HAL_PCD_CLEAR_FLAG(hpcd, USB_ISTR_WKUP);
1048:Drivers/STM32G4xx_HAL_Driver/Src/stm32g4xx_hal_pcd.c ****   }
1049:Drivers/STM32G4xx_HAL_Driver/Src/stm32g4xx_hal_pcd.c **** 
1050:Drivers/STM32G4xx_HAL_Driver/Src/stm32g4xx_hal_pcd.c ****   if (__HAL_PCD_GET_FLAG(hpcd, USB_ISTR_SUSP))
ARM GAS  /tmp/cclKjP2I.s 			page 29


1051:Drivers/STM32G4xx_HAL_Driver/Src/stm32g4xx_hal_pcd.c ****   {
1052:Drivers/STM32G4xx_HAL_Driver/Src/stm32g4xx_hal_pcd.c ****     /* Force low-power mode in the macrocell */
1053:Drivers/STM32G4xx_HAL_Driver/Src/stm32g4xx_hal_pcd.c ****     hpcd->Instance->CNTR |= USB_CNTR_FSUSP;
1054:Drivers/STM32G4xx_HAL_Driver/Src/stm32g4xx_hal_pcd.c **** 
1055:Drivers/STM32G4xx_HAL_Driver/Src/stm32g4xx_hal_pcd.c ****     /* clear of the ISTR bit must be done after setting of CNTR_FSUSP */
1056:Drivers/STM32G4xx_HAL_Driver/Src/stm32g4xx_hal_pcd.c ****     __HAL_PCD_CLEAR_FLAG(hpcd, USB_ISTR_SUSP);
1057:Drivers/STM32G4xx_HAL_Driver/Src/stm32g4xx_hal_pcd.c **** 
1058:Drivers/STM32G4xx_HAL_Driver/Src/stm32g4xx_hal_pcd.c ****     hpcd->Instance->CNTR |= USB_CNTR_LPMODE;
1059:Drivers/STM32G4xx_HAL_Driver/Src/stm32g4xx_hal_pcd.c **** 
1060:Drivers/STM32G4xx_HAL_Driver/Src/stm32g4xx_hal_pcd.c ****     if (__HAL_PCD_GET_FLAG(hpcd, USB_ISTR_WKUP) == 0U)
1061:Drivers/STM32G4xx_HAL_Driver/Src/stm32g4xx_hal_pcd.c ****     {
1062:Drivers/STM32G4xx_HAL_Driver/Src/stm32g4xx_hal_pcd.c **** #if (USE_HAL_PCD_REGISTER_CALLBACKS == 1U)
1063:Drivers/STM32G4xx_HAL_Driver/Src/stm32g4xx_hal_pcd.c ****       hpcd->SuspendCallback(hpcd);
1064:Drivers/STM32G4xx_HAL_Driver/Src/stm32g4xx_hal_pcd.c **** #else
1065:Drivers/STM32G4xx_HAL_Driver/Src/stm32g4xx_hal_pcd.c ****       HAL_PCD_SuspendCallback(hpcd);
1066:Drivers/STM32G4xx_HAL_Driver/Src/stm32g4xx_hal_pcd.c **** #endif /* USE_HAL_PCD_REGISTER_CALLBACKS */
1067:Drivers/STM32G4xx_HAL_Driver/Src/stm32g4xx_hal_pcd.c ****     }
1068:Drivers/STM32G4xx_HAL_Driver/Src/stm32g4xx_hal_pcd.c ****   }
1069:Drivers/STM32G4xx_HAL_Driver/Src/stm32g4xx_hal_pcd.c **** 
1070:Drivers/STM32G4xx_HAL_Driver/Src/stm32g4xx_hal_pcd.c ****   /* Handle LPM Interrupt */
1071:Drivers/STM32G4xx_HAL_Driver/Src/stm32g4xx_hal_pcd.c ****   if (__HAL_PCD_GET_FLAG(hpcd, USB_ISTR_L1REQ))
1072:Drivers/STM32G4xx_HAL_Driver/Src/stm32g4xx_hal_pcd.c ****   {
1073:Drivers/STM32G4xx_HAL_Driver/Src/stm32g4xx_hal_pcd.c ****     __HAL_PCD_CLEAR_FLAG(hpcd, USB_ISTR_L1REQ);
1074:Drivers/STM32G4xx_HAL_Driver/Src/stm32g4xx_hal_pcd.c ****     if (hpcd->LPM_State == LPM_L0)
1075:Drivers/STM32G4xx_HAL_Driver/Src/stm32g4xx_hal_pcd.c ****     {
1076:Drivers/STM32G4xx_HAL_Driver/Src/stm32g4xx_hal_pcd.c ****       /* Force suspend and low-power mode before going to L1 state*/
1077:Drivers/STM32G4xx_HAL_Driver/Src/stm32g4xx_hal_pcd.c ****       hpcd->Instance->CNTR |= USB_CNTR_LPMODE;
1078:Drivers/STM32G4xx_HAL_Driver/Src/stm32g4xx_hal_pcd.c ****       hpcd->Instance->CNTR |= USB_CNTR_FSUSP;
1079:Drivers/STM32G4xx_HAL_Driver/Src/stm32g4xx_hal_pcd.c **** 
1080:Drivers/STM32G4xx_HAL_Driver/Src/stm32g4xx_hal_pcd.c ****       hpcd->LPM_State = LPM_L1;
1081:Drivers/STM32G4xx_HAL_Driver/Src/stm32g4xx_hal_pcd.c ****       hpcd->BESL = ((uint32_t)hpcd->Instance->LPMCSR & USB_LPMCSR_BESL) >> 2;
1082:Drivers/STM32G4xx_HAL_Driver/Src/stm32g4xx_hal_pcd.c **** #if (USE_HAL_PCD_REGISTER_CALLBACKS == 1U)
1083:Drivers/STM32G4xx_HAL_Driver/Src/stm32g4xx_hal_pcd.c ****       hpcd->LPMCallback(hpcd, PCD_LPM_L1_ACTIVE);
1084:Drivers/STM32G4xx_HAL_Driver/Src/stm32g4xx_hal_pcd.c **** #else
1085:Drivers/STM32G4xx_HAL_Driver/Src/stm32g4xx_hal_pcd.c ****       HAL_PCDEx_LPM_Callback(hpcd, PCD_LPM_L1_ACTIVE);
1086:Drivers/STM32G4xx_HAL_Driver/Src/stm32g4xx_hal_pcd.c **** #endif /* USE_HAL_PCD_REGISTER_CALLBACKS */
1087:Drivers/STM32G4xx_HAL_Driver/Src/stm32g4xx_hal_pcd.c ****     }
1088:Drivers/STM32G4xx_HAL_Driver/Src/stm32g4xx_hal_pcd.c ****     else
1089:Drivers/STM32G4xx_HAL_Driver/Src/stm32g4xx_hal_pcd.c ****     {
1090:Drivers/STM32G4xx_HAL_Driver/Src/stm32g4xx_hal_pcd.c **** #if (USE_HAL_PCD_REGISTER_CALLBACKS == 1U)
1091:Drivers/STM32G4xx_HAL_Driver/Src/stm32g4xx_hal_pcd.c ****       hpcd->SuspendCallback(hpcd);
1092:Drivers/STM32G4xx_HAL_Driver/Src/stm32g4xx_hal_pcd.c **** #else
1093:Drivers/STM32G4xx_HAL_Driver/Src/stm32g4xx_hal_pcd.c ****       HAL_PCD_SuspendCallback(hpcd);
1094:Drivers/STM32G4xx_HAL_Driver/Src/stm32g4xx_hal_pcd.c **** #endif /* USE_HAL_PCD_REGISTER_CALLBACKS */
1095:Drivers/STM32G4xx_HAL_Driver/Src/stm32g4xx_hal_pcd.c ****     }
1096:Drivers/STM32G4xx_HAL_Driver/Src/stm32g4xx_hal_pcd.c ****   }
1097:Drivers/STM32G4xx_HAL_Driver/Src/stm32g4xx_hal_pcd.c **** 
1098:Drivers/STM32G4xx_HAL_Driver/Src/stm32g4xx_hal_pcd.c ****   if (__HAL_PCD_GET_FLAG(hpcd, USB_ISTR_SOF))
1099:Drivers/STM32G4xx_HAL_Driver/Src/stm32g4xx_hal_pcd.c ****   {
1100:Drivers/STM32G4xx_HAL_Driver/Src/stm32g4xx_hal_pcd.c ****     __HAL_PCD_CLEAR_FLAG(hpcd, USB_ISTR_SOF);
1101:Drivers/STM32G4xx_HAL_Driver/Src/stm32g4xx_hal_pcd.c **** 
1102:Drivers/STM32G4xx_HAL_Driver/Src/stm32g4xx_hal_pcd.c **** #if (USE_HAL_PCD_REGISTER_CALLBACKS == 1U)
1103:Drivers/STM32G4xx_HAL_Driver/Src/stm32g4xx_hal_pcd.c ****     hpcd->SOFCallback(hpcd);
1104:Drivers/STM32G4xx_HAL_Driver/Src/stm32g4xx_hal_pcd.c **** #else
1105:Drivers/STM32G4xx_HAL_Driver/Src/stm32g4xx_hal_pcd.c ****     HAL_PCD_SOFCallback(hpcd);
1106:Drivers/STM32G4xx_HAL_Driver/Src/stm32g4xx_hal_pcd.c **** #endif /* USE_HAL_PCD_REGISTER_CALLBACKS */
1107:Drivers/STM32G4xx_HAL_Driver/Src/stm32g4xx_hal_pcd.c ****   }
ARM GAS  /tmp/cclKjP2I.s 			page 30


1108:Drivers/STM32G4xx_HAL_Driver/Src/stm32g4xx_hal_pcd.c **** 
1109:Drivers/STM32G4xx_HAL_Driver/Src/stm32g4xx_hal_pcd.c ****   if (__HAL_PCD_GET_FLAG(hpcd, USB_ISTR_ESOF))
1110:Drivers/STM32G4xx_HAL_Driver/Src/stm32g4xx_hal_pcd.c ****   {
1111:Drivers/STM32G4xx_HAL_Driver/Src/stm32g4xx_hal_pcd.c ****     /* clear ESOF flag in ISTR */
1112:Drivers/STM32G4xx_HAL_Driver/Src/stm32g4xx_hal_pcd.c ****     __HAL_PCD_CLEAR_FLAG(hpcd, USB_ISTR_ESOF);
1113:Drivers/STM32G4xx_HAL_Driver/Src/stm32g4xx_hal_pcd.c ****   }
1114:Drivers/STM32G4xx_HAL_Driver/Src/stm32g4xx_hal_pcd.c **** }
1115:Drivers/STM32G4xx_HAL_Driver/Src/stm32g4xx_hal_pcd.c **** 
1116:Drivers/STM32G4xx_HAL_Driver/Src/stm32g4xx_hal_pcd.c **** 
1117:Drivers/STM32G4xx_HAL_Driver/Src/stm32g4xx_hal_pcd.c **** /**
1118:Drivers/STM32G4xx_HAL_Driver/Src/stm32g4xx_hal_pcd.c ****   * @brief  Data OUT stage callback.
1119:Drivers/STM32G4xx_HAL_Driver/Src/stm32g4xx_hal_pcd.c ****   * @param  hpcd PCD handle
1120:Drivers/STM32G4xx_HAL_Driver/Src/stm32g4xx_hal_pcd.c ****   * @param  epnum endpoint number
1121:Drivers/STM32G4xx_HAL_Driver/Src/stm32g4xx_hal_pcd.c ****   * @retval None
1122:Drivers/STM32G4xx_HAL_Driver/Src/stm32g4xx_hal_pcd.c ****   */
1123:Drivers/STM32G4xx_HAL_Driver/Src/stm32g4xx_hal_pcd.c **** __weak void HAL_PCD_DataOutStageCallback(PCD_HandleTypeDef *hpcd, uint8_t epnum)
1124:Drivers/STM32G4xx_HAL_Driver/Src/stm32g4xx_hal_pcd.c **** {
 457              		.loc 1 1124 1 is_stmt 1 view -0
 458              		.cfi_startproc
 459              		@ args = 0, pretend = 0, frame = 0
 460              		@ frame_needed = 0, uses_anonymous_args = 0
 461              		@ link register save eliminated.
1125:Drivers/STM32G4xx_HAL_Driver/Src/stm32g4xx_hal_pcd.c ****   /* Prevent unused argument(s) compilation warning */
1126:Drivers/STM32G4xx_HAL_Driver/Src/stm32g4xx_hal_pcd.c ****   UNUSED(hpcd);
 462              		.loc 1 1126 3 view .LVU139
1127:Drivers/STM32G4xx_HAL_Driver/Src/stm32g4xx_hal_pcd.c ****   UNUSED(epnum);
 463              		.loc 1 1127 3 view .LVU140
1128:Drivers/STM32G4xx_HAL_Driver/Src/stm32g4xx_hal_pcd.c **** 
1129:Drivers/STM32G4xx_HAL_Driver/Src/stm32g4xx_hal_pcd.c ****   /* NOTE : This function should not be modified, when the callback is needed,
1130:Drivers/STM32G4xx_HAL_Driver/Src/stm32g4xx_hal_pcd.c ****             the HAL_PCD_DataOutStageCallback could be implemented in the user file
1131:Drivers/STM32G4xx_HAL_Driver/Src/stm32g4xx_hal_pcd.c ****    */
1132:Drivers/STM32G4xx_HAL_Driver/Src/stm32g4xx_hal_pcd.c **** }
 464              		.loc 1 1132 1 is_stmt 0 view .LVU141
 465 0000 7047     		bx	lr
 466              		.cfi_endproc
 467              	.LFE364:
 469              		.section	.text.HAL_PCD_DataInStageCallback,"ax",%progbits
 470              		.align	1
 471              		.weak	HAL_PCD_DataInStageCallback
 472              		.syntax unified
 473              		.thumb
 474              		.thumb_func
 475              		.fpu fpv4-sp-d16
 477              	HAL_PCD_DataInStageCallback:
 478              	.LFB407:
 479              		.cfi_startproc
 480              		@ args = 0, pretend = 0, frame = 0
 481              		@ frame_needed = 0, uses_anonymous_args = 0
 482              		@ link register save eliminated.
 483 0000 7047     		bx	lr
 484              		.cfi_endproc
 485              	.LFE407:
 487              		.section	.text.HAL_PCD_SetupStageCallback,"ax",%progbits
 488              		.align	1
 489              		.weak	HAL_PCD_SetupStageCallback
 490              		.syntax unified
 491              		.thumb
ARM GAS  /tmp/cclKjP2I.s 			page 31


 492              		.thumb_func
 493              		.fpu fpv4-sp-d16
 495              	HAL_PCD_SetupStageCallback:
 496              	.LFB395:
 497              		.cfi_startproc
 498              		@ args = 0, pretend = 0, frame = 0
 499              		@ frame_needed = 0, uses_anonymous_args = 0
 500              		@ link register save eliminated.
 501 0000 7047     		bx	lr
 502              		.cfi_endproc
 503              	.LFE395:
 505              		.section	.text.HAL_PCD_SOFCallback,"ax",%progbits
 506              		.align	1
 507              		.weak	HAL_PCD_SOFCallback
 508              		.syntax unified
 509              		.thumb
 510              		.thumb_func
 511              		.fpu fpv4-sp-d16
 513              	HAL_PCD_SOFCallback:
 514              	.LFB393:
 515              		.cfi_startproc
 516              		@ args = 0, pretend = 0, frame = 0
 517              		@ frame_needed = 0, uses_anonymous_args = 0
 518              		@ link register save eliminated.
 519 0000 7047     		bx	lr
 520              		.cfi_endproc
 521              	.LFE393:
 523              		.section	.text.HAL_PCD_ResetCallback,"ax",%progbits
 524              		.align	1
 525              		.weak	HAL_PCD_ResetCallback
 526              		.syntax unified
 527              		.thumb
 528              		.thumb_func
 529              		.fpu fpv4-sp-d16
 531              	HAL_PCD_ResetCallback:
 532              	.LFB397:
 533              		.cfi_startproc
 534              		@ args = 0, pretend = 0, frame = 0
 535              		@ frame_needed = 0, uses_anonymous_args = 0
 536              		@ link register save eliminated.
 537 0000 7047     		bx	lr
 538              		.cfi_endproc
 539              	.LFE397:
 541              		.section	.text.HAL_PCD_SuspendCallback,"ax",%progbits
 542              		.align	1
 543              		.weak	HAL_PCD_SuspendCallback
 544              		.syntax unified
 545              		.thumb
 546              		.thumb_func
 547              		.fpu fpv4-sp-d16
 549              	HAL_PCD_SuspendCallback:
 550              	.LFB399:
 551              		.cfi_startproc
 552              		@ args = 0, pretend = 0, frame = 0
 553              		@ frame_needed = 0, uses_anonymous_args = 0
 554              		@ link register save eliminated.
 555 0000 7047     		bx	lr
ARM GAS  /tmp/cclKjP2I.s 			page 32


 556              		.cfi_endproc
 557              	.LFE399:
 559              		.section	.text.HAL_PCD_ResumeCallback,"ax",%progbits
 560              		.align	1
 561              		.weak	HAL_PCD_ResumeCallback
 562              		.syntax unified
 563              		.thumb
 564              		.thumb_func
 565              		.fpu fpv4-sp-d16
 567              	HAL_PCD_ResumeCallback:
 568              	.LFB401:
 569              		.cfi_startproc
 570              		@ args = 0, pretend = 0, frame = 0
 571              		@ frame_needed = 0, uses_anonymous_args = 0
 572              		@ link register save eliminated.
 573 0000 7047     		bx	lr
 574              		.cfi_endproc
 575              	.LFE401:
 577              		.section	.text.HAL_PCD_ISOOUTIncompleteCallback,"ax",%progbits
 578              		.align	1
 579              		.weak	HAL_PCD_ISOOUTIncompleteCallback
 580              		.syntax unified
 581              		.thumb
 582              		.thumb_func
 583              		.fpu fpv4-sp-d16
 585              	HAL_PCD_ISOOUTIncompleteCallback:
 586              	.LFB409:
 587              		.cfi_startproc
 588              		@ args = 0, pretend = 0, frame = 0
 589              		@ frame_needed = 0, uses_anonymous_args = 0
 590              		@ link register save eliminated.
 591 0000 7047     		bx	lr
 592              		.cfi_endproc
 593              	.LFE409:
 595              		.section	.text.HAL_PCD_ISOINIncompleteCallback,"ax",%progbits
 596              		.align	1
 597              		.weak	HAL_PCD_ISOINIncompleteCallback
 598              		.syntax unified
 599              		.thumb
 600              		.thumb_func
 601              		.fpu fpv4-sp-d16
 603              	HAL_PCD_ISOINIncompleteCallback:
 604              	.LFB411:
 605              		.cfi_startproc
 606              		@ args = 0, pretend = 0, frame = 0
 607              		@ frame_needed = 0, uses_anonymous_args = 0
 608              		@ link register save eliminated.
 609 0000 7047     		bx	lr
 610              		.cfi_endproc
 611              	.LFE411:
 613              		.section	.text.HAL_PCD_ConnectCallback,"ax",%progbits
 614              		.align	1
 615              		.weak	HAL_PCD_ConnectCallback
 616              		.syntax unified
 617              		.thumb
 618              		.thumb_func
 619              		.fpu fpv4-sp-d16
ARM GAS  /tmp/cclKjP2I.s 			page 33


 621              	HAL_PCD_ConnectCallback:
 622              	.LFB403:
 623              		.cfi_startproc
 624              		@ args = 0, pretend = 0, frame = 0
 625              		@ frame_needed = 0, uses_anonymous_args = 0
 626              		@ link register save eliminated.
 627 0000 7047     		bx	lr
 628              		.cfi_endproc
 629              	.LFE403:
 631              		.section	.text.HAL_PCD_DisconnectCallback,"ax",%progbits
 632              		.align	1
 633              		.weak	HAL_PCD_DisconnectCallback
 634              		.syntax unified
 635              		.thumb
 636              		.thumb_func
 637              		.fpu fpv4-sp-d16
 639              	HAL_PCD_DisconnectCallback:
 640              	.LFB405:
 641              		.cfi_startproc
 642              		@ args = 0, pretend = 0, frame = 0
 643              		@ frame_needed = 0, uses_anonymous_args = 0
 644              		@ link register save eliminated.
 645 0000 7047     		bx	lr
 646              		.cfi_endproc
 647              	.LFE405:
 649              		.section	.text.HAL_PCD_DevConnect,"ax",%progbits
 650              		.align	1
 651              		.global	HAL_PCD_DevConnect
 652              		.syntax unified
 653              		.thumb
 654              		.thumb_func
 655              		.fpu fpv4-sp-d16
 657              	HAL_PCD_DevConnect:
 658              	.LVL37:
 659              	.LFB375:
1133:Drivers/STM32G4xx_HAL_Driver/Src/stm32g4xx_hal_pcd.c **** 
1134:Drivers/STM32G4xx_HAL_Driver/Src/stm32g4xx_hal_pcd.c **** /**
1135:Drivers/STM32G4xx_HAL_Driver/Src/stm32g4xx_hal_pcd.c ****   * @brief  Data IN stage callback
1136:Drivers/STM32G4xx_HAL_Driver/Src/stm32g4xx_hal_pcd.c ****   * @param  hpcd PCD handle
1137:Drivers/STM32G4xx_HAL_Driver/Src/stm32g4xx_hal_pcd.c ****   * @param  epnum endpoint number
1138:Drivers/STM32G4xx_HAL_Driver/Src/stm32g4xx_hal_pcd.c ****   * @retval None
1139:Drivers/STM32G4xx_HAL_Driver/Src/stm32g4xx_hal_pcd.c ****   */
1140:Drivers/STM32G4xx_HAL_Driver/Src/stm32g4xx_hal_pcd.c **** __weak void HAL_PCD_DataInStageCallback(PCD_HandleTypeDef *hpcd, uint8_t epnum)
1141:Drivers/STM32G4xx_HAL_Driver/Src/stm32g4xx_hal_pcd.c **** {
1142:Drivers/STM32G4xx_HAL_Driver/Src/stm32g4xx_hal_pcd.c ****   /* Prevent unused argument(s) compilation warning */
1143:Drivers/STM32G4xx_HAL_Driver/Src/stm32g4xx_hal_pcd.c ****   UNUSED(hpcd);
1144:Drivers/STM32G4xx_HAL_Driver/Src/stm32g4xx_hal_pcd.c ****   UNUSED(epnum);
1145:Drivers/STM32G4xx_HAL_Driver/Src/stm32g4xx_hal_pcd.c **** 
1146:Drivers/STM32G4xx_HAL_Driver/Src/stm32g4xx_hal_pcd.c ****   /* NOTE : This function should not be modified, when the callback is needed,
1147:Drivers/STM32G4xx_HAL_Driver/Src/stm32g4xx_hal_pcd.c ****             the HAL_PCD_DataInStageCallback could be implemented in the user file
1148:Drivers/STM32G4xx_HAL_Driver/Src/stm32g4xx_hal_pcd.c ****    */
1149:Drivers/STM32G4xx_HAL_Driver/Src/stm32g4xx_hal_pcd.c **** }
1150:Drivers/STM32G4xx_HAL_Driver/Src/stm32g4xx_hal_pcd.c **** /**
1151:Drivers/STM32G4xx_HAL_Driver/Src/stm32g4xx_hal_pcd.c ****   * @brief  Setup stage callback
1152:Drivers/STM32G4xx_HAL_Driver/Src/stm32g4xx_hal_pcd.c ****   * @param  hpcd PCD handle
1153:Drivers/STM32G4xx_HAL_Driver/Src/stm32g4xx_hal_pcd.c ****   * @retval None
1154:Drivers/STM32G4xx_HAL_Driver/Src/stm32g4xx_hal_pcd.c ****   */
ARM GAS  /tmp/cclKjP2I.s 			page 34


1155:Drivers/STM32G4xx_HAL_Driver/Src/stm32g4xx_hal_pcd.c **** __weak void HAL_PCD_SetupStageCallback(PCD_HandleTypeDef *hpcd)
1156:Drivers/STM32G4xx_HAL_Driver/Src/stm32g4xx_hal_pcd.c **** {
1157:Drivers/STM32G4xx_HAL_Driver/Src/stm32g4xx_hal_pcd.c ****   /* Prevent unused argument(s) compilation warning */
1158:Drivers/STM32G4xx_HAL_Driver/Src/stm32g4xx_hal_pcd.c ****   UNUSED(hpcd);
1159:Drivers/STM32G4xx_HAL_Driver/Src/stm32g4xx_hal_pcd.c **** 
1160:Drivers/STM32G4xx_HAL_Driver/Src/stm32g4xx_hal_pcd.c ****   /* NOTE : This function should not be modified, when the callback is needed,
1161:Drivers/STM32G4xx_HAL_Driver/Src/stm32g4xx_hal_pcd.c ****             the HAL_PCD_SetupStageCallback could be implemented in the user file
1162:Drivers/STM32G4xx_HAL_Driver/Src/stm32g4xx_hal_pcd.c ****    */
1163:Drivers/STM32G4xx_HAL_Driver/Src/stm32g4xx_hal_pcd.c **** }
1164:Drivers/STM32G4xx_HAL_Driver/Src/stm32g4xx_hal_pcd.c **** 
1165:Drivers/STM32G4xx_HAL_Driver/Src/stm32g4xx_hal_pcd.c **** /**
1166:Drivers/STM32G4xx_HAL_Driver/Src/stm32g4xx_hal_pcd.c ****   * @brief  USB Start Of Frame callback.
1167:Drivers/STM32G4xx_HAL_Driver/Src/stm32g4xx_hal_pcd.c ****   * @param  hpcd PCD handle
1168:Drivers/STM32G4xx_HAL_Driver/Src/stm32g4xx_hal_pcd.c ****   * @retval None
1169:Drivers/STM32G4xx_HAL_Driver/Src/stm32g4xx_hal_pcd.c ****   */
1170:Drivers/STM32G4xx_HAL_Driver/Src/stm32g4xx_hal_pcd.c **** __weak void HAL_PCD_SOFCallback(PCD_HandleTypeDef *hpcd)
1171:Drivers/STM32G4xx_HAL_Driver/Src/stm32g4xx_hal_pcd.c **** {
1172:Drivers/STM32G4xx_HAL_Driver/Src/stm32g4xx_hal_pcd.c ****   /* Prevent unused argument(s) compilation warning */
1173:Drivers/STM32G4xx_HAL_Driver/Src/stm32g4xx_hal_pcd.c ****   UNUSED(hpcd);
1174:Drivers/STM32G4xx_HAL_Driver/Src/stm32g4xx_hal_pcd.c **** 
1175:Drivers/STM32G4xx_HAL_Driver/Src/stm32g4xx_hal_pcd.c ****   /* NOTE : This function should not be modified, when the callback is needed,
1176:Drivers/STM32G4xx_HAL_Driver/Src/stm32g4xx_hal_pcd.c ****             the HAL_PCD_SOFCallback could be implemented in the user file
1177:Drivers/STM32G4xx_HAL_Driver/Src/stm32g4xx_hal_pcd.c ****    */
1178:Drivers/STM32G4xx_HAL_Driver/Src/stm32g4xx_hal_pcd.c **** }
1179:Drivers/STM32G4xx_HAL_Driver/Src/stm32g4xx_hal_pcd.c **** 
1180:Drivers/STM32G4xx_HAL_Driver/Src/stm32g4xx_hal_pcd.c **** /**
1181:Drivers/STM32G4xx_HAL_Driver/Src/stm32g4xx_hal_pcd.c ****   * @brief  USB Reset callback.
1182:Drivers/STM32G4xx_HAL_Driver/Src/stm32g4xx_hal_pcd.c ****   * @param  hpcd PCD handle
1183:Drivers/STM32G4xx_HAL_Driver/Src/stm32g4xx_hal_pcd.c ****   * @retval None
1184:Drivers/STM32G4xx_HAL_Driver/Src/stm32g4xx_hal_pcd.c ****   */
1185:Drivers/STM32G4xx_HAL_Driver/Src/stm32g4xx_hal_pcd.c **** __weak void HAL_PCD_ResetCallback(PCD_HandleTypeDef *hpcd)
1186:Drivers/STM32G4xx_HAL_Driver/Src/stm32g4xx_hal_pcd.c **** {
1187:Drivers/STM32G4xx_HAL_Driver/Src/stm32g4xx_hal_pcd.c ****   /* Prevent unused argument(s) compilation warning */
1188:Drivers/STM32G4xx_HAL_Driver/Src/stm32g4xx_hal_pcd.c ****   UNUSED(hpcd);
1189:Drivers/STM32G4xx_HAL_Driver/Src/stm32g4xx_hal_pcd.c **** 
1190:Drivers/STM32G4xx_HAL_Driver/Src/stm32g4xx_hal_pcd.c ****   /* NOTE : This function should not be modified, when the callback is needed,
1191:Drivers/STM32G4xx_HAL_Driver/Src/stm32g4xx_hal_pcd.c ****             the HAL_PCD_ResetCallback could be implemented in the user file
1192:Drivers/STM32G4xx_HAL_Driver/Src/stm32g4xx_hal_pcd.c ****    */
1193:Drivers/STM32G4xx_HAL_Driver/Src/stm32g4xx_hal_pcd.c **** }
1194:Drivers/STM32G4xx_HAL_Driver/Src/stm32g4xx_hal_pcd.c **** 
1195:Drivers/STM32G4xx_HAL_Driver/Src/stm32g4xx_hal_pcd.c **** /**
1196:Drivers/STM32G4xx_HAL_Driver/Src/stm32g4xx_hal_pcd.c ****   * @brief  Suspend event callback.
1197:Drivers/STM32G4xx_HAL_Driver/Src/stm32g4xx_hal_pcd.c ****   * @param  hpcd PCD handle
1198:Drivers/STM32G4xx_HAL_Driver/Src/stm32g4xx_hal_pcd.c ****   * @retval None
1199:Drivers/STM32G4xx_HAL_Driver/Src/stm32g4xx_hal_pcd.c ****   */
1200:Drivers/STM32G4xx_HAL_Driver/Src/stm32g4xx_hal_pcd.c **** __weak void HAL_PCD_SuspendCallback(PCD_HandleTypeDef *hpcd)
1201:Drivers/STM32G4xx_HAL_Driver/Src/stm32g4xx_hal_pcd.c **** {
1202:Drivers/STM32G4xx_HAL_Driver/Src/stm32g4xx_hal_pcd.c ****   /* Prevent unused argument(s) compilation warning */
1203:Drivers/STM32G4xx_HAL_Driver/Src/stm32g4xx_hal_pcd.c ****   UNUSED(hpcd);
1204:Drivers/STM32G4xx_HAL_Driver/Src/stm32g4xx_hal_pcd.c **** 
1205:Drivers/STM32G4xx_HAL_Driver/Src/stm32g4xx_hal_pcd.c ****   /* NOTE : This function should not be modified, when the callback is needed,
1206:Drivers/STM32G4xx_HAL_Driver/Src/stm32g4xx_hal_pcd.c ****             the HAL_PCD_SuspendCallback could be implemented in the user file
1207:Drivers/STM32G4xx_HAL_Driver/Src/stm32g4xx_hal_pcd.c ****    */
1208:Drivers/STM32G4xx_HAL_Driver/Src/stm32g4xx_hal_pcd.c **** }
1209:Drivers/STM32G4xx_HAL_Driver/Src/stm32g4xx_hal_pcd.c **** 
1210:Drivers/STM32G4xx_HAL_Driver/Src/stm32g4xx_hal_pcd.c **** /**
1211:Drivers/STM32G4xx_HAL_Driver/Src/stm32g4xx_hal_pcd.c ****   * @brief  Resume event callback.
ARM GAS  /tmp/cclKjP2I.s 			page 35


1212:Drivers/STM32G4xx_HAL_Driver/Src/stm32g4xx_hal_pcd.c ****   * @param  hpcd PCD handle
1213:Drivers/STM32G4xx_HAL_Driver/Src/stm32g4xx_hal_pcd.c ****   * @retval None
1214:Drivers/STM32G4xx_HAL_Driver/Src/stm32g4xx_hal_pcd.c ****   */
1215:Drivers/STM32G4xx_HAL_Driver/Src/stm32g4xx_hal_pcd.c **** __weak void HAL_PCD_ResumeCallback(PCD_HandleTypeDef *hpcd)
1216:Drivers/STM32G4xx_HAL_Driver/Src/stm32g4xx_hal_pcd.c **** {
1217:Drivers/STM32G4xx_HAL_Driver/Src/stm32g4xx_hal_pcd.c ****   /* Prevent unused argument(s) compilation warning */
1218:Drivers/STM32G4xx_HAL_Driver/Src/stm32g4xx_hal_pcd.c ****   UNUSED(hpcd);
1219:Drivers/STM32G4xx_HAL_Driver/Src/stm32g4xx_hal_pcd.c **** 
1220:Drivers/STM32G4xx_HAL_Driver/Src/stm32g4xx_hal_pcd.c ****   /* NOTE : This function should not be modified, when the callback is needed,
1221:Drivers/STM32G4xx_HAL_Driver/Src/stm32g4xx_hal_pcd.c ****             the HAL_PCD_ResumeCallback could be implemented in the user file
1222:Drivers/STM32G4xx_HAL_Driver/Src/stm32g4xx_hal_pcd.c ****    */
1223:Drivers/STM32G4xx_HAL_Driver/Src/stm32g4xx_hal_pcd.c **** }
1224:Drivers/STM32G4xx_HAL_Driver/Src/stm32g4xx_hal_pcd.c **** 
1225:Drivers/STM32G4xx_HAL_Driver/Src/stm32g4xx_hal_pcd.c **** /**
1226:Drivers/STM32G4xx_HAL_Driver/Src/stm32g4xx_hal_pcd.c ****   * @brief  Incomplete ISO OUT callback.
1227:Drivers/STM32G4xx_HAL_Driver/Src/stm32g4xx_hal_pcd.c ****   * @param  hpcd PCD handle
1228:Drivers/STM32G4xx_HAL_Driver/Src/stm32g4xx_hal_pcd.c ****   * @param  epnum endpoint number
1229:Drivers/STM32G4xx_HAL_Driver/Src/stm32g4xx_hal_pcd.c ****   * @retval None
1230:Drivers/STM32G4xx_HAL_Driver/Src/stm32g4xx_hal_pcd.c ****   */
1231:Drivers/STM32G4xx_HAL_Driver/Src/stm32g4xx_hal_pcd.c **** __weak void HAL_PCD_ISOOUTIncompleteCallback(PCD_HandleTypeDef *hpcd, uint8_t epnum)
1232:Drivers/STM32G4xx_HAL_Driver/Src/stm32g4xx_hal_pcd.c **** {
1233:Drivers/STM32G4xx_HAL_Driver/Src/stm32g4xx_hal_pcd.c ****   /* Prevent unused argument(s) compilation warning */
1234:Drivers/STM32G4xx_HAL_Driver/Src/stm32g4xx_hal_pcd.c ****   UNUSED(hpcd);
1235:Drivers/STM32G4xx_HAL_Driver/Src/stm32g4xx_hal_pcd.c ****   UNUSED(epnum);
1236:Drivers/STM32G4xx_HAL_Driver/Src/stm32g4xx_hal_pcd.c **** 
1237:Drivers/STM32G4xx_HAL_Driver/Src/stm32g4xx_hal_pcd.c ****   /* NOTE : This function should not be modified, when the callback is needed,
1238:Drivers/STM32G4xx_HAL_Driver/Src/stm32g4xx_hal_pcd.c ****             the HAL_PCD_ISOOUTIncompleteCallback could be implemented in the user file
1239:Drivers/STM32G4xx_HAL_Driver/Src/stm32g4xx_hal_pcd.c ****    */
1240:Drivers/STM32G4xx_HAL_Driver/Src/stm32g4xx_hal_pcd.c **** }
1241:Drivers/STM32G4xx_HAL_Driver/Src/stm32g4xx_hal_pcd.c **** 
1242:Drivers/STM32G4xx_HAL_Driver/Src/stm32g4xx_hal_pcd.c **** /**
1243:Drivers/STM32G4xx_HAL_Driver/Src/stm32g4xx_hal_pcd.c ****   * @brief  Incomplete ISO IN callback.
1244:Drivers/STM32G4xx_HAL_Driver/Src/stm32g4xx_hal_pcd.c ****   * @param  hpcd PCD handle
1245:Drivers/STM32G4xx_HAL_Driver/Src/stm32g4xx_hal_pcd.c ****   * @param  epnum endpoint number
1246:Drivers/STM32G4xx_HAL_Driver/Src/stm32g4xx_hal_pcd.c ****   * @retval None
1247:Drivers/STM32G4xx_HAL_Driver/Src/stm32g4xx_hal_pcd.c ****   */
1248:Drivers/STM32G4xx_HAL_Driver/Src/stm32g4xx_hal_pcd.c **** __weak void HAL_PCD_ISOINIncompleteCallback(PCD_HandleTypeDef *hpcd, uint8_t epnum)
1249:Drivers/STM32G4xx_HAL_Driver/Src/stm32g4xx_hal_pcd.c **** {
1250:Drivers/STM32G4xx_HAL_Driver/Src/stm32g4xx_hal_pcd.c ****   /* Prevent unused argument(s) compilation warning */
1251:Drivers/STM32G4xx_HAL_Driver/Src/stm32g4xx_hal_pcd.c ****   UNUSED(hpcd);
1252:Drivers/STM32G4xx_HAL_Driver/Src/stm32g4xx_hal_pcd.c ****   UNUSED(epnum);
1253:Drivers/STM32G4xx_HAL_Driver/Src/stm32g4xx_hal_pcd.c **** 
1254:Drivers/STM32G4xx_HAL_Driver/Src/stm32g4xx_hal_pcd.c ****   /* NOTE : This function should not be modified, when the callback is needed,
1255:Drivers/STM32G4xx_HAL_Driver/Src/stm32g4xx_hal_pcd.c ****             the HAL_PCD_ISOINIncompleteCallback could be implemented in the user file
1256:Drivers/STM32G4xx_HAL_Driver/Src/stm32g4xx_hal_pcd.c ****    */
1257:Drivers/STM32G4xx_HAL_Driver/Src/stm32g4xx_hal_pcd.c **** }
1258:Drivers/STM32G4xx_HAL_Driver/Src/stm32g4xx_hal_pcd.c **** 
1259:Drivers/STM32G4xx_HAL_Driver/Src/stm32g4xx_hal_pcd.c **** /**
1260:Drivers/STM32G4xx_HAL_Driver/Src/stm32g4xx_hal_pcd.c ****   * @brief  Connection event callback.
1261:Drivers/STM32G4xx_HAL_Driver/Src/stm32g4xx_hal_pcd.c ****   * @param  hpcd PCD handle
1262:Drivers/STM32G4xx_HAL_Driver/Src/stm32g4xx_hal_pcd.c ****   * @retval None
1263:Drivers/STM32G4xx_HAL_Driver/Src/stm32g4xx_hal_pcd.c ****   */
1264:Drivers/STM32G4xx_HAL_Driver/Src/stm32g4xx_hal_pcd.c **** __weak void HAL_PCD_ConnectCallback(PCD_HandleTypeDef *hpcd)
1265:Drivers/STM32G4xx_HAL_Driver/Src/stm32g4xx_hal_pcd.c **** {
1266:Drivers/STM32G4xx_HAL_Driver/Src/stm32g4xx_hal_pcd.c ****   /* Prevent unused argument(s) compilation warning */
1267:Drivers/STM32G4xx_HAL_Driver/Src/stm32g4xx_hal_pcd.c ****   UNUSED(hpcd);
1268:Drivers/STM32G4xx_HAL_Driver/Src/stm32g4xx_hal_pcd.c **** 
ARM GAS  /tmp/cclKjP2I.s 			page 36


1269:Drivers/STM32G4xx_HAL_Driver/Src/stm32g4xx_hal_pcd.c ****   /* NOTE : This function should not be modified, when the callback is needed,
1270:Drivers/STM32G4xx_HAL_Driver/Src/stm32g4xx_hal_pcd.c ****             the HAL_PCD_ConnectCallback could be implemented in the user file
1271:Drivers/STM32G4xx_HAL_Driver/Src/stm32g4xx_hal_pcd.c ****    */
1272:Drivers/STM32G4xx_HAL_Driver/Src/stm32g4xx_hal_pcd.c **** }
1273:Drivers/STM32G4xx_HAL_Driver/Src/stm32g4xx_hal_pcd.c **** 
1274:Drivers/STM32G4xx_HAL_Driver/Src/stm32g4xx_hal_pcd.c **** /**
1275:Drivers/STM32G4xx_HAL_Driver/Src/stm32g4xx_hal_pcd.c ****   * @brief  Disconnection event callback.
1276:Drivers/STM32G4xx_HAL_Driver/Src/stm32g4xx_hal_pcd.c ****   * @param  hpcd PCD handle
1277:Drivers/STM32G4xx_HAL_Driver/Src/stm32g4xx_hal_pcd.c ****   * @retval None
1278:Drivers/STM32G4xx_HAL_Driver/Src/stm32g4xx_hal_pcd.c ****   */
1279:Drivers/STM32G4xx_HAL_Driver/Src/stm32g4xx_hal_pcd.c **** __weak void HAL_PCD_DisconnectCallback(PCD_HandleTypeDef *hpcd)
1280:Drivers/STM32G4xx_HAL_Driver/Src/stm32g4xx_hal_pcd.c **** {
1281:Drivers/STM32G4xx_HAL_Driver/Src/stm32g4xx_hal_pcd.c ****   /* Prevent unused argument(s) compilation warning */
1282:Drivers/STM32G4xx_HAL_Driver/Src/stm32g4xx_hal_pcd.c ****   UNUSED(hpcd);
1283:Drivers/STM32G4xx_HAL_Driver/Src/stm32g4xx_hal_pcd.c **** 
1284:Drivers/STM32G4xx_HAL_Driver/Src/stm32g4xx_hal_pcd.c ****   /* NOTE : This function should not be modified, when the callback is needed,
1285:Drivers/STM32G4xx_HAL_Driver/Src/stm32g4xx_hal_pcd.c ****             the HAL_PCD_DisconnectCallback could be implemented in the user file
1286:Drivers/STM32G4xx_HAL_Driver/Src/stm32g4xx_hal_pcd.c ****    */
1287:Drivers/STM32G4xx_HAL_Driver/Src/stm32g4xx_hal_pcd.c **** }
1288:Drivers/STM32G4xx_HAL_Driver/Src/stm32g4xx_hal_pcd.c **** 
1289:Drivers/STM32G4xx_HAL_Driver/Src/stm32g4xx_hal_pcd.c **** /**
1290:Drivers/STM32G4xx_HAL_Driver/Src/stm32g4xx_hal_pcd.c ****   * @}
1291:Drivers/STM32G4xx_HAL_Driver/Src/stm32g4xx_hal_pcd.c ****   */
1292:Drivers/STM32G4xx_HAL_Driver/Src/stm32g4xx_hal_pcd.c **** 
1293:Drivers/STM32G4xx_HAL_Driver/Src/stm32g4xx_hal_pcd.c **** /** @defgroup PCD_Exported_Functions_Group3 Peripheral Control functions
1294:Drivers/STM32G4xx_HAL_Driver/Src/stm32g4xx_hal_pcd.c ****  *  @brief   management functions
1295:Drivers/STM32G4xx_HAL_Driver/Src/stm32g4xx_hal_pcd.c ****  *
1296:Drivers/STM32G4xx_HAL_Driver/Src/stm32g4xx_hal_pcd.c **** @verbatim
1297:Drivers/STM32G4xx_HAL_Driver/Src/stm32g4xx_hal_pcd.c ****  ===============================================================================
1298:Drivers/STM32G4xx_HAL_Driver/Src/stm32g4xx_hal_pcd.c ****                       ##### Peripheral Control functions #####
1299:Drivers/STM32G4xx_HAL_Driver/Src/stm32g4xx_hal_pcd.c ****  ===============================================================================
1300:Drivers/STM32G4xx_HAL_Driver/Src/stm32g4xx_hal_pcd.c ****     [..]
1301:Drivers/STM32G4xx_HAL_Driver/Src/stm32g4xx_hal_pcd.c ****     This subsection provides a set of functions allowing to control the PCD data
1302:Drivers/STM32G4xx_HAL_Driver/Src/stm32g4xx_hal_pcd.c ****     transfers.
1303:Drivers/STM32G4xx_HAL_Driver/Src/stm32g4xx_hal_pcd.c **** 
1304:Drivers/STM32G4xx_HAL_Driver/Src/stm32g4xx_hal_pcd.c **** @endverbatim
1305:Drivers/STM32G4xx_HAL_Driver/Src/stm32g4xx_hal_pcd.c ****   * @{
1306:Drivers/STM32G4xx_HAL_Driver/Src/stm32g4xx_hal_pcd.c ****   */
1307:Drivers/STM32G4xx_HAL_Driver/Src/stm32g4xx_hal_pcd.c **** 
1308:Drivers/STM32G4xx_HAL_Driver/Src/stm32g4xx_hal_pcd.c **** /**
1309:Drivers/STM32G4xx_HAL_Driver/Src/stm32g4xx_hal_pcd.c ****   * @brief  Connect the USB device
1310:Drivers/STM32G4xx_HAL_Driver/Src/stm32g4xx_hal_pcd.c ****   * @param  hpcd PCD handle
1311:Drivers/STM32G4xx_HAL_Driver/Src/stm32g4xx_hal_pcd.c ****   * @retval HAL status
1312:Drivers/STM32G4xx_HAL_Driver/Src/stm32g4xx_hal_pcd.c ****   */
1313:Drivers/STM32G4xx_HAL_Driver/Src/stm32g4xx_hal_pcd.c **** HAL_StatusTypeDef HAL_PCD_DevConnect(PCD_HandleTypeDef *hpcd)
1314:Drivers/STM32G4xx_HAL_Driver/Src/stm32g4xx_hal_pcd.c **** {
 660              		.loc 1 1314 1 is_stmt 1 view -0
 661              		.cfi_startproc
 662              		@ args = 0, pretend = 0, frame = 0
 663              		@ frame_needed = 0, uses_anonymous_args = 0
1315:Drivers/STM32G4xx_HAL_Driver/Src/stm32g4xx_hal_pcd.c ****   __HAL_LOCK(hpcd);
 664              		.loc 1 1315 3 view .LVU143
 665              		.loc 1 1315 3 view .LVU144
1314:Drivers/STM32G4xx_HAL_Driver/Src/stm32g4xx_hal_pcd.c ****   __HAL_LOCK(hpcd);
 666              		.loc 1 1314 1 is_stmt 0 view .LVU145
 667 0000 10B5     		push	{r4, lr}
 668              	.LCFI6:
ARM GAS  /tmp/cclKjP2I.s 			page 37


 669              		.cfi_def_cfa_offset 8
 670              		.cfi_offset 4, -8
 671              		.cfi_offset 14, -4
 672              		.loc 1 1315 3 view .LVU146
 673 0002 90F82832 		ldrb	r3, [r0, #552]	@ zero_extendqisi2
 674 0006 012B     		cmp	r3, #1
1314:Drivers/STM32G4xx_HAL_Driver/Src/stm32g4xx_hal_pcd.c ****   __HAL_LOCK(hpcd);
 675              		.loc 1 1314 1 view .LVU147
 676 0008 0446     		mov	r4, r0
 677              		.loc 1 1315 3 view .LVU148
 678 000a 09D0     		beq	.L34
 679              		.loc 1 1315 3 is_stmt 1 discriminator 2 view .LVU149
 680 000c 0123     		movs	r3, #1
 681 000e 80F82832 		strb	r3, [r0, #552]
 682              		.loc 1 1315 3 discriminator 2 view .LVU150
1316:Drivers/STM32G4xx_HAL_Driver/Src/stm32g4xx_hal_pcd.c ****   (void)USB_DevConnect(hpcd->Instance);
 683              		.loc 1 1316 3 discriminator 2 view .LVU151
 684              		.loc 1 1316 9 is_stmt 0 discriminator 2 view .LVU152
 685 0012 0068     		ldr	r0, [r0]
 686              	.LVL38:
 687              		.loc 1 1316 9 discriminator 2 view .LVU153
 688 0014 FFF7FEFF 		bl	USB_DevConnect
 689              	.LVL39:
1317:Drivers/STM32G4xx_HAL_Driver/Src/stm32g4xx_hal_pcd.c ****   __HAL_UNLOCK(hpcd);
 690              		.loc 1 1317 3 is_stmt 1 discriminator 2 view .LVU154
 691              		.loc 1 1317 3 discriminator 2 view .LVU155
 692 0018 0020     		movs	r0, #0
 693 001a 84F82802 		strb	r0, [r4, #552]
 694              		.loc 1 1317 3 discriminator 2 view .LVU156
1318:Drivers/STM32G4xx_HAL_Driver/Src/stm32g4xx_hal_pcd.c ****   return HAL_OK;
 695              		.loc 1 1318 3 discriminator 2 view .LVU157
 696              	.L33:
1319:Drivers/STM32G4xx_HAL_Driver/Src/stm32g4xx_hal_pcd.c **** }
 697              		.loc 1 1319 1 is_stmt 0 view .LVU158
 698 001e 10BD     		pop	{r4, pc}
 699              	.LVL40:
 700              	.L34:
1315:Drivers/STM32G4xx_HAL_Driver/Src/stm32g4xx_hal_pcd.c ****   (void)USB_DevConnect(hpcd->Instance);
 701              		.loc 1 1315 3 view .LVU159
 702 0020 0220     		movs	r0, #2
 703              	.LVL41:
1315:Drivers/STM32G4xx_HAL_Driver/Src/stm32g4xx_hal_pcd.c ****   (void)USB_DevConnect(hpcd->Instance);
 704              		.loc 1 1315 3 view .LVU160
 705 0022 FCE7     		b	.L33
 706              		.cfi_endproc
 707              	.LFE375:
 709              		.section	.text.HAL_PCD_DevDisconnect,"ax",%progbits
 710              		.align	1
 711              		.global	HAL_PCD_DevDisconnect
 712              		.syntax unified
 713              		.thumb
 714              		.thumb_func
 715              		.fpu fpv4-sp-d16
 717              	HAL_PCD_DevDisconnect:
 718              	.LVL42:
 719              	.LFB376:
1320:Drivers/STM32G4xx_HAL_Driver/Src/stm32g4xx_hal_pcd.c **** 
ARM GAS  /tmp/cclKjP2I.s 			page 38


1321:Drivers/STM32G4xx_HAL_Driver/Src/stm32g4xx_hal_pcd.c **** /**
1322:Drivers/STM32G4xx_HAL_Driver/Src/stm32g4xx_hal_pcd.c ****   * @brief  Disconnect the USB device.
1323:Drivers/STM32G4xx_HAL_Driver/Src/stm32g4xx_hal_pcd.c ****   * @param  hpcd PCD handle
1324:Drivers/STM32G4xx_HAL_Driver/Src/stm32g4xx_hal_pcd.c ****   * @retval HAL status
1325:Drivers/STM32G4xx_HAL_Driver/Src/stm32g4xx_hal_pcd.c ****   */
1326:Drivers/STM32G4xx_HAL_Driver/Src/stm32g4xx_hal_pcd.c **** HAL_StatusTypeDef HAL_PCD_DevDisconnect(PCD_HandleTypeDef *hpcd)
1327:Drivers/STM32G4xx_HAL_Driver/Src/stm32g4xx_hal_pcd.c **** {
 720              		.loc 1 1327 1 is_stmt 1 view -0
 721              		.cfi_startproc
 722              		@ args = 0, pretend = 0, frame = 0
 723              		@ frame_needed = 0, uses_anonymous_args = 0
1328:Drivers/STM32G4xx_HAL_Driver/Src/stm32g4xx_hal_pcd.c ****   __HAL_LOCK(hpcd);
 724              		.loc 1 1328 3 view .LVU162
 725              		.loc 1 1328 3 view .LVU163
1327:Drivers/STM32G4xx_HAL_Driver/Src/stm32g4xx_hal_pcd.c ****   __HAL_LOCK(hpcd);
 726              		.loc 1 1327 1 is_stmt 0 view .LVU164
 727 0000 10B5     		push	{r4, lr}
 728              	.LCFI7:
 729              		.cfi_def_cfa_offset 8
 730              		.cfi_offset 4, -8
 731              		.cfi_offset 14, -4
 732              		.loc 1 1328 3 view .LVU165
 733 0002 90F82832 		ldrb	r3, [r0, #552]	@ zero_extendqisi2
 734 0006 012B     		cmp	r3, #1
1327:Drivers/STM32G4xx_HAL_Driver/Src/stm32g4xx_hal_pcd.c ****   __HAL_LOCK(hpcd);
 735              		.loc 1 1327 1 view .LVU166
 736 0008 0446     		mov	r4, r0
 737              		.loc 1 1328 3 view .LVU167
 738 000a 09D0     		beq	.L37
 739              		.loc 1 1328 3 is_stmt 1 discriminator 2 view .LVU168
 740 000c 0123     		movs	r3, #1
 741 000e 80F82832 		strb	r3, [r0, #552]
 742              		.loc 1 1328 3 discriminator 2 view .LVU169
1329:Drivers/STM32G4xx_HAL_Driver/Src/stm32g4xx_hal_pcd.c ****   (void)USB_DevDisconnect(hpcd->Instance);
 743              		.loc 1 1329 3 discriminator 2 view .LVU170
 744              		.loc 1 1329 9 is_stmt 0 discriminator 2 view .LVU171
 745 0012 0068     		ldr	r0, [r0]
 746              	.LVL43:
 747              		.loc 1 1329 9 discriminator 2 view .LVU172
 748 0014 FFF7FEFF 		bl	USB_DevDisconnect
 749              	.LVL44:
1330:Drivers/STM32G4xx_HAL_Driver/Src/stm32g4xx_hal_pcd.c ****   __HAL_UNLOCK(hpcd);
 750              		.loc 1 1330 3 is_stmt 1 discriminator 2 view .LVU173
 751              		.loc 1 1330 3 discriminator 2 view .LVU174
 752 0018 0020     		movs	r0, #0
 753 001a 84F82802 		strb	r0, [r4, #552]
 754              		.loc 1 1330 3 discriminator 2 view .LVU175
1331:Drivers/STM32G4xx_HAL_Driver/Src/stm32g4xx_hal_pcd.c ****   return HAL_OK;
 755              		.loc 1 1331 3 discriminator 2 view .LVU176
 756              	.L36:
1332:Drivers/STM32G4xx_HAL_Driver/Src/stm32g4xx_hal_pcd.c **** }
 757              		.loc 1 1332 1 is_stmt 0 view .LVU177
 758 001e 10BD     		pop	{r4, pc}
 759              	.LVL45:
 760              	.L37:
1328:Drivers/STM32G4xx_HAL_Driver/Src/stm32g4xx_hal_pcd.c ****   (void)USB_DevDisconnect(hpcd->Instance);
 761              		.loc 1 1328 3 view .LVU178
ARM GAS  /tmp/cclKjP2I.s 			page 39


 762 0020 0220     		movs	r0, #2
 763              	.LVL46:
1328:Drivers/STM32G4xx_HAL_Driver/Src/stm32g4xx_hal_pcd.c ****   (void)USB_DevDisconnect(hpcd->Instance);
 764              		.loc 1 1328 3 view .LVU179
 765 0022 FCE7     		b	.L36
 766              		.cfi_endproc
 767              	.LFE376:
 769              		.section	.text.HAL_PCD_SetAddress,"ax",%progbits
 770              		.align	1
 771              		.global	HAL_PCD_SetAddress
 772              		.syntax unified
 773              		.thumb
 774              		.thumb_func
 775              		.fpu fpv4-sp-d16
 777              	HAL_PCD_SetAddress:
 778              	.LVL47:
 779              	.LFB377:
1333:Drivers/STM32G4xx_HAL_Driver/Src/stm32g4xx_hal_pcd.c **** 
1334:Drivers/STM32G4xx_HAL_Driver/Src/stm32g4xx_hal_pcd.c **** /**
1335:Drivers/STM32G4xx_HAL_Driver/Src/stm32g4xx_hal_pcd.c ****   * @brief  Set the USB Device address.
1336:Drivers/STM32G4xx_HAL_Driver/Src/stm32g4xx_hal_pcd.c ****   * @param  hpcd PCD handle
1337:Drivers/STM32G4xx_HAL_Driver/Src/stm32g4xx_hal_pcd.c ****   * @param  address new device address
1338:Drivers/STM32G4xx_HAL_Driver/Src/stm32g4xx_hal_pcd.c ****   * @retval HAL status
1339:Drivers/STM32G4xx_HAL_Driver/Src/stm32g4xx_hal_pcd.c ****   */
1340:Drivers/STM32G4xx_HAL_Driver/Src/stm32g4xx_hal_pcd.c **** HAL_StatusTypeDef HAL_PCD_SetAddress(PCD_HandleTypeDef *hpcd, uint8_t address)
1341:Drivers/STM32G4xx_HAL_Driver/Src/stm32g4xx_hal_pcd.c **** {
 780              		.loc 1 1341 1 is_stmt 1 view -0
 781              		.cfi_startproc
 782              		@ args = 0, pretend = 0, frame = 0
 783              		@ frame_needed = 0, uses_anonymous_args = 0
1342:Drivers/STM32G4xx_HAL_Driver/Src/stm32g4xx_hal_pcd.c ****   __HAL_LOCK(hpcd);
 784              		.loc 1 1342 3 view .LVU181
 785              		.loc 1 1342 3 view .LVU182
1341:Drivers/STM32G4xx_HAL_Driver/Src/stm32g4xx_hal_pcd.c ****   __HAL_LOCK(hpcd);
 786              		.loc 1 1341 1 is_stmt 0 view .LVU183
 787 0000 10B5     		push	{r4, lr}
 788              	.LCFI8:
 789              		.cfi_def_cfa_offset 8
 790              		.cfi_offset 4, -8
 791              		.cfi_offset 14, -4
 792              		.loc 1 1342 3 view .LVU184
 793 0002 90F82822 		ldrb	r2, [r0, #552]	@ zero_extendqisi2
 794 0006 012A     		cmp	r2, #1
1341:Drivers/STM32G4xx_HAL_Driver/Src/stm32g4xx_hal_pcd.c ****   __HAL_LOCK(hpcd);
 795              		.loc 1 1341 1 view .LVU185
 796 0008 0446     		mov	r4, r0
 797              		.loc 1 1342 3 view .LVU186
 798 000a 0BD0     		beq	.L40
 799              		.loc 1 1342 3 is_stmt 1 discriminator 2 view .LVU187
 800 000c 0122     		movs	r2, #1
 801 000e 80F82822 		strb	r2, [r0, #552]
 802              		.loc 1 1342 3 discriminator 2 view .LVU188
1343:Drivers/STM32G4xx_HAL_Driver/Src/stm32g4xx_hal_pcd.c ****   hpcd->USB_Address = address;
 803              		.loc 1 1343 3 discriminator 2 view .LVU189
 804              		.loc 1 1343 21 is_stmt 0 discriminator 2 view .LVU190
 805 0012 80F82410 		strb	r1, [r0, #36]
1344:Drivers/STM32G4xx_HAL_Driver/Src/stm32g4xx_hal_pcd.c ****   (void)USB_SetDevAddress(hpcd->Instance, address);
ARM GAS  /tmp/cclKjP2I.s 			page 40


 806              		.loc 1 1344 3 is_stmt 1 discriminator 2 view .LVU191
 807              		.loc 1 1344 9 is_stmt 0 discriminator 2 view .LVU192
 808 0016 0068     		ldr	r0, [r0]
 809              	.LVL48:
 810              		.loc 1 1344 9 discriminator 2 view .LVU193
 811 0018 FFF7FEFF 		bl	USB_SetDevAddress
 812              	.LVL49:
1345:Drivers/STM32G4xx_HAL_Driver/Src/stm32g4xx_hal_pcd.c ****   __HAL_UNLOCK(hpcd);
 813              		.loc 1 1345 3 is_stmt 1 discriminator 2 view .LVU194
 814              		.loc 1 1345 3 discriminator 2 view .LVU195
 815 001c 0020     		movs	r0, #0
 816 001e 84F82802 		strb	r0, [r4, #552]
 817              		.loc 1 1345 3 discriminator 2 view .LVU196
1346:Drivers/STM32G4xx_HAL_Driver/Src/stm32g4xx_hal_pcd.c ****   return HAL_OK;
 818              		.loc 1 1346 3 discriminator 2 view .LVU197
 819              	.L39:
1347:Drivers/STM32G4xx_HAL_Driver/Src/stm32g4xx_hal_pcd.c **** }
 820              		.loc 1 1347 1 is_stmt 0 view .LVU198
 821 0022 10BD     		pop	{r4, pc}
 822              	.LVL50:
 823              	.L40:
1342:Drivers/STM32G4xx_HAL_Driver/Src/stm32g4xx_hal_pcd.c ****   hpcd->USB_Address = address;
 824              		.loc 1 1342 3 view .LVU199
 825 0024 0220     		movs	r0, #2
 826              	.LVL51:
1342:Drivers/STM32G4xx_HAL_Driver/Src/stm32g4xx_hal_pcd.c ****   hpcd->USB_Address = address;
 827              		.loc 1 1342 3 view .LVU200
 828 0026 FCE7     		b	.L39
 829              		.cfi_endproc
 830              	.LFE377:
 832              		.section	.text.HAL_PCD_EP_Open,"ax",%progbits
 833              		.align	1
 834              		.global	HAL_PCD_EP_Open
 835              		.syntax unified
 836              		.thumb
 837              		.thumb_func
 838              		.fpu fpv4-sp-d16
 840              	HAL_PCD_EP_Open:
 841              	.LVL52:
 842              	.LFB378:
1348:Drivers/STM32G4xx_HAL_Driver/Src/stm32g4xx_hal_pcd.c **** /**
1349:Drivers/STM32G4xx_HAL_Driver/Src/stm32g4xx_hal_pcd.c ****   * @brief  Open and configure an endpoint.
1350:Drivers/STM32G4xx_HAL_Driver/Src/stm32g4xx_hal_pcd.c ****   * @param  hpcd PCD handle
1351:Drivers/STM32G4xx_HAL_Driver/Src/stm32g4xx_hal_pcd.c ****   * @param  ep_addr endpoint address
1352:Drivers/STM32G4xx_HAL_Driver/Src/stm32g4xx_hal_pcd.c ****   * @param  ep_mps endpoint max packet size
1353:Drivers/STM32G4xx_HAL_Driver/Src/stm32g4xx_hal_pcd.c ****   * @param  ep_type endpoint type
1354:Drivers/STM32G4xx_HAL_Driver/Src/stm32g4xx_hal_pcd.c ****   * @retval HAL status
1355:Drivers/STM32G4xx_HAL_Driver/Src/stm32g4xx_hal_pcd.c ****   */
1356:Drivers/STM32G4xx_HAL_Driver/Src/stm32g4xx_hal_pcd.c **** HAL_StatusTypeDef HAL_PCD_EP_Open(PCD_HandleTypeDef *hpcd, uint8_t ep_addr, uint16_t ep_mps, uint8_
1357:Drivers/STM32G4xx_HAL_Driver/Src/stm32g4xx_hal_pcd.c **** {
 843              		.loc 1 1357 1 is_stmt 1 view -0
 844              		.cfi_startproc
 845              		@ args = 0, pretend = 0, frame = 0
 846              		@ frame_needed = 0, uses_anonymous_args = 0
1358:Drivers/STM32G4xx_HAL_Driver/Src/stm32g4xx_hal_pcd.c ****   HAL_StatusTypeDef  ret = HAL_OK;
 847              		.loc 1 1358 3 view .LVU202
1359:Drivers/STM32G4xx_HAL_Driver/Src/stm32g4xx_hal_pcd.c ****   PCD_EPTypeDef *ep;
ARM GAS  /tmp/cclKjP2I.s 			page 41


 848              		.loc 1 1359 3 view .LVU203
1360:Drivers/STM32G4xx_HAL_Driver/Src/stm32g4xx_hal_pcd.c **** 
1361:Drivers/STM32G4xx_HAL_Driver/Src/stm32g4xx_hal_pcd.c ****   if ((ep_addr & 0x80U) == 0x80U)
 849              		.loc 1 1361 3 view .LVU204
1357:Drivers/STM32G4xx_HAL_Driver/Src/stm32g4xx_hal_pcd.c ****   HAL_StatusTypeDef  ret = HAL_OK;
 850              		.loc 1 1357 1 is_stmt 0 view .LVU205
 851 0000 70B5     		push	{r4, r5, r6, lr}
 852              	.LCFI9:
 853              		.cfi_def_cfa_offset 16
 854              		.cfi_offset 4, -16
 855              		.cfi_offset 5, -12
 856              		.cfi_offset 6, -8
 857              		.cfi_offset 14, -4
 858 0002 01F00706 		and	r6, r1, #7
 859 0006 7401     		lsls	r4, r6, #5
 860              		.loc 1 1361 6 view .LVU206
 861 0008 11F0800F 		tst	r1, #128
1357:Drivers/STM32G4xx_HAL_Driver/Src/stm32g4xx_hal_pcd.c ****   HAL_StatusTypeDef  ret = HAL_OK;
 862              		.loc 1 1357 1 view .LVU207
 863 000c 0546     		mov	r5, r0
 864 000e 2046     		mov	r0, r4
 865              	.LVL53:
 866              		.loc 1 1361 6 view .LVU208
 867 0010 1ED0     		beq	.L42
1362:Drivers/STM32G4xx_HAL_Driver/Src/stm32g4xx_hal_pcd.c ****   {
1363:Drivers/STM32G4xx_HAL_Driver/Src/stm32g4xx_hal_pcd.c ****     ep = &hpcd->IN_ep[ep_addr & EP_ADDR_MSK];
 868              		.loc 1 1363 5 is_stmt 1 view .LVU209
1364:Drivers/STM32G4xx_HAL_Driver/Src/stm32g4xx_hal_pcd.c ****     ep->is_in = 1U;
 869              		.loc 1 1364 15 is_stmt 0 view .LVU210
 870 0012 2844     		add	r0, r0, r5
1363:Drivers/STM32G4xx_HAL_Driver/Src/stm32g4xx_hal_pcd.c ****     ep->is_in = 1U;
 871              		.loc 1 1363 8 view .LVU211
 872 0014 04F12801 		add	r1, r4, #40
 873              	.LVL54:
 874              		.loc 1 1364 15 view .LVU212
 875 0018 0124     		movs	r4, #1
1363:Drivers/STM32G4xx_HAL_Driver/Src/stm32g4xx_hal_pcd.c ****     ep->is_in = 1U;
 876              		.loc 1 1363 8 view .LVU213
 877 001a 2944     		add	r1, r1, r5
 878              	.LVL55:
 879              		.loc 1 1364 5 is_stmt 1 view .LVU214
 880              		.loc 1 1364 15 is_stmt 0 view .LVU215
 881 001c 80F82940 		strb	r4, [r0, #41]
 882              	.L43:
1365:Drivers/STM32G4xx_HAL_Driver/Src/stm32g4xx_hal_pcd.c ****   }
1366:Drivers/STM32G4xx_HAL_Driver/Src/stm32g4xx_hal_pcd.c ****   else
1367:Drivers/STM32G4xx_HAL_Driver/Src/stm32g4xx_hal_pcd.c ****   {
1368:Drivers/STM32G4xx_HAL_Driver/Src/stm32g4xx_hal_pcd.c ****     ep = &hpcd->OUT_ep[ep_addr & EP_ADDR_MSK];
1369:Drivers/STM32G4xx_HAL_Driver/Src/stm32g4xx_hal_pcd.c ****     ep->is_in = 0U;
1370:Drivers/STM32G4xx_HAL_Driver/Src/stm32g4xx_hal_pcd.c ****   }
1371:Drivers/STM32G4xx_HAL_Driver/Src/stm32g4xx_hal_pcd.c **** 
1372:Drivers/STM32G4xx_HAL_Driver/Src/stm32g4xx_hal_pcd.c ****   ep->num = ep_addr & EP_ADDR_MSK;
 883              		.loc 1 1372 3 is_stmt 1 view .LVU216
1373:Drivers/STM32G4xx_HAL_Driver/Src/stm32g4xx_hal_pcd.c ****   ep->maxpacket = ep_mps;
 884              		.loc 1 1373 17 is_stmt 0 view .LVU217
 885 0020 0A61     		str	r2, [r1, #16]
1374:Drivers/STM32G4xx_HAL_Driver/Src/stm32g4xx_hal_pcd.c ****   ep->type = ep_type;
ARM GAS  /tmp/cclKjP2I.s 			page 42


1375:Drivers/STM32G4xx_HAL_Driver/Src/stm32g4xx_hal_pcd.c **** 
1376:Drivers/STM32G4xx_HAL_Driver/Src/stm32g4xx_hal_pcd.c ****   if (ep->is_in != 0U)
 886              		.loc 1 1376 6 view .LVU218
 887 0022 4A78     		ldrb	r2, [r1, #1]	@ zero_extendqisi2
 888              	.LVL56:
1372:Drivers/STM32G4xx_HAL_Driver/Src/stm32g4xx_hal_pcd.c ****   ep->maxpacket = ep_mps;
 889              		.loc 1 1372 11 view .LVU219
 890 0024 0E70     		strb	r6, [r1]
1373:Drivers/STM32G4xx_HAL_Driver/Src/stm32g4xx_hal_pcd.c ****   ep->maxpacket = ep_mps;
 891              		.loc 1 1373 3 is_stmt 1 view .LVU220
1374:Drivers/STM32G4xx_HAL_Driver/Src/stm32g4xx_hal_pcd.c ****   ep->type = ep_type;
 892              		.loc 1 1374 3 view .LVU221
1374:Drivers/STM32G4xx_HAL_Driver/Src/stm32g4xx_hal_pcd.c ****   ep->type = ep_type;
 893              		.loc 1 1374 12 is_stmt 0 view .LVU222
 894 0026 CB70     		strb	r3, [r1, #3]
 895              		.loc 1 1376 3 is_stmt 1 view .LVU223
 896              		.loc 1 1376 6 is_stmt 0 view .LVU224
 897 0028 02B1     		cbz	r2, .L44
1377:Drivers/STM32G4xx_HAL_Driver/Src/stm32g4xx_hal_pcd.c ****   {
1378:Drivers/STM32G4xx_HAL_Driver/Src/stm32g4xx_hal_pcd.c ****     /* Assign a Tx FIFO */
1379:Drivers/STM32G4xx_HAL_Driver/Src/stm32g4xx_hal_pcd.c ****     ep->tx_fifo_num = ep->num;
 898              		.loc 1 1379 5 is_stmt 1 view .LVU225
 899              		.loc 1 1379 25 is_stmt 0 view .LVU226
 900 002a CE81     		strh	r6, [r1, #14]	@ movhi
 901              	.L44:
1380:Drivers/STM32G4xx_HAL_Driver/Src/stm32g4xx_hal_pcd.c ****   }
1381:Drivers/STM32G4xx_HAL_Driver/Src/stm32g4xx_hal_pcd.c ****   /* Set initial data PID. */
1382:Drivers/STM32G4xx_HAL_Driver/Src/stm32g4xx_hal_pcd.c ****   if (ep_type == EP_TYPE_BULK)
 902              		.loc 1 1382 3 is_stmt 1 view .LVU227
 903              		.loc 1 1382 6 is_stmt 0 view .LVU228
 904 002c 022B     		cmp	r3, #2
1383:Drivers/STM32G4xx_HAL_Driver/Src/stm32g4xx_hal_pcd.c ****   {
1384:Drivers/STM32G4xx_HAL_Driver/Src/stm32g4xx_hal_pcd.c ****     ep->data_pid_start = 0U;
 905              		.loc 1 1384 5 is_stmt 1 view .LVU229
 906              		.loc 1 1384 24 is_stmt 0 view .LVU230
 907 002e 04BF     		itt	eq
 908 0030 0023     		moveq	r3, #0
 909              	.LVL57:
 910              		.loc 1 1384 24 view .LVU231
 911 0032 0B71     		strbeq	r3, [r1, #4]
1385:Drivers/STM32G4xx_HAL_Driver/Src/stm32g4xx_hal_pcd.c ****   }
1386:Drivers/STM32G4xx_HAL_Driver/Src/stm32g4xx_hal_pcd.c **** 
1387:Drivers/STM32G4xx_HAL_Driver/Src/stm32g4xx_hal_pcd.c ****   __HAL_LOCK(hpcd);
 912              		.loc 1 1387 3 is_stmt 1 view .LVU232
 913              		.loc 1 1387 3 view .LVU233
 914 0034 95F82832 		ldrb	r3, [r5, #552]	@ zero_extendqisi2
 915 0038 012B     		cmp	r3, #1
 916 003a 11D0     		beq	.L47
 917              		.loc 1 1387 3 discriminator 2 view .LVU234
 918 003c 0123     		movs	r3, #1
1388:Drivers/STM32G4xx_HAL_Driver/Src/stm32g4xx_hal_pcd.c ****   (void)USB_ActivateEndpoint(hpcd->Instance, ep);
 919              		.loc 1 1388 9 is_stmt 0 discriminator 2 view .LVU235
 920 003e 2868     		ldr	r0, [r5]
1387:Drivers/STM32G4xx_HAL_Driver/Src/stm32g4xx_hal_pcd.c ****   (void)USB_ActivateEndpoint(hpcd->Instance, ep);
 921              		.loc 1 1387 3 discriminator 2 view .LVU236
 922 0040 85F82832 		strb	r3, [r5, #552]
 923              	.LVL58:
ARM GAS  /tmp/cclKjP2I.s 			page 43


1387:Drivers/STM32G4xx_HAL_Driver/Src/stm32g4xx_hal_pcd.c ****   (void)USB_ActivateEndpoint(hpcd->Instance, ep);
 924              		.loc 1 1387 3 is_stmt 1 discriminator 2 view .LVU237
 925              		.loc 1 1388 3 discriminator 2 view .LVU238
 926              		.loc 1 1388 9 is_stmt 0 discriminator 2 view .LVU239
 927 0044 FFF7FEFF 		bl	USB_ActivateEndpoint
 928              	.LVL59:
1389:Drivers/STM32G4xx_HAL_Driver/Src/stm32g4xx_hal_pcd.c ****   __HAL_UNLOCK(hpcd);
 929              		.loc 1 1389 3 is_stmt 1 discriminator 2 view .LVU240
 930              		.loc 1 1389 3 discriminator 2 view .LVU241
 931 0048 0020     		movs	r0, #0
 932 004a 85F82802 		strb	r0, [r5, #552]
 933              		.loc 1 1389 3 discriminator 2 view .LVU242
1390:Drivers/STM32G4xx_HAL_Driver/Src/stm32g4xx_hal_pcd.c **** 
1391:Drivers/STM32G4xx_HAL_Driver/Src/stm32g4xx_hal_pcd.c ****   return ret;
 934              		.loc 1 1391 3 discriminator 2 view .LVU243
 935              	.L46:
1392:Drivers/STM32G4xx_HAL_Driver/Src/stm32g4xx_hal_pcd.c **** }
 936              		.loc 1 1392 1 is_stmt 0 view .LVU244
 937 004e 70BD     		pop	{r4, r5, r6, pc}
 938              	.LVL60:
 939              	.L42:
1368:Drivers/STM32G4xx_HAL_Driver/Src/stm32g4xx_hal_pcd.c ****     ep->is_in = 0U;
 940              		.loc 1 1368 5 is_stmt 1 view .LVU245
1369:Drivers/STM32G4xx_HAL_Driver/Src/stm32g4xx_hal_pcd.c ****   }
 941              		.loc 1 1369 15 is_stmt 0 view .LVU246
 942 0050 2844     		add	r0, r0, r5
1368:Drivers/STM32G4xx_HAL_Driver/Src/stm32g4xx_hal_pcd.c ****     ep->is_in = 0U;
 943              		.loc 1 1368 8 view .LVU247
 944 0052 04F59471 		add	r1, r4, #296
 945              	.LVL61:
1369:Drivers/STM32G4xx_HAL_Driver/Src/stm32g4xx_hal_pcd.c ****   }
 946              		.loc 1 1369 15 view .LVU248
 947 0056 0024     		movs	r4, #0
1368:Drivers/STM32G4xx_HAL_Driver/Src/stm32g4xx_hal_pcd.c ****     ep->is_in = 0U;
 948              		.loc 1 1368 8 view .LVU249
 949 0058 2944     		add	r1, r1, r5
 950              	.LVL62:
1369:Drivers/STM32G4xx_HAL_Driver/Src/stm32g4xx_hal_pcd.c ****   }
 951              		.loc 1 1369 5 is_stmt 1 view .LVU250
1369:Drivers/STM32G4xx_HAL_Driver/Src/stm32g4xx_hal_pcd.c ****   }
 952              		.loc 1 1369 15 is_stmt 0 view .LVU251
 953 005a 80F82941 		strb	r4, [r0, #297]
 954 005e DFE7     		b	.L43
 955              	.LVL63:
 956              	.L47:
1387:Drivers/STM32G4xx_HAL_Driver/Src/stm32g4xx_hal_pcd.c ****   (void)USB_ActivateEndpoint(hpcd->Instance, ep);
 957              		.loc 1 1387 3 view .LVU252
 958 0060 0220     		movs	r0, #2
 959 0062 F4E7     		b	.L46
 960              		.cfi_endproc
 961              	.LFE378:
 963              		.section	.text.HAL_PCD_EP_Close,"ax",%progbits
 964              		.align	1
 965              		.global	HAL_PCD_EP_Close
 966              		.syntax unified
 967              		.thumb
 968              		.thumb_func
ARM GAS  /tmp/cclKjP2I.s 			page 44


 969              		.fpu fpv4-sp-d16
 971              	HAL_PCD_EP_Close:
 972              	.LVL64:
 973              	.LFB379:
1393:Drivers/STM32G4xx_HAL_Driver/Src/stm32g4xx_hal_pcd.c **** 
1394:Drivers/STM32G4xx_HAL_Driver/Src/stm32g4xx_hal_pcd.c **** /**
1395:Drivers/STM32G4xx_HAL_Driver/Src/stm32g4xx_hal_pcd.c ****   * @brief  Deactivate an endpoint.
1396:Drivers/STM32G4xx_HAL_Driver/Src/stm32g4xx_hal_pcd.c ****   * @param  hpcd PCD handle
1397:Drivers/STM32G4xx_HAL_Driver/Src/stm32g4xx_hal_pcd.c ****   * @param  ep_addr endpoint address
1398:Drivers/STM32G4xx_HAL_Driver/Src/stm32g4xx_hal_pcd.c ****   * @retval HAL status
1399:Drivers/STM32G4xx_HAL_Driver/Src/stm32g4xx_hal_pcd.c ****   */
1400:Drivers/STM32G4xx_HAL_Driver/Src/stm32g4xx_hal_pcd.c **** HAL_StatusTypeDef HAL_PCD_EP_Close(PCD_HandleTypeDef *hpcd, uint8_t ep_addr)
1401:Drivers/STM32G4xx_HAL_Driver/Src/stm32g4xx_hal_pcd.c **** {
 974              		.loc 1 1401 1 is_stmt 1 view -0
 975              		.cfi_startproc
 976              		@ args = 0, pretend = 0, frame = 0
 977              		@ frame_needed = 0, uses_anonymous_args = 0
1402:Drivers/STM32G4xx_HAL_Driver/Src/stm32g4xx_hal_pcd.c ****   PCD_EPTypeDef *ep;
 978              		.loc 1 1402 3 view .LVU254
1403:Drivers/STM32G4xx_HAL_Driver/Src/stm32g4xx_hal_pcd.c **** 
1404:Drivers/STM32G4xx_HAL_Driver/Src/stm32g4xx_hal_pcd.c ****   if ((ep_addr & 0x80U) == 0x80U)
 979              		.loc 1 1404 3 view .LVU255
1401:Drivers/STM32G4xx_HAL_Driver/Src/stm32g4xx_hal_pcd.c ****   PCD_EPTypeDef *ep;
 980              		.loc 1 1401 1 is_stmt 0 view .LVU256
 981 0000 10B5     		push	{r4, lr}
 982              	.LCFI10:
 983              		.cfi_def_cfa_offset 8
 984              		.cfi_offset 4, -8
 985              		.cfi_offset 14, -4
1401:Drivers/STM32G4xx_HAL_Driver/Src/stm32g4xx_hal_pcd.c ****   PCD_EPTypeDef *ep;
 986              		.loc 1 1401 1 view .LVU257
 987 0002 0446     		mov	r4, r0
 988 0004 01F00700 		and	r0, r1, #7
 989              	.LVL65:
1401:Drivers/STM32G4xx_HAL_Driver/Src/stm32g4xx_hal_pcd.c ****   PCD_EPTypeDef *ep;
 990              		.loc 1 1401 1 view .LVU258
 991 0008 4301     		lsls	r3, r0, #5
 992              		.loc 1 1404 6 view .LVU259
 993 000a 11F0800F 		tst	r1, #128
 994 000e 1A46     		mov	r2, r3
 995 0010 15D0     		beq	.L52
1405:Drivers/STM32G4xx_HAL_Driver/Src/stm32g4xx_hal_pcd.c ****   {
1406:Drivers/STM32G4xx_HAL_Driver/Src/stm32g4xx_hal_pcd.c ****     ep = &hpcd->IN_ep[ep_addr & EP_ADDR_MSK];
 996              		.loc 1 1406 5 is_stmt 1 view .LVU260
1407:Drivers/STM32G4xx_HAL_Driver/Src/stm32g4xx_hal_pcd.c ****     ep->is_in = 1U;
 997              		.loc 1 1407 15 is_stmt 0 view .LVU261
 998 0012 2244     		add	r2, r2, r4
1406:Drivers/STM32G4xx_HAL_Driver/Src/stm32g4xx_hal_pcd.c ****     ep->is_in = 1U;
 999              		.loc 1 1406 8 view .LVU262
 1000 0014 03F12801 		add	r1, r3, #40
 1001              	.LVL66:
 1002              		.loc 1 1407 15 view .LVU263
 1003 0018 0123     		movs	r3, #1
1406:Drivers/STM32G4xx_HAL_Driver/Src/stm32g4xx_hal_pcd.c ****     ep->is_in = 1U;
 1004              		.loc 1 1406 8 view .LVU264
 1005 001a 2144     		add	r1, r1, r4
 1006              	.LVL67:
ARM GAS  /tmp/cclKjP2I.s 			page 45


 1007              		.loc 1 1407 5 is_stmt 1 view .LVU265
 1008              		.loc 1 1407 15 is_stmt 0 view .LVU266
 1009 001c 82F82930 		strb	r3, [r2, #41]
 1010              	.L53:
1408:Drivers/STM32G4xx_HAL_Driver/Src/stm32g4xx_hal_pcd.c ****   }
1409:Drivers/STM32G4xx_HAL_Driver/Src/stm32g4xx_hal_pcd.c ****   else
1410:Drivers/STM32G4xx_HAL_Driver/Src/stm32g4xx_hal_pcd.c ****   {
1411:Drivers/STM32G4xx_HAL_Driver/Src/stm32g4xx_hal_pcd.c ****     ep = &hpcd->OUT_ep[ep_addr & EP_ADDR_MSK];
1412:Drivers/STM32G4xx_HAL_Driver/Src/stm32g4xx_hal_pcd.c ****     ep->is_in = 0U;
1413:Drivers/STM32G4xx_HAL_Driver/Src/stm32g4xx_hal_pcd.c ****   }
1414:Drivers/STM32G4xx_HAL_Driver/Src/stm32g4xx_hal_pcd.c ****   ep->num   = ep_addr & EP_ADDR_MSK;
 1011              		.loc 1 1414 3 is_stmt 1 view .LVU267
 1012              		.loc 1 1414 13 is_stmt 0 view .LVU268
 1013 0020 0870     		strb	r0, [r1]
1415:Drivers/STM32G4xx_HAL_Driver/Src/stm32g4xx_hal_pcd.c **** 
1416:Drivers/STM32G4xx_HAL_Driver/Src/stm32g4xx_hal_pcd.c ****   __HAL_LOCK(hpcd);
 1014              		.loc 1 1416 3 is_stmt 1 view .LVU269
 1015              		.loc 1 1416 3 view .LVU270
 1016 0022 94F82832 		ldrb	r3, [r4, #552]	@ zero_extendqisi2
 1017 0026 012B     		cmp	r3, #1
 1018 0028 11D0     		beq	.L55
 1019              		.loc 1 1416 3 discriminator 2 view .LVU271
 1020 002a 0123     		movs	r3, #1
1417:Drivers/STM32G4xx_HAL_Driver/Src/stm32g4xx_hal_pcd.c ****   (void)USB_DeactivateEndpoint(hpcd->Instance, ep);
 1021              		.loc 1 1417 9 is_stmt 0 discriminator 2 view .LVU272
 1022 002c 2068     		ldr	r0, [r4]
1416:Drivers/STM32G4xx_HAL_Driver/Src/stm32g4xx_hal_pcd.c ****   (void)USB_DeactivateEndpoint(hpcd->Instance, ep);
 1023              		.loc 1 1416 3 discriminator 2 view .LVU273
 1024 002e 84F82832 		strb	r3, [r4, #552]
1416:Drivers/STM32G4xx_HAL_Driver/Src/stm32g4xx_hal_pcd.c ****   (void)USB_DeactivateEndpoint(hpcd->Instance, ep);
 1025              		.loc 1 1416 3 is_stmt 1 discriminator 2 view .LVU274
 1026              		.loc 1 1417 3 discriminator 2 view .LVU275
 1027              		.loc 1 1417 9 is_stmt 0 discriminator 2 view .LVU276
 1028 0032 FFF7FEFF 		bl	USB_DeactivateEndpoint
 1029              	.LVL68:
1418:Drivers/STM32G4xx_HAL_Driver/Src/stm32g4xx_hal_pcd.c ****   __HAL_UNLOCK(hpcd);
 1030              		.loc 1 1418 3 is_stmt 1 discriminator 2 view .LVU277
 1031              		.loc 1 1418 3 discriminator 2 view .LVU278
 1032 0036 0020     		movs	r0, #0
 1033 0038 84F82802 		strb	r0, [r4, #552]
 1034              		.loc 1 1418 3 discriminator 2 view .LVU279
1419:Drivers/STM32G4xx_HAL_Driver/Src/stm32g4xx_hal_pcd.c ****   return HAL_OK;
 1035              		.loc 1 1419 3 discriminator 2 view .LVU280
 1036              	.L54:
1420:Drivers/STM32G4xx_HAL_Driver/Src/stm32g4xx_hal_pcd.c **** }
 1037              		.loc 1 1420 1 is_stmt 0 view .LVU281
 1038 003c 10BD     		pop	{r4, pc}
 1039              	.LVL69:
 1040              	.L52:
1411:Drivers/STM32G4xx_HAL_Driver/Src/stm32g4xx_hal_pcd.c ****     ep->is_in = 0U;
 1041              		.loc 1 1411 5 is_stmt 1 view .LVU282
1412:Drivers/STM32G4xx_HAL_Driver/Src/stm32g4xx_hal_pcd.c ****   }
 1042              		.loc 1 1412 15 is_stmt 0 view .LVU283
 1043 003e 2244     		add	r2, r2, r4
1411:Drivers/STM32G4xx_HAL_Driver/Src/stm32g4xx_hal_pcd.c ****     ep->is_in = 0U;
 1044              		.loc 1 1411 8 view .LVU284
 1045 0040 03F59471 		add	r1, r3, #296
ARM GAS  /tmp/cclKjP2I.s 			page 46


 1046              	.LVL70:
1412:Drivers/STM32G4xx_HAL_Driver/Src/stm32g4xx_hal_pcd.c ****   }
 1047              		.loc 1 1412 15 view .LVU285
 1048 0044 0023     		movs	r3, #0
1411:Drivers/STM32G4xx_HAL_Driver/Src/stm32g4xx_hal_pcd.c ****     ep->is_in = 0U;
 1049              		.loc 1 1411 8 view .LVU286
 1050 0046 2144     		add	r1, r1, r4
 1051              	.LVL71:
1412:Drivers/STM32G4xx_HAL_Driver/Src/stm32g4xx_hal_pcd.c ****   }
 1052              		.loc 1 1412 5 is_stmt 1 view .LVU287
1412:Drivers/STM32G4xx_HAL_Driver/Src/stm32g4xx_hal_pcd.c ****   }
 1053              		.loc 1 1412 15 is_stmt 0 view .LVU288
 1054 0048 82F82931 		strb	r3, [r2, #297]
 1055 004c E8E7     		b	.L53
 1056              	.L55:
1416:Drivers/STM32G4xx_HAL_Driver/Src/stm32g4xx_hal_pcd.c ****   (void)USB_DeactivateEndpoint(hpcd->Instance, ep);
 1057              		.loc 1 1416 3 view .LVU289
 1058 004e 0220     		movs	r0, #2
 1059 0050 F4E7     		b	.L54
 1060              		.cfi_endproc
 1061              	.LFE379:
 1063              		.section	.text.HAL_PCD_EP_Receive,"ax",%progbits
 1064              		.align	1
 1065              		.global	HAL_PCD_EP_Receive
 1066              		.syntax unified
 1067              		.thumb
 1068              		.thumb_func
 1069              		.fpu fpv4-sp-d16
 1071              	HAL_PCD_EP_Receive:
 1072              	.LVL72:
 1073              	.LFB380:
1421:Drivers/STM32G4xx_HAL_Driver/Src/stm32g4xx_hal_pcd.c **** 
1422:Drivers/STM32G4xx_HAL_Driver/Src/stm32g4xx_hal_pcd.c **** 
1423:Drivers/STM32G4xx_HAL_Driver/Src/stm32g4xx_hal_pcd.c **** /**
1424:Drivers/STM32G4xx_HAL_Driver/Src/stm32g4xx_hal_pcd.c ****   * @brief  Receive an amount of data.
1425:Drivers/STM32G4xx_HAL_Driver/Src/stm32g4xx_hal_pcd.c ****   * @param  hpcd PCD handle
1426:Drivers/STM32G4xx_HAL_Driver/Src/stm32g4xx_hal_pcd.c ****   * @param  ep_addr endpoint address
1427:Drivers/STM32G4xx_HAL_Driver/Src/stm32g4xx_hal_pcd.c ****   * @param  pBuf pointer to the reception buffer
1428:Drivers/STM32G4xx_HAL_Driver/Src/stm32g4xx_hal_pcd.c ****   * @param  len amount of data to be received
1429:Drivers/STM32G4xx_HAL_Driver/Src/stm32g4xx_hal_pcd.c ****   * @retval HAL status
1430:Drivers/STM32G4xx_HAL_Driver/Src/stm32g4xx_hal_pcd.c ****   */
1431:Drivers/STM32G4xx_HAL_Driver/Src/stm32g4xx_hal_pcd.c **** HAL_StatusTypeDef HAL_PCD_EP_Receive(PCD_HandleTypeDef *hpcd, uint8_t ep_addr, uint8_t *pBuf, uint3
1432:Drivers/STM32G4xx_HAL_Driver/Src/stm32g4xx_hal_pcd.c **** {
 1074              		.loc 1 1432 1 is_stmt 1 view -0
 1075              		.cfi_startproc
 1076              		@ args = 0, pretend = 0, frame = 0
 1077              		@ frame_needed = 0, uses_anonymous_args = 0
1433:Drivers/STM32G4xx_HAL_Driver/Src/stm32g4xx_hal_pcd.c ****   PCD_EPTypeDef *ep;
 1078              		.loc 1 1433 3 view .LVU291
1434:Drivers/STM32G4xx_HAL_Driver/Src/stm32g4xx_hal_pcd.c **** 
1435:Drivers/STM32G4xx_HAL_Driver/Src/stm32g4xx_hal_pcd.c ****   ep = &hpcd->OUT_ep[ep_addr & EP_ADDR_MSK];
 1079              		.loc 1 1435 3 view .LVU292
1432:Drivers/STM32G4xx_HAL_Driver/Src/stm32g4xx_hal_pcd.c ****   PCD_EPTypeDef *ep;
 1080              		.loc 1 1432 1 is_stmt 0 view .LVU293
 1081 0000 70B5     		push	{r4, r5, r6, lr}
 1082              	.LCFI11:
 1083              		.cfi_def_cfa_offset 16
ARM GAS  /tmp/cclKjP2I.s 			page 47


 1084              		.cfi_offset 4, -16
 1085              		.cfi_offset 5, -12
 1086              		.cfi_offset 6, -8
 1087              		.cfi_offset 14, -4
 1088 0002 01F00706 		and	r6, r1, #7
 1089              	.LVL73:
1436:Drivers/STM32G4xx_HAL_Driver/Src/stm32g4xx_hal_pcd.c **** 
1437:Drivers/STM32G4xx_HAL_Driver/Src/stm32g4xx_hal_pcd.c ****   /*setup and start the Xfer */
1438:Drivers/STM32G4xx_HAL_Driver/Src/stm32g4xx_hal_pcd.c ****   ep->xfer_buff = pBuf;
 1090              		.loc 1 1438 3 is_stmt 1 view .LVU294
 1091              		.loc 1 1438 17 is_stmt 0 view .LVU295
 1092 0006 00EB4615 		add	r5, r0, r6, lsl #5
1439:Drivers/STM32G4xx_HAL_Driver/Src/stm32g4xx_hal_pcd.c ****   ep->xfer_len = len;
1440:Drivers/STM32G4xx_HAL_Driver/Src/stm32g4xx_hal_pcd.c ****   ep->xfer_count = 0U;
 1093              		.loc 1 1440 18 view .LVU296
 1094 000a 0024     		movs	r4, #0
1438:Drivers/STM32G4xx_HAL_Driver/Src/stm32g4xx_hal_pcd.c ****   ep->xfer_len = len;
 1095              		.loc 1 1438 17 view .LVU297
 1096 000c C5F83C21 		str	r2, [r5, #316]
1439:Drivers/STM32G4xx_HAL_Driver/Src/stm32g4xx_hal_pcd.c ****   ep->xfer_len = len;
 1097              		.loc 1 1439 3 is_stmt 1 view .LVU298
1439:Drivers/STM32G4xx_HAL_Driver/Src/stm32g4xx_hal_pcd.c ****   ep->xfer_len = len;
 1098              		.loc 1 1439 16 is_stmt 0 view .LVU299
 1099 0010 C5F84031 		str	r3, [r5, #320]
 1100              		.loc 1 1440 3 is_stmt 1 view .LVU300
 1101              		.loc 1 1440 18 is_stmt 0 view .LVU301
 1102 0014 C5F84441 		str	r4, [r5, #324]
1441:Drivers/STM32G4xx_HAL_Driver/Src/stm32g4xx_hal_pcd.c ****   ep->is_in = 0U;
 1103              		.loc 1 1441 3 is_stmt 1 view .LVU302
 1104              		.loc 1 1441 13 is_stmt 0 view .LVU303
 1105 0018 85F82941 		strb	r4, [r5, #297]
1442:Drivers/STM32G4xx_HAL_Driver/Src/stm32g4xx_hal_pcd.c ****   ep->num = ep_addr & EP_ADDR_MSK;
 1106              		.loc 1 1442 3 is_stmt 1 view .LVU304
 1107              		.loc 1 1442 11 is_stmt 0 view .LVU305
 1108 001c 85F82861 		strb	r6, [r5, #296]
1443:Drivers/STM32G4xx_HAL_Driver/Src/stm32g4xx_hal_pcd.c **** 
1444:Drivers/STM32G4xx_HAL_Driver/Src/stm32g4xx_hal_pcd.c ****   if ((ep_addr & EP_ADDR_MSK) == 0U)
 1109              		.loc 1 1444 3 is_stmt 1 view .LVU306
1445:Drivers/STM32G4xx_HAL_Driver/Src/stm32g4xx_hal_pcd.c ****   {
1446:Drivers/STM32G4xx_HAL_Driver/Src/stm32g4xx_hal_pcd.c ****     (void)USB_EP0StartXfer(hpcd->Instance, ep);
1447:Drivers/STM32G4xx_HAL_Driver/Src/stm32g4xx_hal_pcd.c ****   }
1448:Drivers/STM32G4xx_HAL_Driver/Src/stm32g4xx_hal_pcd.c ****   else
1449:Drivers/STM32G4xx_HAL_Driver/Src/stm32g4xx_hal_pcd.c ****   {
1450:Drivers/STM32G4xx_HAL_Driver/Src/stm32g4xx_hal_pcd.c ****     (void)USB_EPStartXfer(hpcd->Instance, ep);
 1110              		.loc 1 1450 5 view .LVU307
 1111              		.loc 1 1450 11 is_stmt 0 view .LVU308
 1112 0020 05F59471 		add	r1, r5, #296
 1113              	.LVL74:
 1114              		.loc 1 1450 11 view .LVU309
 1115 0024 0068     		ldr	r0, [r0]
 1116              	.LVL75:
 1117              		.loc 1 1450 11 view .LVU310
 1118 0026 FFF7FEFF 		bl	USB_EPStartXfer
 1119              	.LVL76:
1451:Drivers/STM32G4xx_HAL_Driver/Src/stm32g4xx_hal_pcd.c ****   }
1452:Drivers/STM32G4xx_HAL_Driver/Src/stm32g4xx_hal_pcd.c **** 
1453:Drivers/STM32G4xx_HAL_Driver/Src/stm32g4xx_hal_pcd.c ****   return HAL_OK;
ARM GAS  /tmp/cclKjP2I.s 			page 48


 1120              		.loc 1 1453 3 is_stmt 1 view .LVU311
1454:Drivers/STM32G4xx_HAL_Driver/Src/stm32g4xx_hal_pcd.c **** }
 1121              		.loc 1 1454 1 is_stmt 0 view .LVU312
 1122 002a 2046     		mov	r0, r4
 1123 002c 70BD     		pop	{r4, r5, r6, pc}
 1124              		.cfi_endproc
 1125              	.LFE380:
 1127              		.section	.text.HAL_PCD_EP_GetRxCount,"ax",%progbits
 1128              		.align	1
 1129              		.global	HAL_PCD_EP_GetRxCount
 1130              		.syntax unified
 1131              		.thumb
 1132              		.thumb_func
 1133              		.fpu fpv4-sp-d16
 1135              	HAL_PCD_EP_GetRxCount:
 1136              	.LVL77:
 1137              	.LFB381:
1455:Drivers/STM32G4xx_HAL_Driver/Src/stm32g4xx_hal_pcd.c **** 
1456:Drivers/STM32G4xx_HAL_Driver/Src/stm32g4xx_hal_pcd.c **** /**
1457:Drivers/STM32G4xx_HAL_Driver/Src/stm32g4xx_hal_pcd.c ****   * @brief  Get Received Data Size
1458:Drivers/STM32G4xx_HAL_Driver/Src/stm32g4xx_hal_pcd.c ****   * @param  hpcd PCD handle
1459:Drivers/STM32G4xx_HAL_Driver/Src/stm32g4xx_hal_pcd.c ****   * @param  ep_addr endpoint address
1460:Drivers/STM32G4xx_HAL_Driver/Src/stm32g4xx_hal_pcd.c ****   * @retval Data Size
1461:Drivers/STM32G4xx_HAL_Driver/Src/stm32g4xx_hal_pcd.c ****   */
1462:Drivers/STM32G4xx_HAL_Driver/Src/stm32g4xx_hal_pcd.c **** uint32_t HAL_PCD_EP_GetRxCount(PCD_HandleTypeDef *hpcd, uint8_t ep_addr)
1463:Drivers/STM32G4xx_HAL_Driver/Src/stm32g4xx_hal_pcd.c **** {
 1138              		.loc 1 1463 1 is_stmt 1 view -0
 1139              		.cfi_startproc
 1140              		@ args = 0, pretend = 0, frame = 0
 1141              		@ frame_needed = 0, uses_anonymous_args = 0
 1142              		@ link register save eliminated.
1464:Drivers/STM32G4xx_HAL_Driver/Src/stm32g4xx_hal_pcd.c ****   return hpcd->OUT_ep[ep_addr & EP_ADDR_MSK].xfer_count;
 1143              		.loc 1 1464 3 view .LVU314
 1144              		.loc 1 1464 31 is_stmt 0 view .LVU315
 1145 0000 01F00701 		and	r1, r1, #7
 1146              	.LVL78:
 1147              		.loc 1 1464 45 view .LVU316
 1148 0004 00EB4110 		add	r0, r0, r1, lsl #5
 1149              	.LVL79:
1465:Drivers/STM32G4xx_HAL_Driver/Src/stm32g4xx_hal_pcd.c **** }
 1150              		.loc 1 1465 1 view .LVU317
 1151 0008 D0F84401 		ldr	r0, [r0, #324]
 1152 000c 7047     		bx	lr
 1153              		.cfi_endproc
 1154              	.LFE381:
 1156              		.section	.text.HAL_PCD_EP_Transmit,"ax",%progbits
 1157              		.align	1
 1158              		.global	HAL_PCD_EP_Transmit
 1159              		.syntax unified
 1160              		.thumb
 1161              		.thumb_func
 1162              		.fpu fpv4-sp-d16
 1164              	HAL_PCD_EP_Transmit:
 1165              	.LVL80:
 1166              	.LFB382:
1466:Drivers/STM32G4xx_HAL_Driver/Src/stm32g4xx_hal_pcd.c **** /**
1467:Drivers/STM32G4xx_HAL_Driver/Src/stm32g4xx_hal_pcd.c ****   * @brief  Send an amount of data
ARM GAS  /tmp/cclKjP2I.s 			page 49


1468:Drivers/STM32G4xx_HAL_Driver/Src/stm32g4xx_hal_pcd.c ****   * @param  hpcd PCD handle
1469:Drivers/STM32G4xx_HAL_Driver/Src/stm32g4xx_hal_pcd.c ****   * @param  ep_addr endpoint address
1470:Drivers/STM32G4xx_HAL_Driver/Src/stm32g4xx_hal_pcd.c ****   * @param  pBuf pointer to the transmission buffer
1471:Drivers/STM32G4xx_HAL_Driver/Src/stm32g4xx_hal_pcd.c ****   * @param  len amount of data to be sent
1472:Drivers/STM32G4xx_HAL_Driver/Src/stm32g4xx_hal_pcd.c ****   * @retval HAL status
1473:Drivers/STM32G4xx_HAL_Driver/Src/stm32g4xx_hal_pcd.c ****   */
1474:Drivers/STM32G4xx_HAL_Driver/Src/stm32g4xx_hal_pcd.c **** HAL_StatusTypeDef HAL_PCD_EP_Transmit(PCD_HandleTypeDef *hpcd, uint8_t ep_addr, uint8_t *pBuf, uint
1475:Drivers/STM32G4xx_HAL_Driver/Src/stm32g4xx_hal_pcd.c **** {
 1167              		.loc 1 1475 1 is_stmt 1 view -0
 1168              		.cfi_startproc
 1169              		@ args = 0, pretend = 0, frame = 0
 1170              		@ frame_needed = 0, uses_anonymous_args = 0
1476:Drivers/STM32G4xx_HAL_Driver/Src/stm32g4xx_hal_pcd.c ****   PCD_EPTypeDef *ep;
 1171              		.loc 1 1476 3 view .LVU319
1477:Drivers/STM32G4xx_HAL_Driver/Src/stm32g4xx_hal_pcd.c **** 
1478:Drivers/STM32G4xx_HAL_Driver/Src/stm32g4xx_hal_pcd.c ****   ep = &hpcd->IN_ep[ep_addr & EP_ADDR_MSK];
 1172              		.loc 1 1478 3 view .LVU320
1475:Drivers/STM32G4xx_HAL_Driver/Src/stm32g4xx_hal_pcd.c ****   PCD_EPTypeDef *ep;
 1173              		.loc 1 1475 1 is_stmt 0 view .LVU321
 1174 0000 70B5     		push	{r4, r5, r6, lr}
 1175              	.LCFI12:
 1176              		.cfi_def_cfa_offset 16
 1177              		.cfi_offset 4, -16
 1178              		.cfi_offset 5, -12
 1179              		.cfi_offset 6, -8
 1180              		.cfi_offset 14, -4
 1181 0002 01F00706 		and	r6, r1, #7
 1182              	.LVL81:
1479:Drivers/STM32G4xx_HAL_Driver/Src/stm32g4xx_hal_pcd.c **** 
1480:Drivers/STM32G4xx_HAL_Driver/Src/stm32g4xx_hal_pcd.c ****   /*setup and start the Xfer */
1481:Drivers/STM32G4xx_HAL_Driver/Src/stm32g4xx_hal_pcd.c ****   ep->xfer_buff = pBuf;
 1183              		.loc 1 1481 3 is_stmt 1 view .LVU322
 1184              		.loc 1 1481 17 is_stmt 0 view .LVU323
 1185 0006 00EB4614 		add	r4, r0, r6, lsl #5
1482:Drivers/STM32G4xx_HAL_Driver/Src/stm32g4xx_hal_pcd.c ****   ep->xfer_len = len;
1483:Drivers/STM32G4xx_HAL_Driver/Src/stm32g4xx_hal_pcd.c ****   ep->xfer_count = 0U;
 1186              		.loc 1 1483 18 view .LVU324
 1187 000a 0025     		movs	r5, #0
1482:Drivers/STM32G4xx_HAL_Driver/Src/stm32g4xx_hal_pcd.c ****   ep->xfer_len = len;
 1188              		.loc 1 1482 16 view .LVU325
 1189 000c 2364     		str	r3, [r4, #64]
1478:Drivers/STM32G4xx_HAL_Driver/Src/stm32g4xx_hal_pcd.c **** 
 1190              		.loc 1 1478 6 view .LVU326
 1191 000e 2146     		mov	r1, r4
 1192              	.LVL82:
1484:Drivers/STM32G4xx_HAL_Driver/Src/stm32g4xx_hal_pcd.c ****   ep->is_in = 1U;
 1193              		.loc 1 1484 13 view .LVU327
 1194 0010 0123     		movs	r3, #1
 1195              	.LVL83:
1481:Drivers/STM32G4xx_HAL_Driver/Src/stm32g4xx_hal_pcd.c ****   ep->xfer_len = len;
 1196              		.loc 1 1481 17 view .LVU328
 1197 0012 E263     		str	r2, [r4, #60]
1482:Drivers/STM32G4xx_HAL_Driver/Src/stm32g4xx_hal_pcd.c ****   ep->xfer_count = 0U;
 1198              		.loc 1 1482 3 is_stmt 1 view .LVU329
1483:Drivers/STM32G4xx_HAL_Driver/Src/stm32g4xx_hal_pcd.c ****   ep->is_in = 1U;
 1199              		.loc 1 1483 3 view .LVU330
1483:Drivers/STM32G4xx_HAL_Driver/Src/stm32g4xx_hal_pcd.c ****   ep->is_in = 1U;
ARM GAS  /tmp/cclKjP2I.s 			page 50


 1200              		.loc 1 1483 18 is_stmt 0 view .LVU331
 1201 0014 6564     		str	r5, [r4, #68]
 1202              		.loc 1 1484 3 is_stmt 1 view .LVU332
 1203              		.loc 1 1484 13 is_stmt 0 view .LVU333
 1204 0016 84F82930 		strb	r3, [r4, #41]
1485:Drivers/STM32G4xx_HAL_Driver/Src/stm32g4xx_hal_pcd.c ****   ep->num = ep_addr & EP_ADDR_MSK;
 1205              		.loc 1 1485 3 is_stmt 1 view .LVU334
 1206              		.loc 1 1485 11 is_stmt 0 view .LVU335
 1207 001a 84F82860 		strb	r6, [r4, #40]
1486:Drivers/STM32G4xx_HAL_Driver/Src/stm32g4xx_hal_pcd.c **** 
1487:Drivers/STM32G4xx_HAL_Driver/Src/stm32g4xx_hal_pcd.c ****   if ((ep_addr & EP_ADDR_MSK) == 0U)
 1208              		.loc 1 1487 3 is_stmt 1 view .LVU336
1488:Drivers/STM32G4xx_HAL_Driver/Src/stm32g4xx_hal_pcd.c ****   {
1489:Drivers/STM32G4xx_HAL_Driver/Src/stm32g4xx_hal_pcd.c ****     (void)USB_EP0StartXfer(hpcd->Instance, ep);
1490:Drivers/STM32G4xx_HAL_Driver/Src/stm32g4xx_hal_pcd.c ****   }
1491:Drivers/STM32G4xx_HAL_Driver/Src/stm32g4xx_hal_pcd.c ****   else
1492:Drivers/STM32G4xx_HAL_Driver/Src/stm32g4xx_hal_pcd.c ****   {
1493:Drivers/STM32G4xx_HAL_Driver/Src/stm32g4xx_hal_pcd.c ****     (void)USB_EPStartXfer(hpcd->Instance, ep);
 1209              		.loc 1 1493 5 view .LVU337
 1210              		.loc 1 1493 11 is_stmt 0 view .LVU338
 1211 001e 2831     		adds	r1, r1, #40
 1212              	.LVL84:
 1213              		.loc 1 1493 11 view .LVU339
 1214 0020 0068     		ldr	r0, [r0]
 1215              	.LVL85:
 1216              		.loc 1 1493 11 view .LVU340
 1217 0022 FFF7FEFF 		bl	USB_EPStartXfer
 1218              	.LVL86:
1494:Drivers/STM32G4xx_HAL_Driver/Src/stm32g4xx_hal_pcd.c ****   }
1495:Drivers/STM32G4xx_HAL_Driver/Src/stm32g4xx_hal_pcd.c **** 
1496:Drivers/STM32G4xx_HAL_Driver/Src/stm32g4xx_hal_pcd.c ****   return HAL_OK;
 1219              		.loc 1 1496 3 is_stmt 1 view .LVU341
1497:Drivers/STM32G4xx_HAL_Driver/Src/stm32g4xx_hal_pcd.c **** }
 1220              		.loc 1 1497 1 is_stmt 0 view .LVU342
 1221 0026 2846     		mov	r0, r5
 1222 0028 70BD     		pop	{r4, r5, r6, pc}
 1223              		.cfi_endproc
 1224              	.LFE382:
 1226              		.section	.text.HAL_PCD_IRQHandler,"ax",%progbits
 1227              		.align	1
 1228              		.global	HAL_PCD_IRQHandler
 1229              		.syntax unified
 1230              		.thumb
 1231              		.thumb_func
 1232              		.fpu fpv4-sp-d16
 1234              	HAL_PCD_IRQHandler:
 1235              	.LVL87:
 1236              	.LFB363:
 995:Drivers/STM32G4xx_HAL_Driver/Src/stm32g4xx_hal_pcd.c ****   if (__HAL_PCD_GET_FLAG(hpcd, USB_ISTR_CTR))
 1237              		.loc 1 995 1 is_stmt 1 view -0
 1238              		.cfi_startproc
 1239              		@ args = 0, pretend = 0, frame = 0
 1240              		@ frame_needed = 0, uses_anonymous_args = 0
 996:Drivers/STM32G4xx_HAL_Driver/Src/stm32g4xx_hal_pcd.c ****   {
 1241              		.loc 1 996 3 view .LVU344
 995:Drivers/STM32G4xx_HAL_Driver/Src/stm32g4xx_hal_pcd.c ****   if (__HAL_PCD_GET_FLAG(hpcd, USB_ISTR_CTR))
 1242              		.loc 1 995 1 is_stmt 0 view .LVU345
ARM GAS  /tmp/cclKjP2I.s 			page 51


 1243 0000 2DE9F84F 		push	{r3, r4, r5, r6, r7, r8, r9, r10, fp, lr}
 1244              	.LCFI13:
 1245              		.cfi_def_cfa_offset 40
 1246              		.cfi_offset 3, -40
 1247              		.cfi_offset 4, -36
 1248              		.cfi_offset 5, -32
 1249              		.cfi_offset 6, -28
 1250              		.cfi_offset 7, -24
 1251              		.cfi_offset 8, -20
 1252              		.cfi_offset 9, -16
 1253              		.cfi_offset 10, -12
 1254              		.cfi_offset 11, -8
 1255              		.cfi_offset 14, -4
 995:Drivers/STM32G4xx_HAL_Driver/Src/stm32g4xx_hal_pcd.c ****   if (__HAL_PCD_GET_FLAG(hpcd, USB_ISTR_CTR))
 1256              		.loc 1 995 1 view .LVU346
 1257 0004 0446     		mov	r4, r0
 996:Drivers/STM32G4xx_HAL_Driver/Src/stm32g4xx_hal_pcd.c ****   {
 1258              		.loc 1 996 7 view .LVU347
 1259 0006 0068     		ldr	r0, [r0]
 1260              	.LVL88:
 996:Drivers/STM32G4xx_HAL_Driver/Src/stm32g4xx_hal_pcd.c ****   {
 1261              		.loc 1 996 7 view .LVU348
 1262 0008 FFF7FEFF 		bl	USB_ReadInterrupts
 1263              	.LVL89:
 996:Drivers/STM32G4xx_HAL_Driver/Src/stm32g4xx_hal_pcd.c ****   {
 1264              		.loc 1 996 6 view .LVU349
 1265 000c 0204     		lsls	r2, r0, #16
 1266 000e 09D5     		bpl	.L84
 1267              	.LBB13:
 1268              	.LBB14:
 1269              	.LBB15:
1498:Drivers/STM32G4xx_HAL_Driver/Src/stm32g4xx_hal_pcd.c **** 
1499:Drivers/STM32G4xx_HAL_Driver/Src/stm32g4xx_hal_pcd.c **** /**
1500:Drivers/STM32G4xx_HAL_Driver/Src/stm32g4xx_hal_pcd.c ****   * @brief  Set a STALL condition over an endpoint
1501:Drivers/STM32G4xx_HAL_Driver/Src/stm32g4xx_hal_pcd.c ****   * @param  hpcd PCD handle
1502:Drivers/STM32G4xx_HAL_Driver/Src/stm32g4xx_hal_pcd.c ****   * @param  ep_addr endpoint address
1503:Drivers/STM32G4xx_HAL_Driver/Src/stm32g4xx_hal_pcd.c ****   * @retval HAL status
1504:Drivers/STM32G4xx_HAL_Driver/Src/stm32g4xx_hal_pcd.c ****   */
1505:Drivers/STM32G4xx_HAL_Driver/Src/stm32g4xx_hal_pcd.c **** HAL_StatusTypeDef HAL_PCD_EP_SetStall(PCD_HandleTypeDef *hpcd, uint8_t ep_addr)
1506:Drivers/STM32G4xx_HAL_Driver/Src/stm32g4xx_hal_pcd.c **** {
1507:Drivers/STM32G4xx_HAL_Driver/Src/stm32g4xx_hal_pcd.c ****   PCD_EPTypeDef *ep;
1508:Drivers/STM32G4xx_HAL_Driver/Src/stm32g4xx_hal_pcd.c **** 
1509:Drivers/STM32G4xx_HAL_Driver/Src/stm32g4xx_hal_pcd.c ****   if (((uint32_t)ep_addr & EP_ADDR_MSK) > hpcd->Init.dev_endpoints)
1510:Drivers/STM32G4xx_HAL_Driver/Src/stm32g4xx_hal_pcd.c ****   {
1511:Drivers/STM32G4xx_HAL_Driver/Src/stm32g4xx_hal_pcd.c ****     return HAL_ERROR;
1512:Drivers/STM32G4xx_HAL_Driver/Src/stm32g4xx_hal_pcd.c ****   }
1513:Drivers/STM32G4xx_HAL_Driver/Src/stm32g4xx_hal_pcd.c **** 
1514:Drivers/STM32G4xx_HAL_Driver/Src/stm32g4xx_hal_pcd.c ****   if ((0x80U & ep_addr) == 0x80U)
1515:Drivers/STM32G4xx_HAL_Driver/Src/stm32g4xx_hal_pcd.c ****   {
1516:Drivers/STM32G4xx_HAL_Driver/Src/stm32g4xx_hal_pcd.c ****     ep = &hpcd->IN_ep[ep_addr & EP_ADDR_MSK];
1517:Drivers/STM32G4xx_HAL_Driver/Src/stm32g4xx_hal_pcd.c ****     ep->is_in = 1U;
1518:Drivers/STM32G4xx_HAL_Driver/Src/stm32g4xx_hal_pcd.c ****   }
1519:Drivers/STM32G4xx_HAL_Driver/Src/stm32g4xx_hal_pcd.c ****   else
1520:Drivers/STM32G4xx_HAL_Driver/Src/stm32g4xx_hal_pcd.c ****   {
1521:Drivers/STM32G4xx_HAL_Driver/Src/stm32g4xx_hal_pcd.c ****     ep = &hpcd->OUT_ep[ep_addr];
1522:Drivers/STM32G4xx_HAL_Driver/Src/stm32g4xx_hal_pcd.c ****     ep->is_in = 0U;
1523:Drivers/STM32G4xx_HAL_Driver/Src/stm32g4xx_hal_pcd.c ****   }
ARM GAS  /tmp/cclKjP2I.s 			page 52


1524:Drivers/STM32G4xx_HAL_Driver/Src/stm32g4xx_hal_pcd.c **** 
1525:Drivers/STM32G4xx_HAL_Driver/Src/stm32g4xx_hal_pcd.c ****   ep->is_stall = 1U;
1526:Drivers/STM32G4xx_HAL_Driver/Src/stm32g4xx_hal_pcd.c ****   ep->num = ep_addr & EP_ADDR_MSK;
1527:Drivers/STM32G4xx_HAL_Driver/Src/stm32g4xx_hal_pcd.c **** 
1528:Drivers/STM32G4xx_HAL_Driver/Src/stm32g4xx_hal_pcd.c ****   __HAL_LOCK(hpcd);
1529:Drivers/STM32G4xx_HAL_Driver/Src/stm32g4xx_hal_pcd.c **** 
1530:Drivers/STM32G4xx_HAL_Driver/Src/stm32g4xx_hal_pcd.c ****   (void)USB_EPSetStall(hpcd->Instance, ep);
1531:Drivers/STM32G4xx_HAL_Driver/Src/stm32g4xx_hal_pcd.c ****   if ((ep_addr & EP_ADDR_MSK) == 0U)
1532:Drivers/STM32G4xx_HAL_Driver/Src/stm32g4xx_hal_pcd.c ****   {
1533:Drivers/STM32G4xx_HAL_Driver/Src/stm32g4xx_hal_pcd.c ****     (void)USB_EP0_OutStart(hpcd->Instance, (uint8_t *)hpcd->Setup);
1534:Drivers/STM32G4xx_HAL_Driver/Src/stm32g4xx_hal_pcd.c ****   }
1535:Drivers/STM32G4xx_HAL_Driver/Src/stm32g4xx_hal_pcd.c ****   __HAL_UNLOCK(hpcd);
1536:Drivers/STM32G4xx_HAL_Driver/Src/stm32g4xx_hal_pcd.c **** 
1537:Drivers/STM32G4xx_HAL_Driver/Src/stm32g4xx_hal_pcd.c ****   return HAL_OK;
1538:Drivers/STM32G4xx_HAL_Driver/Src/stm32g4xx_hal_pcd.c **** }
1539:Drivers/STM32G4xx_HAL_Driver/Src/stm32g4xx_hal_pcd.c **** 
1540:Drivers/STM32G4xx_HAL_Driver/Src/stm32g4xx_hal_pcd.c **** /**
1541:Drivers/STM32G4xx_HAL_Driver/Src/stm32g4xx_hal_pcd.c ****   * @brief  Clear a STALL condition over in an endpoint
1542:Drivers/STM32G4xx_HAL_Driver/Src/stm32g4xx_hal_pcd.c ****   * @param  hpcd PCD handle
1543:Drivers/STM32G4xx_HAL_Driver/Src/stm32g4xx_hal_pcd.c ****   * @param  ep_addr endpoint address
1544:Drivers/STM32G4xx_HAL_Driver/Src/stm32g4xx_hal_pcd.c ****   * @retval HAL status
1545:Drivers/STM32G4xx_HAL_Driver/Src/stm32g4xx_hal_pcd.c ****   */
1546:Drivers/STM32G4xx_HAL_Driver/Src/stm32g4xx_hal_pcd.c **** HAL_StatusTypeDef HAL_PCD_EP_ClrStall(PCD_HandleTypeDef *hpcd, uint8_t ep_addr)
1547:Drivers/STM32G4xx_HAL_Driver/Src/stm32g4xx_hal_pcd.c **** {
1548:Drivers/STM32G4xx_HAL_Driver/Src/stm32g4xx_hal_pcd.c ****   PCD_EPTypeDef *ep;
1549:Drivers/STM32G4xx_HAL_Driver/Src/stm32g4xx_hal_pcd.c **** 
1550:Drivers/STM32G4xx_HAL_Driver/Src/stm32g4xx_hal_pcd.c ****   if (((uint32_t)ep_addr & 0x0FU) > hpcd->Init.dev_endpoints)
1551:Drivers/STM32G4xx_HAL_Driver/Src/stm32g4xx_hal_pcd.c ****   {
1552:Drivers/STM32G4xx_HAL_Driver/Src/stm32g4xx_hal_pcd.c ****     return HAL_ERROR;
1553:Drivers/STM32G4xx_HAL_Driver/Src/stm32g4xx_hal_pcd.c ****   }
1554:Drivers/STM32G4xx_HAL_Driver/Src/stm32g4xx_hal_pcd.c **** 
1555:Drivers/STM32G4xx_HAL_Driver/Src/stm32g4xx_hal_pcd.c ****   if ((0x80U & ep_addr) == 0x80U)
1556:Drivers/STM32G4xx_HAL_Driver/Src/stm32g4xx_hal_pcd.c ****   {
1557:Drivers/STM32G4xx_HAL_Driver/Src/stm32g4xx_hal_pcd.c ****     ep = &hpcd->IN_ep[ep_addr & EP_ADDR_MSK];
1558:Drivers/STM32G4xx_HAL_Driver/Src/stm32g4xx_hal_pcd.c ****     ep->is_in = 1U;
1559:Drivers/STM32G4xx_HAL_Driver/Src/stm32g4xx_hal_pcd.c ****   }
1560:Drivers/STM32G4xx_HAL_Driver/Src/stm32g4xx_hal_pcd.c ****   else
1561:Drivers/STM32G4xx_HAL_Driver/Src/stm32g4xx_hal_pcd.c ****   {
1562:Drivers/STM32G4xx_HAL_Driver/Src/stm32g4xx_hal_pcd.c ****     ep = &hpcd->OUT_ep[ep_addr & EP_ADDR_MSK];
1563:Drivers/STM32G4xx_HAL_Driver/Src/stm32g4xx_hal_pcd.c ****     ep->is_in = 0U;
1564:Drivers/STM32G4xx_HAL_Driver/Src/stm32g4xx_hal_pcd.c ****   }
1565:Drivers/STM32G4xx_HAL_Driver/Src/stm32g4xx_hal_pcd.c **** 
1566:Drivers/STM32G4xx_HAL_Driver/Src/stm32g4xx_hal_pcd.c ****   ep->is_stall = 0U;
1567:Drivers/STM32G4xx_HAL_Driver/Src/stm32g4xx_hal_pcd.c ****   ep->num = ep_addr & EP_ADDR_MSK;
1568:Drivers/STM32G4xx_HAL_Driver/Src/stm32g4xx_hal_pcd.c **** 
1569:Drivers/STM32G4xx_HAL_Driver/Src/stm32g4xx_hal_pcd.c ****   __HAL_LOCK(hpcd);
1570:Drivers/STM32G4xx_HAL_Driver/Src/stm32g4xx_hal_pcd.c ****   (void)USB_EPClearStall(hpcd->Instance, ep);
1571:Drivers/STM32G4xx_HAL_Driver/Src/stm32g4xx_hal_pcd.c ****   __HAL_UNLOCK(hpcd);
1572:Drivers/STM32G4xx_HAL_Driver/Src/stm32g4xx_hal_pcd.c **** 
1573:Drivers/STM32G4xx_HAL_Driver/Src/stm32g4xx_hal_pcd.c ****   return HAL_OK;
1574:Drivers/STM32G4xx_HAL_Driver/Src/stm32g4xx_hal_pcd.c **** }
1575:Drivers/STM32G4xx_HAL_Driver/Src/stm32g4xx_hal_pcd.c **** 
1576:Drivers/STM32G4xx_HAL_Driver/Src/stm32g4xx_hal_pcd.c **** /**
1577:Drivers/STM32G4xx_HAL_Driver/Src/stm32g4xx_hal_pcd.c ****   * @brief  Flush an endpoint
1578:Drivers/STM32G4xx_HAL_Driver/Src/stm32g4xx_hal_pcd.c ****   * @param  hpcd PCD handle
1579:Drivers/STM32G4xx_HAL_Driver/Src/stm32g4xx_hal_pcd.c ****   * @param  ep_addr endpoint address
1580:Drivers/STM32G4xx_HAL_Driver/Src/stm32g4xx_hal_pcd.c ****   * @retval HAL status
ARM GAS  /tmp/cclKjP2I.s 			page 53


1581:Drivers/STM32G4xx_HAL_Driver/Src/stm32g4xx_hal_pcd.c ****   */
1582:Drivers/STM32G4xx_HAL_Driver/Src/stm32g4xx_hal_pcd.c **** HAL_StatusTypeDef HAL_PCD_EP_Flush(PCD_HandleTypeDef *hpcd, uint8_t ep_addr)
1583:Drivers/STM32G4xx_HAL_Driver/Src/stm32g4xx_hal_pcd.c **** {
1584:Drivers/STM32G4xx_HAL_Driver/Src/stm32g4xx_hal_pcd.c ****   /* Prevent unused argument(s) compilation warning */
1585:Drivers/STM32G4xx_HAL_Driver/Src/stm32g4xx_hal_pcd.c ****   UNUSED(hpcd);
1586:Drivers/STM32G4xx_HAL_Driver/Src/stm32g4xx_hal_pcd.c ****   UNUSED(ep_addr);
1587:Drivers/STM32G4xx_HAL_Driver/Src/stm32g4xx_hal_pcd.c **** 
1588:Drivers/STM32G4xx_HAL_Driver/Src/stm32g4xx_hal_pcd.c ****   return HAL_OK;
1589:Drivers/STM32G4xx_HAL_Driver/Src/stm32g4xx_hal_pcd.c **** }
1590:Drivers/STM32G4xx_HAL_Driver/Src/stm32g4xx_hal_pcd.c **** 
1591:Drivers/STM32G4xx_HAL_Driver/Src/stm32g4xx_hal_pcd.c **** /**
1592:Drivers/STM32G4xx_HAL_Driver/Src/stm32g4xx_hal_pcd.c ****   * @brief  Activate remote wakeup signalling
1593:Drivers/STM32G4xx_HAL_Driver/Src/stm32g4xx_hal_pcd.c ****   * @param  hpcd PCD handle
1594:Drivers/STM32G4xx_HAL_Driver/Src/stm32g4xx_hal_pcd.c ****   * @retval HAL status
1595:Drivers/STM32G4xx_HAL_Driver/Src/stm32g4xx_hal_pcd.c ****   */
1596:Drivers/STM32G4xx_HAL_Driver/Src/stm32g4xx_hal_pcd.c **** HAL_StatusTypeDef HAL_PCD_ActivateRemoteWakeup(PCD_HandleTypeDef *hpcd)
1597:Drivers/STM32G4xx_HAL_Driver/Src/stm32g4xx_hal_pcd.c **** {
1598:Drivers/STM32G4xx_HAL_Driver/Src/stm32g4xx_hal_pcd.c ****   return (USB_ActivateRemoteWakeup(hpcd->Instance));
1599:Drivers/STM32G4xx_HAL_Driver/Src/stm32g4xx_hal_pcd.c **** }
1600:Drivers/STM32G4xx_HAL_Driver/Src/stm32g4xx_hal_pcd.c **** 
1601:Drivers/STM32G4xx_HAL_Driver/Src/stm32g4xx_hal_pcd.c **** /**
1602:Drivers/STM32G4xx_HAL_Driver/Src/stm32g4xx_hal_pcd.c ****   * @brief  De-activate remote wakeup signalling.
1603:Drivers/STM32G4xx_HAL_Driver/Src/stm32g4xx_hal_pcd.c ****   * @param  hpcd PCD handle
1604:Drivers/STM32G4xx_HAL_Driver/Src/stm32g4xx_hal_pcd.c ****   * @retval HAL status
1605:Drivers/STM32G4xx_HAL_Driver/Src/stm32g4xx_hal_pcd.c ****   */
1606:Drivers/STM32G4xx_HAL_Driver/Src/stm32g4xx_hal_pcd.c **** HAL_StatusTypeDef HAL_PCD_DeActivateRemoteWakeup(PCD_HandleTypeDef *hpcd)
1607:Drivers/STM32G4xx_HAL_Driver/Src/stm32g4xx_hal_pcd.c **** {
1608:Drivers/STM32G4xx_HAL_Driver/Src/stm32g4xx_hal_pcd.c ****   return (USB_DeActivateRemoteWakeup(hpcd->Instance));
1609:Drivers/STM32G4xx_HAL_Driver/Src/stm32g4xx_hal_pcd.c **** }
1610:Drivers/STM32G4xx_HAL_Driver/Src/stm32g4xx_hal_pcd.c **** 
1611:Drivers/STM32G4xx_HAL_Driver/Src/stm32g4xx_hal_pcd.c **** /**
1612:Drivers/STM32G4xx_HAL_Driver/Src/stm32g4xx_hal_pcd.c ****   * @}
1613:Drivers/STM32G4xx_HAL_Driver/Src/stm32g4xx_hal_pcd.c ****   */
1614:Drivers/STM32G4xx_HAL_Driver/Src/stm32g4xx_hal_pcd.c **** 
1615:Drivers/STM32G4xx_HAL_Driver/Src/stm32g4xx_hal_pcd.c **** /** @defgroup PCD_Exported_Functions_Group4 Peripheral State functions
1616:Drivers/STM32G4xx_HAL_Driver/Src/stm32g4xx_hal_pcd.c ****  *  @brief   Peripheral State functions
1617:Drivers/STM32G4xx_HAL_Driver/Src/stm32g4xx_hal_pcd.c ****  *
1618:Drivers/STM32G4xx_HAL_Driver/Src/stm32g4xx_hal_pcd.c **** @verbatim
1619:Drivers/STM32G4xx_HAL_Driver/Src/stm32g4xx_hal_pcd.c ****  ===============================================================================
1620:Drivers/STM32G4xx_HAL_Driver/Src/stm32g4xx_hal_pcd.c ****                       ##### Peripheral State functions #####
1621:Drivers/STM32G4xx_HAL_Driver/Src/stm32g4xx_hal_pcd.c ****  ===============================================================================
1622:Drivers/STM32G4xx_HAL_Driver/Src/stm32g4xx_hal_pcd.c ****     [..]
1623:Drivers/STM32G4xx_HAL_Driver/Src/stm32g4xx_hal_pcd.c ****     This subsection permits to get in run-time the status of the peripheral
1624:Drivers/STM32G4xx_HAL_Driver/Src/stm32g4xx_hal_pcd.c ****     and the data flow.
1625:Drivers/STM32G4xx_HAL_Driver/Src/stm32g4xx_hal_pcd.c **** 
1626:Drivers/STM32G4xx_HAL_Driver/Src/stm32g4xx_hal_pcd.c **** @endverbatim
1627:Drivers/STM32G4xx_HAL_Driver/Src/stm32g4xx_hal_pcd.c ****   * @{
1628:Drivers/STM32G4xx_HAL_Driver/Src/stm32g4xx_hal_pcd.c ****   */
1629:Drivers/STM32G4xx_HAL_Driver/Src/stm32g4xx_hal_pcd.c **** 
1630:Drivers/STM32G4xx_HAL_Driver/Src/stm32g4xx_hal_pcd.c **** /**
1631:Drivers/STM32G4xx_HAL_Driver/Src/stm32g4xx_hal_pcd.c ****   * @brief  Return the PCD handle state.
1632:Drivers/STM32G4xx_HAL_Driver/Src/stm32g4xx_hal_pcd.c ****   * @param  hpcd PCD handle
1633:Drivers/STM32G4xx_HAL_Driver/Src/stm32g4xx_hal_pcd.c ****   * @retval HAL state
1634:Drivers/STM32G4xx_HAL_Driver/Src/stm32g4xx_hal_pcd.c ****   */
1635:Drivers/STM32G4xx_HAL_Driver/Src/stm32g4xx_hal_pcd.c **** PCD_StateTypeDef HAL_PCD_GetState(PCD_HandleTypeDef *hpcd)
1636:Drivers/STM32G4xx_HAL_Driver/Src/stm32g4xx_hal_pcd.c **** {
1637:Drivers/STM32G4xx_HAL_Driver/Src/stm32g4xx_hal_pcd.c ****   return hpcd->State;
ARM GAS  /tmp/cclKjP2I.s 			page 54


1638:Drivers/STM32G4xx_HAL_Driver/Src/stm32g4xx_hal_pcd.c **** }
1639:Drivers/STM32G4xx_HAL_Driver/Src/stm32g4xx_hal_pcd.c **** 
1640:Drivers/STM32G4xx_HAL_Driver/Src/stm32g4xx_hal_pcd.c **** /**
1641:Drivers/STM32G4xx_HAL_Driver/Src/stm32g4xx_hal_pcd.c ****   * @}
1642:Drivers/STM32G4xx_HAL_Driver/Src/stm32g4xx_hal_pcd.c ****   */
1643:Drivers/STM32G4xx_HAL_Driver/Src/stm32g4xx_hal_pcd.c **** 
1644:Drivers/STM32G4xx_HAL_Driver/Src/stm32g4xx_hal_pcd.c **** /**
1645:Drivers/STM32G4xx_HAL_Driver/Src/stm32g4xx_hal_pcd.c ****   * @}
1646:Drivers/STM32G4xx_HAL_Driver/Src/stm32g4xx_hal_pcd.c ****   */
1647:Drivers/STM32G4xx_HAL_Driver/Src/stm32g4xx_hal_pcd.c **** 
1648:Drivers/STM32G4xx_HAL_Driver/Src/stm32g4xx_hal_pcd.c **** /* Private functions ---------------------------------------------------------*/
1649:Drivers/STM32G4xx_HAL_Driver/Src/stm32g4xx_hal_pcd.c **** /** @addtogroup PCD_Private_Functions
1650:Drivers/STM32G4xx_HAL_Driver/Src/stm32g4xx_hal_pcd.c ****   * @{
1651:Drivers/STM32G4xx_HAL_Driver/Src/stm32g4xx_hal_pcd.c ****   */
1652:Drivers/STM32G4xx_HAL_Driver/Src/stm32g4xx_hal_pcd.c **** 
1653:Drivers/STM32G4xx_HAL_Driver/Src/stm32g4xx_hal_pcd.c **** 
1654:Drivers/STM32G4xx_HAL_Driver/Src/stm32g4xx_hal_pcd.c **** /**
1655:Drivers/STM32G4xx_HAL_Driver/Src/stm32g4xx_hal_pcd.c ****   * @brief  This function handles PCD Endpoint interrupt request.
1656:Drivers/STM32G4xx_HAL_Driver/Src/stm32g4xx_hal_pcd.c ****   * @param  hpcd PCD handle
1657:Drivers/STM32G4xx_HAL_Driver/Src/stm32g4xx_hal_pcd.c ****   * @retval HAL status
1658:Drivers/STM32G4xx_HAL_Driver/Src/stm32g4xx_hal_pcd.c ****   */
1659:Drivers/STM32G4xx_HAL_Driver/Src/stm32g4xx_hal_pcd.c **** static HAL_StatusTypeDef PCD_EP_ISR_Handler(PCD_HandleTypeDef *hpcd)
1660:Drivers/STM32G4xx_HAL_Driver/Src/stm32g4xx_hal_pcd.c **** {
1661:Drivers/STM32G4xx_HAL_Driver/Src/stm32g4xx_hal_pcd.c ****   PCD_EPTypeDef *ep;
1662:Drivers/STM32G4xx_HAL_Driver/Src/stm32g4xx_hal_pcd.c ****   uint16_t count;
1663:Drivers/STM32G4xx_HAL_Driver/Src/stm32g4xx_hal_pcd.c ****   uint16_t wIstr;
1664:Drivers/STM32G4xx_HAL_Driver/Src/stm32g4xx_hal_pcd.c ****   uint16_t wEPVal;
1665:Drivers/STM32G4xx_HAL_Driver/Src/stm32g4xx_hal_pcd.c ****   uint8_t epindex;
1666:Drivers/STM32G4xx_HAL_Driver/Src/stm32g4xx_hal_pcd.c **** 
1667:Drivers/STM32G4xx_HAL_Driver/Src/stm32g4xx_hal_pcd.c ****   /* stay in loop while pending interrupts */
1668:Drivers/STM32G4xx_HAL_Driver/Src/stm32g4xx_hal_pcd.c ****   while ((hpcd->Instance->ISTR & USB_ISTR_CTR) != 0U)
1669:Drivers/STM32G4xx_HAL_Driver/Src/stm32g4xx_hal_pcd.c ****   {
1670:Drivers/STM32G4xx_HAL_Driver/Src/stm32g4xx_hal_pcd.c ****     wIstr = hpcd->Instance->ISTR;
1671:Drivers/STM32G4xx_HAL_Driver/Src/stm32g4xx_hal_pcd.c ****     /* extract highest priority endpoint number */
1672:Drivers/STM32G4xx_HAL_Driver/Src/stm32g4xx_hal_pcd.c ****     epindex = (uint8_t)(wIstr & USB_ISTR_EP_ID);
1673:Drivers/STM32G4xx_HAL_Driver/Src/stm32g4xx_hal_pcd.c **** 
1674:Drivers/STM32G4xx_HAL_Driver/Src/stm32g4xx_hal_pcd.c ****     if (epindex == 0U)
1675:Drivers/STM32G4xx_HAL_Driver/Src/stm32g4xx_hal_pcd.c ****     {
1676:Drivers/STM32G4xx_HAL_Driver/Src/stm32g4xx_hal_pcd.c ****       /* Decode and service control endpoint interrupt */
1677:Drivers/STM32G4xx_HAL_Driver/Src/stm32g4xx_hal_pcd.c **** 
1678:Drivers/STM32G4xx_HAL_Driver/Src/stm32g4xx_hal_pcd.c ****       /* DIR bit = origin of the interrupt */
1679:Drivers/STM32G4xx_HAL_Driver/Src/stm32g4xx_hal_pcd.c ****       if ((wIstr & USB_ISTR_DIR) == 0U)
1680:Drivers/STM32G4xx_HAL_Driver/Src/stm32g4xx_hal_pcd.c ****       {
1681:Drivers/STM32G4xx_HAL_Driver/Src/stm32g4xx_hal_pcd.c ****         /* DIR = 0 */
1682:Drivers/STM32G4xx_HAL_Driver/Src/stm32g4xx_hal_pcd.c **** 
1683:Drivers/STM32G4xx_HAL_Driver/Src/stm32g4xx_hal_pcd.c ****         /* DIR = 0      => IN  int */
1684:Drivers/STM32G4xx_HAL_Driver/Src/stm32g4xx_hal_pcd.c ****         /* DIR = 0 implies that (EP_CTR_TX = 1) always  */
1685:Drivers/STM32G4xx_HAL_Driver/Src/stm32g4xx_hal_pcd.c ****         PCD_CLEAR_TX_EP_CTR(hpcd->Instance, PCD_ENDP0);
1686:Drivers/STM32G4xx_HAL_Driver/Src/stm32g4xx_hal_pcd.c ****         ep = &hpcd->IN_ep[0];
1687:Drivers/STM32G4xx_HAL_Driver/Src/stm32g4xx_hal_pcd.c **** 
1688:Drivers/STM32G4xx_HAL_Driver/Src/stm32g4xx_hal_pcd.c ****         ep->xfer_count = PCD_GET_EP_TX_CNT(hpcd->Instance, ep->num);
1689:Drivers/STM32G4xx_HAL_Driver/Src/stm32g4xx_hal_pcd.c ****         ep->xfer_buff += ep->xfer_count;
1690:Drivers/STM32G4xx_HAL_Driver/Src/stm32g4xx_hal_pcd.c **** 
1691:Drivers/STM32G4xx_HAL_Driver/Src/stm32g4xx_hal_pcd.c ****         /* TX COMPLETE */
1692:Drivers/STM32G4xx_HAL_Driver/Src/stm32g4xx_hal_pcd.c **** #if (USE_HAL_PCD_REGISTER_CALLBACKS == 1U)
1693:Drivers/STM32G4xx_HAL_Driver/Src/stm32g4xx_hal_pcd.c ****         hpcd->DataInStageCallback(hpcd, 0U);
1694:Drivers/STM32G4xx_HAL_Driver/Src/stm32g4xx_hal_pcd.c **** #else
ARM GAS  /tmp/cclKjP2I.s 			page 55


1695:Drivers/STM32G4xx_HAL_Driver/Src/stm32g4xx_hal_pcd.c ****         HAL_PCD_DataInStageCallback(hpcd, 0U);
1696:Drivers/STM32G4xx_HAL_Driver/Src/stm32g4xx_hal_pcd.c **** #endif /* USE_HAL_PCD_REGISTER_CALLBACKS */
1697:Drivers/STM32G4xx_HAL_Driver/Src/stm32g4xx_hal_pcd.c **** 
1698:Drivers/STM32G4xx_HAL_Driver/Src/stm32g4xx_hal_pcd.c ****         if ((hpcd->USB_Address > 0U) && (ep->xfer_len == 0U))
1699:Drivers/STM32G4xx_HAL_Driver/Src/stm32g4xx_hal_pcd.c ****         {
1700:Drivers/STM32G4xx_HAL_Driver/Src/stm32g4xx_hal_pcd.c ****           hpcd->Instance->DADDR = ((uint16_t)hpcd->USB_Address | USB_DADDR_EF);
1701:Drivers/STM32G4xx_HAL_Driver/Src/stm32g4xx_hal_pcd.c ****           hpcd->USB_Address = 0U;
1702:Drivers/STM32G4xx_HAL_Driver/Src/stm32g4xx_hal_pcd.c ****         }
1703:Drivers/STM32G4xx_HAL_Driver/Src/stm32g4xx_hal_pcd.c ****       }
1704:Drivers/STM32G4xx_HAL_Driver/Src/stm32g4xx_hal_pcd.c ****       else
1705:Drivers/STM32G4xx_HAL_Driver/Src/stm32g4xx_hal_pcd.c ****       {
1706:Drivers/STM32G4xx_HAL_Driver/Src/stm32g4xx_hal_pcd.c ****         /* DIR = 1 */
1707:Drivers/STM32G4xx_HAL_Driver/Src/stm32g4xx_hal_pcd.c **** 
1708:Drivers/STM32G4xx_HAL_Driver/Src/stm32g4xx_hal_pcd.c ****         /* DIR = 1 & CTR_RX       => SETUP or OUT int */
1709:Drivers/STM32G4xx_HAL_Driver/Src/stm32g4xx_hal_pcd.c ****         /* DIR = 1 & (CTR_TX | CTR_RX) => 2 int pending */
1710:Drivers/STM32G4xx_HAL_Driver/Src/stm32g4xx_hal_pcd.c ****         ep = &hpcd->OUT_ep[0];
1711:Drivers/STM32G4xx_HAL_Driver/Src/stm32g4xx_hal_pcd.c ****         wEPVal = PCD_GET_ENDPOINT(hpcd->Instance, PCD_ENDP0);
1712:Drivers/STM32G4xx_HAL_Driver/Src/stm32g4xx_hal_pcd.c **** 
1713:Drivers/STM32G4xx_HAL_Driver/Src/stm32g4xx_hal_pcd.c ****         if ((wEPVal & USB_EP_SETUP) != 0U)
1714:Drivers/STM32G4xx_HAL_Driver/Src/stm32g4xx_hal_pcd.c ****         {
1715:Drivers/STM32G4xx_HAL_Driver/Src/stm32g4xx_hal_pcd.c ****           /* Get SETUP Packet*/
1716:Drivers/STM32G4xx_HAL_Driver/Src/stm32g4xx_hal_pcd.c ****           ep->xfer_count = PCD_GET_EP_RX_CNT(hpcd->Instance, ep->num);
1717:Drivers/STM32G4xx_HAL_Driver/Src/stm32g4xx_hal_pcd.c **** 
1718:Drivers/STM32G4xx_HAL_Driver/Src/stm32g4xx_hal_pcd.c ****           USB_ReadPMA(hpcd->Instance, (uint8_t *)hpcd->Setup,
1719:Drivers/STM32G4xx_HAL_Driver/Src/stm32g4xx_hal_pcd.c ****                       ep->pmaadress, (uint16_t)ep->xfer_count);
1720:Drivers/STM32G4xx_HAL_Driver/Src/stm32g4xx_hal_pcd.c **** 
1721:Drivers/STM32G4xx_HAL_Driver/Src/stm32g4xx_hal_pcd.c ****           /* SETUP bit kept frozen while CTR_RX = 1*/
1722:Drivers/STM32G4xx_HAL_Driver/Src/stm32g4xx_hal_pcd.c ****           PCD_CLEAR_RX_EP_CTR(hpcd->Instance, PCD_ENDP0);
1723:Drivers/STM32G4xx_HAL_Driver/Src/stm32g4xx_hal_pcd.c **** 
1724:Drivers/STM32G4xx_HAL_Driver/Src/stm32g4xx_hal_pcd.c ****           /* Process SETUP Packet*/
1725:Drivers/STM32G4xx_HAL_Driver/Src/stm32g4xx_hal_pcd.c **** #if (USE_HAL_PCD_REGISTER_CALLBACKS == 1U)
1726:Drivers/STM32G4xx_HAL_Driver/Src/stm32g4xx_hal_pcd.c ****           hpcd->SetupStageCallback(hpcd);
1727:Drivers/STM32G4xx_HAL_Driver/Src/stm32g4xx_hal_pcd.c **** #else
1728:Drivers/STM32G4xx_HAL_Driver/Src/stm32g4xx_hal_pcd.c ****           HAL_PCD_SetupStageCallback(hpcd);
1729:Drivers/STM32G4xx_HAL_Driver/Src/stm32g4xx_hal_pcd.c **** #endif /* USE_HAL_PCD_REGISTER_CALLBACKS */
1730:Drivers/STM32G4xx_HAL_Driver/Src/stm32g4xx_hal_pcd.c ****         }
1731:Drivers/STM32G4xx_HAL_Driver/Src/stm32g4xx_hal_pcd.c **** 
1732:Drivers/STM32G4xx_HAL_Driver/Src/stm32g4xx_hal_pcd.c ****         else if ((wEPVal & USB_EP_CTR_RX) != 0U)
1733:Drivers/STM32G4xx_HAL_Driver/Src/stm32g4xx_hal_pcd.c ****         {
1734:Drivers/STM32G4xx_HAL_Driver/Src/stm32g4xx_hal_pcd.c ****           PCD_CLEAR_RX_EP_CTR(hpcd->Instance, PCD_ENDP0);
1735:Drivers/STM32G4xx_HAL_Driver/Src/stm32g4xx_hal_pcd.c **** 
1736:Drivers/STM32G4xx_HAL_Driver/Src/stm32g4xx_hal_pcd.c ****           /* Get Control Data OUT Packet*/
1737:Drivers/STM32G4xx_HAL_Driver/Src/stm32g4xx_hal_pcd.c ****           ep->xfer_count = PCD_GET_EP_RX_CNT(hpcd->Instance, ep->num);
1738:Drivers/STM32G4xx_HAL_Driver/Src/stm32g4xx_hal_pcd.c **** 
1739:Drivers/STM32G4xx_HAL_Driver/Src/stm32g4xx_hal_pcd.c ****           if ((ep->xfer_count != 0U) && (ep->xfer_buff != 0U))
1740:Drivers/STM32G4xx_HAL_Driver/Src/stm32g4xx_hal_pcd.c ****           {
1741:Drivers/STM32G4xx_HAL_Driver/Src/stm32g4xx_hal_pcd.c ****             USB_ReadPMA(hpcd->Instance, ep->xfer_buff,
1742:Drivers/STM32G4xx_HAL_Driver/Src/stm32g4xx_hal_pcd.c ****                         ep->pmaadress, (uint16_t)ep->xfer_count);
1743:Drivers/STM32G4xx_HAL_Driver/Src/stm32g4xx_hal_pcd.c **** 
1744:Drivers/STM32G4xx_HAL_Driver/Src/stm32g4xx_hal_pcd.c ****             ep->xfer_buff += ep->xfer_count;
1745:Drivers/STM32G4xx_HAL_Driver/Src/stm32g4xx_hal_pcd.c **** 
1746:Drivers/STM32G4xx_HAL_Driver/Src/stm32g4xx_hal_pcd.c ****             /* Process Control Data OUT Packet*/
1747:Drivers/STM32G4xx_HAL_Driver/Src/stm32g4xx_hal_pcd.c **** #if (USE_HAL_PCD_REGISTER_CALLBACKS == 1U)
1748:Drivers/STM32G4xx_HAL_Driver/Src/stm32g4xx_hal_pcd.c ****             hpcd->DataOutStageCallback(hpcd, 0U);
1749:Drivers/STM32G4xx_HAL_Driver/Src/stm32g4xx_hal_pcd.c **** #else
1750:Drivers/STM32G4xx_HAL_Driver/Src/stm32g4xx_hal_pcd.c ****             HAL_PCD_DataOutStageCallback(hpcd, 0U);
1751:Drivers/STM32G4xx_HAL_Driver/Src/stm32g4xx_hal_pcd.c **** #endif /* USE_HAL_PCD_REGISTER_CALLBACKS */
ARM GAS  /tmp/cclKjP2I.s 			page 56


1752:Drivers/STM32G4xx_HAL_Driver/Src/stm32g4xx_hal_pcd.c ****           }
1753:Drivers/STM32G4xx_HAL_Driver/Src/stm32g4xx_hal_pcd.c **** 
1754:Drivers/STM32G4xx_HAL_Driver/Src/stm32g4xx_hal_pcd.c ****           PCD_SET_EP_RX_CNT(hpcd->Instance, PCD_ENDP0, ep->maxpacket);
1755:Drivers/STM32G4xx_HAL_Driver/Src/stm32g4xx_hal_pcd.c ****           PCD_SET_EP_RX_STATUS(hpcd->Instance, PCD_ENDP0, USB_EP_RX_VALID);
1756:Drivers/STM32G4xx_HAL_Driver/Src/stm32g4xx_hal_pcd.c ****         }
1757:Drivers/STM32G4xx_HAL_Driver/Src/stm32g4xx_hal_pcd.c ****       }
1758:Drivers/STM32G4xx_HAL_Driver/Src/stm32g4xx_hal_pcd.c ****     }
1759:Drivers/STM32G4xx_HAL_Driver/Src/stm32g4xx_hal_pcd.c ****     else
1760:Drivers/STM32G4xx_HAL_Driver/Src/stm32g4xx_hal_pcd.c ****     {
1761:Drivers/STM32G4xx_HAL_Driver/Src/stm32g4xx_hal_pcd.c ****       /* Decode and service non control endpoints interrupt  */
1762:Drivers/STM32G4xx_HAL_Driver/Src/stm32g4xx_hal_pcd.c **** 
1763:Drivers/STM32G4xx_HAL_Driver/Src/stm32g4xx_hal_pcd.c ****       /* process related endpoint register */
1764:Drivers/STM32G4xx_HAL_Driver/Src/stm32g4xx_hal_pcd.c ****       wEPVal = PCD_GET_ENDPOINT(hpcd->Instance, epindex);
1765:Drivers/STM32G4xx_HAL_Driver/Src/stm32g4xx_hal_pcd.c ****       if ((wEPVal & USB_EP_CTR_RX) != 0U)
1766:Drivers/STM32G4xx_HAL_Driver/Src/stm32g4xx_hal_pcd.c ****       {
1767:Drivers/STM32G4xx_HAL_Driver/Src/stm32g4xx_hal_pcd.c ****         /* clear int flag */
1768:Drivers/STM32G4xx_HAL_Driver/Src/stm32g4xx_hal_pcd.c ****         PCD_CLEAR_RX_EP_CTR(hpcd->Instance, epindex);
1769:Drivers/STM32G4xx_HAL_Driver/Src/stm32g4xx_hal_pcd.c ****         ep = &hpcd->OUT_ep[epindex];
1770:Drivers/STM32G4xx_HAL_Driver/Src/stm32g4xx_hal_pcd.c **** 
1771:Drivers/STM32G4xx_HAL_Driver/Src/stm32g4xx_hal_pcd.c ****         /* OUT double Buffering*/
1772:Drivers/STM32G4xx_HAL_Driver/Src/stm32g4xx_hal_pcd.c ****         if (ep->doublebuffer == 0U)
1773:Drivers/STM32G4xx_HAL_Driver/Src/stm32g4xx_hal_pcd.c ****         {
1774:Drivers/STM32G4xx_HAL_Driver/Src/stm32g4xx_hal_pcd.c ****           count = (uint16_t)PCD_GET_EP_RX_CNT(hpcd->Instance, ep->num);
1775:Drivers/STM32G4xx_HAL_Driver/Src/stm32g4xx_hal_pcd.c ****           if (count != 0U)
1776:Drivers/STM32G4xx_HAL_Driver/Src/stm32g4xx_hal_pcd.c ****           {
1777:Drivers/STM32G4xx_HAL_Driver/Src/stm32g4xx_hal_pcd.c ****             USB_ReadPMA(hpcd->Instance, ep->xfer_buff, ep->pmaadress, count);
1778:Drivers/STM32G4xx_HAL_Driver/Src/stm32g4xx_hal_pcd.c ****           }
1779:Drivers/STM32G4xx_HAL_Driver/Src/stm32g4xx_hal_pcd.c ****         }
1780:Drivers/STM32G4xx_HAL_Driver/Src/stm32g4xx_hal_pcd.c ****         else
1781:Drivers/STM32G4xx_HAL_Driver/Src/stm32g4xx_hal_pcd.c ****         {
1782:Drivers/STM32G4xx_HAL_Driver/Src/stm32g4xx_hal_pcd.c ****           if ((PCD_GET_ENDPOINT(hpcd->Instance, ep->num) & USB_EP_DTOG_RX) != 0U)
1783:Drivers/STM32G4xx_HAL_Driver/Src/stm32g4xx_hal_pcd.c ****           {
1784:Drivers/STM32G4xx_HAL_Driver/Src/stm32g4xx_hal_pcd.c ****             /*read from endpoint BUF0Addr buffer*/
1785:Drivers/STM32G4xx_HAL_Driver/Src/stm32g4xx_hal_pcd.c ****             count = (uint16_t)PCD_GET_EP_DBUF0_CNT(hpcd->Instance, ep->num);
1786:Drivers/STM32G4xx_HAL_Driver/Src/stm32g4xx_hal_pcd.c ****             if (count != 0U)
1787:Drivers/STM32G4xx_HAL_Driver/Src/stm32g4xx_hal_pcd.c ****             {
1788:Drivers/STM32G4xx_HAL_Driver/Src/stm32g4xx_hal_pcd.c ****               USB_ReadPMA(hpcd->Instance, ep->xfer_buff, ep->pmaaddr0, count);
1789:Drivers/STM32G4xx_HAL_Driver/Src/stm32g4xx_hal_pcd.c ****             }
1790:Drivers/STM32G4xx_HAL_Driver/Src/stm32g4xx_hal_pcd.c ****           }
1791:Drivers/STM32G4xx_HAL_Driver/Src/stm32g4xx_hal_pcd.c ****           else
1792:Drivers/STM32G4xx_HAL_Driver/Src/stm32g4xx_hal_pcd.c ****           {
1793:Drivers/STM32G4xx_HAL_Driver/Src/stm32g4xx_hal_pcd.c ****             /*read from endpoint BUF1Addr buffer*/
1794:Drivers/STM32G4xx_HAL_Driver/Src/stm32g4xx_hal_pcd.c ****             count = (uint16_t)PCD_GET_EP_DBUF1_CNT(hpcd->Instance, ep->num);
1795:Drivers/STM32G4xx_HAL_Driver/Src/stm32g4xx_hal_pcd.c ****             if (count != 0U)
1796:Drivers/STM32G4xx_HAL_Driver/Src/stm32g4xx_hal_pcd.c ****             {
1797:Drivers/STM32G4xx_HAL_Driver/Src/stm32g4xx_hal_pcd.c ****               USB_ReadPMA(hpcd->Instance, ep->xfer_buff, ep->pmaaddr1, count);
1798:Drivers/STM32G4xx_HAL_Driver/Src/stm32g4xx_hal_pcd.c ****             }
1799:Drivers/STM32G4xx_HAL_Driver/Src/stm32g4xx_hal_pcd.c ****           }
1800:Drivers/STM32G4xx_HAL_Driver/Src/stm32g4xx_hal_pcd.c ****           /* free EP OUT Buffer */
1801:Drivers/STM32G4xx_HAL_Driver/Src/stm32g4xx_hal_pcd.c ****           PCD_FreeUserBuffer(hpcd->Instance, ep->num, 0U);
1802:Drivers/STM32G4xx_HAL_Driver/Src/stm32g4xx_hal_pcd.c ****         }
1803:Drivers/STM32G4xx_HAL_Driver/Src/stm32g4xx_hal_pcd.c ****         /*multi-packet on the NON control OUT endpoint*/
1804:Drivers/STM32G4xx_HAL_Driver/Src/stm32g4xx_hal_pcd.c ****         ep->xfer_count += count;
1805:Drivers/STM32G4xx_HAL_Driver/Src/stm32g4xx_hal_pcd.c ****         ep->xfer_buff += count;
1806:Drivers/STM32G4xx_HAL_Driver/Src/stm32g4xx_hal_pcd.c **** 
1807:Drivers/STM32G4xx_HAL_Driver/Src/stm32g4xx_hal_pcd.c ****         if ((ep->xfer_len == 0U) || (count < ep->maxpacket))
1808:Drivers/STM32G4xx_HAL_Driver/Src/stm32g4xx_hal_pcd.c ****         {
ARM GAS  /tmp/cclKjP2I.s 			page 57


1809:Drivers/STM32G4xx_HAL_Driver/Src/stm32g4xx_hal_pcd.c ****           /* RX COMPLETE */
1810:Drivers/STM32G4xx_HAL_Driver/Src/stm32g4xx_hal_pcd.c **** #if (USE_HAL_PCD_REGISTER_CALLBACKS == 1U)
1811:Drivers/STM32G4xx_HAL_Driver/Src/stm32g4xx_hal_pcd.c ****           hpcd->DataOutStageCallback(hpcd, ep->num);
1812:Drivers/STM32G4xx_HAL_Driver/Src/stm32g4xx_hal_pcd.c **** #else
1813:Drivers/STM32G4xx_HAL_Driver/Src/stm32g4xx_hal_pcd.c ****           HAL_PCD_DataOutStageCallback(hpcd, ep->num);
1814:Drivers/STM32G4xx_HAL_Driver/Src/stm32g4xx_hal_pcd.c **** #endif /* USE_HAL_PCD_REGISTER_CALLBACKS */
1815:Drivers/STM32G4xx_HAL_Driver/Src/stm32g4xx_hal_pcd.c ****         }
1816:Drivers/STM32G4xx_HAL_Driver/Src/stm32g4xx_hal_pcd.c ****         else
1817:Drivers/STM32G4xx_HAL_Driver/Src/stm32g4xx_hal_pcd.c ****         {
1818:Drivers/STM32G4xx_HAL_Driver/Src/stm32g4xx_hal_pcd.c ****           (void)HAL_PCD_EP_Receive(hpcd, ep->num, ep->xfer_buff, ep->xfer_len);
1819:Drivers/STM32G4xx_HAL_Driver/Src/stm32g4xx_hal_pcd.c ****         }
1820:Drivers/STM32G4xx_HAL_Driver/Src/stm32g4xx_hal_pcd.c **** 
1821:Drivers/STM32G4xx_HAL_Driver/Src/stm32g4xx_hal_pcd.c ****       } /* if((wEPVal & EP_CTR_RX) */
1822:Drivers/STM32G4xx_HAL_Driver/Src/stm32g4xx_hal_pcd.c **** 
1823:Drivers/STM32G4xx_HAL_Driver/Src/stm32g4xx_hal_pcd.c ****       if ((wEPVal & USB_EP_CTR_TX) != 0U)
1824:Drivers/STM32G4xx_HAL_Driver/Src/stm32g4xx_hal_pcd.c ****       {
1825:Drivers/STM32G4xx_HAL_Driver/Src/stm32g4xx_hal_pcd.c ****         ep = &hpcd->IN_ep[epindex];
1826:Drivers/STM32G4xx_HAL_Driver/Src/stm32g4xx_hal_pcd.c **** 
1827:Drivers/STM32G4xx_HAL_Driver/Src/stm32g4xx_hal_pcd.c ****         /* clear int flag */
1828:Drivers/STM32G4xx_HAL_Driver/Src/stm32g4xx_hal_pcd.c ****         PCD_CLEAR_TX_EP_CTR(hpcd->Instance, epindex);
 1270              		.loc 1 1828 9 view .LVU350
 1271 0010 DFF8A084 		ldr	r8, .L142+4
 1272              	.LBE15:
 1273              	.LBB16:
1801:Drivers/STM32G4xx_HAL_Driver/Src/stm32g4xx_hal_pcd.c ****         }
 1274              		.loc 1 1801 11 view .LVU351
 1275 0014 DFF8A0A4 		ldr	r10, .L142+8
 1276              	.L60:
 1277              	.LBE16:
1668:Drivers/STM32G4xx_HAL_Driver/Src/stm32g4xx_hal_pcd.c ****   {
 1278              		.loc 1 1668 9 is_stmt 1 view .LVU352
1668:Drivers/STM32G4xx_HAL_Driver/Src/stm32g4xx_hal_pcd.c ****   {
 1279              		.loc 1 1668 15 is_stmt 0 view .LVU353
 1280 0018 2068     		ldr	r0, [r4]
1668:Drivers/STM32G4xx_HAL_Driver/Src/stm32g4xx_hal_pcd.c ****   {
 1281              		.loc 1 1668 25 view .LVU354
 1282 001a B0F84430 		ldrh	r3, [r0, #68]
1668:Drivers/STM32G4xx_HAL_Driver/Src/stm32g4xx_hal_pcd.c ****   {
 1283              		.loc 1 1668 9 view .LVU355
 1284 001e 1A04     		lsls	r2, r3, #16
 1285 0020 00F1D080 		bmi	.L83
 1286              	.L84:
1668:Drivers/STM32G4xx_HAL_Driver/Src/stm32g4xx_hal_pcd.c ****   {
 1287              		.loc 1 1668 9 view .LVU356
 1288              	.LBE14:
 1289              	.LBE13:
1003:Drivers/STM32G4xx_HAL_Driver/Src/stm32g4xx_hal_pcd.c ****   {
 1290              		.loc 1 1003 3 is_stmt 1 view .LVU357
1003:Drivers/STM32G4xx_HAL_Driver/Src/stm32g4xx_hal_pcd.c ****   {
 1291              		.loc 1 1003 7 is_stmt 0 view .LVU358
 1292 0024 2068     		ldr	r0, [r4]
 1293 0026 FFF7FEFF 		bl	USB_ReadInterrupts
 1294              	.LVL90:
1003:Drivers/STM32G4xx_HAL_Driver/Src/stm32g4xx_hal_pcd.c ****   {
 1295              		.loc 1 1003 6 view .LVU359
 1296 002a 4305     		lsls	r3, r0, #21
 1297 002c 0FD5     		bpl	.L62
ARM GAS  /tmp/cclKjP2I.s 			page 58


1005:Drivers/STM32G4xx_HAL_Driver/Src/stm32g4xx_hal_pcd.c **** 
 1298              		.loc 1 1005 5 is_stmt 1 view .LVU360
 1299 002e 2268     		ldr	r2, [r4]
 1300 0030 B2F84430 		ldrh	r3, [r2, #68]
 1301 0034 23F48063 		bic	r3, r3, #1024
 1302 0038 1B04     		lsls	r3, r3, #16
 1303 003a 1B0C     		lsrs	r3, r3, #16
1010:Drivers/STM32G4xx_HAL_Driver/Src/stm32g4xx_hal_pcd.c **** #endif /* USE_HAL_PCD_REGISTER_CALLBACKS */
 1304              		.loc 1 1010 5 is_stmt 0 view .LVU361
 1305 003c 2046     		mov	r0, r4
1005:Drivers/STM32G4xx_HAL_Driver/Src/stm32g4xx_hal_pcd.c **** 
 1306              		.loc 1 1005 5 view .LVU362
 1307 003e A2F84430 		strh	r3, [r2, #68]	@ movhi
1010:Drivers/STM32G4xx_HAL_Driver/Src/stm32g4xx_hal_pcd.c **** #endif /* USE_HAL_PCD_REGISTER_CALLBACKS */
 1308              		.loc 1 1010 5 is_stmt 1 view .LVU363
 1309 0042 FFF7FEFF 		bl	HAL_PCD_ResetCallback
 1310              	.LVL91:
1013:Drivers/STM32G4xx_HAL_Driver/Src/stm32g4xx_hal_pcd.c ****   }
 1311              		.loc 1 1013 5 view .LVU364
1013:Drivers/STM32G4xx_HAL_Driver/Src/stm32g4xx_hal_pcd.c ****   }
 1312              		.loc 1 1013 11 is_stmt 0 view .LVU365
 1313 0046 0021     		movs	r1, #0
 1314 0048 2046     		mov	r0, r4
 1315 004a FFF7FEFF 		bl	HAL_PCD_SetAddress
 1316              	.LVL92:
 1317              	.L62:
1016:Drivers/STM32G4xx_HAL_Driver/Src/stm32g4xx_hal_pcd.c ****   {
 1318              		.loc 1 1016 3 is_stmt 1 view .LVU366
1016:Drivers/STM32G4xx_HAL_Driver/Src/stm32g4xx_hal_pcd.c ****   {
 1319              		.loc 1 1016 7 is_stmt 0 view .LVU367
 1320 004e 2068     		ldr	r0, [r4]
 1321 0050 FFF7FEFF 		bl	USB_ReadInterrupts
 1322              	.LVL93:
1016:Drivers/STM32G4xx_HAL_Driver/Src/stm32g4xx_hal_pcd.c ****   {
 1323              		.loc 1 1016 6 view .LVU368
 1324 0054 4304     		lsls	r3, r0, #17
 1325 0056 08D5     		bpl	.L85
1018:Drivers/STM32G4xx_HAL_Driver/Src/stm32g4xx_hal_pcd.c ****   }
 1326              		.loc 1 1018 5 is_stmt 1 view .LVU369
 1327 0058 2268     		ldr	r2, [r4]
 1328 005a B2F84430 		ldrh	r3, [r2, #68]
 1329 005e 23F48043 		bic	r3, r3, #16384
 1330 0062 1B04     		lsls	r3, r3, #16
 1331 0064 1B0C     		lsrs	r3, r3, #16
 1332 0066 A2F84430 		strh	r3, [r2, #68]	@ movhi
 1333              	.L85:
1021:Drivers/STM32G4xx_HAL_Driver/Src/stm32g4xx_hal_pcd.c ****   {
 1334              		.loc 1 1021 3 view .LVU370
1021:Drivers/STM32G4xx_HAL_Driver/Src/stm32g4xx_hal_pcd.c ****   {
 1335              		.loc 1 1021 7 is_stmt 0 view .LVU371
 1336 006a 2068     		ldr	r0, [r4]
 1337 006c FFF7FEFF 		bl	USB_ReadInterrupts
 1338              	.LVL94:
1021:Drivers/STM32G4xx_HAL_Driver/Src/stm32g4xx_hal_pcd.c ****   {
 1339              		.loc 1 1021 6 view .LVU372
 1340 0070 8704     		lsls	r7, r0, #18
 1341 0072 08D5     		bpl	.L86
ARM GAS  /tmp/cclKjP2I.s 			page 59


1023:Drivers/STM32G4xx_HAL_Driver/Src/stm32g4xx_hal_pcd.c ****   }
 1342              		.loc 1 1023 5 is_stmt 1 view .LVU373
 1343 0074 2268     		ldr	r2, [r4]
 1344 0076 B2F84430 		ldrh	r3, [r2, #68]
 1345 007a 23F40053 		bic	r3, r3, #8192
 1346 007e 1B04     		lsls	r3, r3, #16
 1347 0080 1B0C     		lsrs	r3, r3, #16
 1348 0082 A2F84430 		strh	r3, [r2, #68]	@ movhi
 1349              	.L86:
1026:Drivers/STM32G4xx_HAL_Driver/Src/stm32g4xx_hal_pcd.c ****   {
 1350              		.loc 1 1026 3 view .LVU374
1026:Drivers/STM32G4xx_HAL_Driver/Src/stm32g4xx_hal_pcd.c ****   {
 1351              		.loc 1 1026 7 is_stmt 0 view .LVU375
 1352 0086 2068     		ldr	r0, [r4]
 1353 0088 FFF7FEFF 		bl	USB_ReadInterrupts
 1354              	.LVL95:
1026:Drivers/STM32G4xx_HAL_Driver/Src/stm32g4xx_hal_pcd.c ****   {
 1355              		.loc 1 1026 6 view .LVU376
 1356 008c C604     		lsls	r6, r0, #19
 1357 008e 26D5     		bpl	.L87
1028:Drivers/STM32G4xx_HAL_Driver/Src/stm32g4xx_hal_pcd.c ****     hpcd->Instance->CNTR &= (uint16_t) ~(USB_CNTR_FSUSP);
 1358              		.loc 1 1028 5 is_stmt 1 view .LVU377
1028:Drivers/STM32G4xx_HAL_Driver/Src/stm32g4xx_hal_pcd.c ****     hpcd->Instance->CNTR &= (uint16_t) ~(USB_CNTR_FSUSP);
 1359              		.loc 1 1028 9 is_stmt 0 view .LVU378
 1360 0090 2268     		ldr	r2, [r4]
1028:Drivers/STM32G4xx_HAL_Driver/Src/stm32g4xx_hal_pcd.c ****     hpcd->Instance->CNTR &= (uint16_t) ~(USB_CNTR_FSUSP);
 1361              		.loc 1 1028 26 view .LVU379
 1362 0092 B2F84030 		ldrh	r3, [r2, #64]
 1363 0096 23F00403 		bic	r3, r3, #4
 1364 009a 1B04     		lsls	r3, r3, #16
 1365 009c 1B0C     		lsrs	r3, r3, #16
 1366 009e A2F84030 		strh	r3, [r2, #64]	@ movhi
1029:Drivers/STM32G4xx_HAL_Driver/Src/stm32g4xx_hal_pcd.c **** 
 1367              		.loc 1 1029 5 is_stmt 1 view .LVU380
1029:Drivers/STM32G4xx_HAL_Driver/Src/stm32g4xx_hal_pcd.c **** 
 1368              		.loc 1 1029 26 is_stmt 0 view .LVU381
 1369 00a2 B2F84030 		ldrh	r3, [r2, #64]
 1370 00a6 23F00803 		bic	r3, r3, #8
 1371 00aa 1B04     		lsls	r3, r3, #16
 1372 00ac 1B0C     		lsrs	r3, r3, #16
 1373 00ae A2F84030 		strh	r3, [r2, #64]	@ movhi
1031:Drivers/STM32G4xx_HAL_Driver/Src/stm32g4xx_hal_pcd.c ****     {
 1374              		.loc 1 1031 5 is_stmt 1 view .LVU382
1031:Drivers/STM32G4xx_HAL_Driver/Src/stm32g4xx_hal_pcd.c ****     {
 1375              		.loc 1 1031 8 is_stmt 0 view .LVU383
 1376 00b2 94F86032 		ldrb	r3, [r4, #608]	@ zero_extendqisi2
 1377 00b6 012B     		cmp	r3, #1
 1378 00b8 05D1     		bne	.L88
1033:Drivers/STM32G4xx_HAL_Driver/Src/stm32g4xx_hal_pcd.c **** #if (USE_HAL_PCD_REGISTER_CALLBACKS == 1U)
 1379              		.loc 1 1033 7 is_stmt 1 view .LVU384
1033:Drivers/STM32G4xx_HAL_Driver/Src/stm32g4xx_hal_pcd.c **** #if (USE_HAL_PCD_REGISTER_CALLBACKS == 1U)
 1380              		.loc 1 1033 23 is_stmt 0 view .LVU385
 1381 00ba 0021     		movs	r1, #0
 1382 00bc 84F86012 		strb	r1, [r4, #608]
1037:Drivers/STM32G4xx_HAL_Driver/Src/stm32g4xx_hal_pcd.c **** #endif /* USE_HAL_PCD_REGISTER_CALLBACKS */
 1383              		.loc 1 1037 7 is_stmt 1 view .LVU386
 1384 00c0 2046     		mov	r0, r4
ARM GAS  /tmp/cclKjP2I.s 			page 60


 1385 00c2 FFF7FEFF 		bl	HAL_PCDEx_LPM_Callback
 1386              	.LVL96:
 1387              	.L88:
1044:Drivers/STM32G4xx_HAL_Driver/Src/stm32g4xx_hal_pcd.c **** #endif /* USE_HAL_PCD_REGISTER_CALLBACKS */
 1388              		.loc 1 1044 5 view .LVU387
 1389 00c6 2046     		mov	r0, r4
 1390 00c8 FFF7FEFF 		bl	HAL_PCD_ResumeCallback
 1391              	.LVL97:
1047:Drivers/STM32G4xx_HAL_Driver/Src/stm32g4xx_hal_pcd.c ****   }
 1392              		.loc 1 1047 5 view .LVU388
 1393 00cc 2268     		ldr	r2, [r4]
 1394 00ce B2F84430 		ldrh	r3, [r2, #68]
 1395 00d2 23F48053 		bic	r3, r3, #4096
 1396 00d6 1B04     		lsls	r3, r3, #16
 1397 00d8 1B0C     		lsrs	r3, r3, #16
 1398 00da A2F84430 		strh	r3, [r2, #68]	@ movhi
 1399              	.L87:
1050:Drivers/STM32G4xx_HAL_Driver/Src/stm32g4xx_hal_pcd.c ****   {
 1400              		.loc 1 1050 3 view .LVU389
1050:Drivers/STM32G4xx_HAL_Driver/Src/stm32g4xx_hal_pcd.c ****   {
 1401              		.loc 1 1050 7 is_stmt 0 view .LVU390
 1402 00de 2068     		ldr	r0, [r4]
 1403 00e0 FFF7FEFF 		bl	USB_ReadInterrupts
 1404              	.LVL98:
1050:Drivers/STM32G4xx_HAL_Driver/Src/stm32g4xx_hal_pcd.c ****   {
 1405              		.loc 1 1050 6 view .LVU391
 1406 00e4 0505     		lsls	r5, r0, #20
 1407 00e6 1DD5     		bpl	.L90
1053:Drivers/STM32G4xx_HAL_Driver/Src/stm32g4xx_hal_pcd.c **** 
 1408              		.loc 1 1053 5 is_stmt 1 view .LVU392
1053:Drivers/STM32G4xx_HAL_Driver/Src/stm32g4xx_hal_pcd.c **** 
 1409              		.loc 1 1053 9 is_stmt 0 view .LVU393
 1410 00e8 2068     		ldr	r0, [r4]
1053:Drivers/STM32G4xx_HAL_Driver/Src/stm32g4xx_hal_pcd.c **** 
 1411              		.loc 1 1053 26 view .LVU394
 1412 00ea B0F84030 		ldrh	r3, [r0, #64]
 1413 00ee 9BB2     		uxth	r3, r3
 1414 00f0 43F00803 		orr	r3, r3, #8
 1415 00f4 A0F84030 		strh	r3, [r0, #64]	@ movhi
1056:Drivers/STM32G4xx_HAL_Driver/Src/stm32g4xx_hal_pcd.c **** 
 1416              		.loc 1 1056 5 is_stmt 1 view .LVU395
 1417 00f8 B0F84430 		ldrh	r3, [r0, #68]
 1418 00fc 23F40063 		bic	r3, r3, #2048
 1419 0100 1B04     		lsls	r3, r3, #16
 1420 0102 1B0C     		lsrs	r3, r3, #16
 1421 0104 A0F84430 		strh	r3, [r0, #68]	@ movhi
1058:Drivers/STM32G4xx_HAL_Driver/Src/stm32g4xx_hal_pcd.c **** 
 1422              		.loc 1 1058 5 view .LVU396
1058:Drivers/STM32G4xx_HAL_Driver/Src/stm32g4xx_hal_pcd.c **** 
 1423              		.loc 1 1058 26 is_stmt 0 view .LVU397
 1424 0108 B0F84030 		ldrh	r3, [r0, #64]
 1425 010c 9BB2     		uxth	r3, r3
 1426 010e 43F00403 		orr	r3, r3, #4
 1427 0112 A0F84030 		strh	r3, [r0, #64]	@ movhi
1060:Drivers/STM32G4xx_HAL_Driver/Src/stm32g4xx_hal_pcd.c ****     {
 1428              		.loc 1 1060 5 is_stmt 1 view .LVU398
1060:Drivers/STM32G4xx_HAL_Driver/Src/stm32g4xx_hal_pcd.c ****     {
ARM GAS  /tmp/cclKjP2I.s 			page 61


 1429              		.loc 1 1060 9 is_stmt 0 view .LVU399
 1430 0116 FFF7FEFF 		bl	USB_ReadInterrupts
 1431              	.LVL99:
1060:Drivers/STM32G4xx_HAL_Driver/Src/stm32g4xx_hal_pcd.c ****     {
 1432              		.loc 1 1060 8 view .LVU400
 1433 011a C004     		lsls	r0, r0, #19
 1434 011c 02D4     		bmi	.L90
1065:Drivers/STM32G4xx_HAL_Driver/Src/stm32g4xx_hal_pcd.c **** #endif /* USE_HAL_PCD_REGISTER_CALLBACKS */
 1435              		.loc 1 1065 7 is_stmt 1 view .LVU401
 1436 011e 2046     		mov	r0, r4
 1437 0120 FFF7FEFF 		bl	HAL_PCD_SuspendCallback
 1438              	.LVL100:
 1439              	.L90:
1071:Drivers/STM32G4xx_HAL_Driver/Src/stm32g4xx_hal_pcd.c ****   {
 1440              		.loc 1 1071 3 view .LVU402
1071:Drivers/STM32G4xx_HAL_Driver/Src/stm32g4xx_hal_pcd.c ****   {
 1441              		.loc 1 1071 7 is_stmt 0 view .LVU403
 1442 0124 2068     		ldr	r0, [r4]
 1443 0126 FFF7FEFF 		bl	USB_ReadInterrupts
 1444              	.LVL101:
1071:Drivers/STM32G4xx_HAL_Driver/Src/stm32g4xx_hal_pcd.c ****   {
 1445              		.loc 1 1071 6 view .LVU404
 1446 012a 0106     		lsls	r1, r0, #24
 1447 012c 29D5     		bpl	.L92
1073:Drivers/STM32G4xx_HAL_Driver/Src/stm32g4xx_hal_pcd.c ****     if (hpcd->LPM_State == LPM_L0)
 1448              		.loc 1 1073 5 is_stmt 1 view .LVU405
 1449 012e 2368     		ldr	r3, [r4]
 1450 0130 B3F84420 		ldrh	r2, [r3, #68]
 1451 0134 22F08002 		bic	r2, r2, #128
 1452 0138 1204     		lsls	r2, r2, #16
 1453 013a 120C     		lsrs	r2, r2, #16
 1454 013c A3F84420 		strh	r2, [r3, #68]	@ movhi
1074:Drivers/STM32G4xx_HAL_Driver/Src/stm32g4xx_hal_pcd.c ****     {
 1455              		.loc 1 1074 5 view .LVU406
1074:Drivers/STM32G4xx_HAL_Driver/Src/stm32g4xx_hal_pcd.c ****     {
 1456              		.loc 1 1074 8 is_stmt 0 view .LVU407
 1457 0140 94F86022 		ldrb	r2, [r4, #608]	@ zero_extendqisi2
 1458 0144 002A     		cmp	r2, #0
 1459 0146 40F0AE81 		bne	.L93
1077:Drivers/STM32G4xx_HAL_Driver/Src/stm32g4xx_hal_pcd.c ****       hpcd->Instance->CNTR |= USB_CNTR_FSUSP;
 1460              		.loc 1 1077 7 is_stmt 1 view .LVU408
1077:Drivers/STM32G4xx_HAL_Driver/Src/stm32g4xx_hal_pcd.c ****       hpcd->Instance->CNTR |= USB_CNTR_FSUSP;
 1461              		.loc 1 1077 28 is_stmt 0 view .LVU409
 1462 014a B3F84020 		ldrh	r2, [r3, #64]
 1463 014e 92B2     		uxth	r2, r2
 1464 0150 42F00402 		orr	r2, r2, #4
 1465 0154 A3F84020 		strh	r2, [r3, #64]	@ movhi
1078:Drivers/STM32G4xx_HAL_Driver/Src/stm32g4xx_hal_pcd.c **** 
 1466              		.loc 1 1078 7 is_stmt 1 view .LVU410
1078:Drivers/STM32G4xx_HAL_Driver/Src/stm32g4xx_hal_pcd.c **** 
 1467              		.loc 1 1078 28 is_stmt 0 view .LVU411
 1468 0158 B3F84020 		ldrh	r2, [r3, #64]
 1469 015c 92B2     		uxth	r2, r2
 1470 015e 42F00802 		orr	r2, r2, #8
1080:Drivers/STM32G4xx_HAL_Driver/Src/stm32g4xx_hal_pcd.c ****       hpcd->BESL = ((uint32_t)hpcd->Instance->LPMCSR & USB_LPMCSR_BESL) >> 2;
 1471              		.loc 1 1080 23 view .LVU412
 1472 0162 0121     		movs	r1, #1
ARM GAS  /tmp/cclKjP2I.s 			page 62


1078:Drivers/STM32G4xx_HAL_Driver/Src/stm32g4xx_hal_pcd.c **** 
 1473              		.loc 1 1078 28 view .LVU413
 1474 0164 A3F84020 		strh	r2, [r3, #64]	@ movhi
1080:Drivers/STM32G4xx_HAL_Driver/Src/stm32g4xx_hal_pcd.c ****       hpcd->BESL = ((uint32_t)hpcd->Instance->LPMCSR & USB_LPMCSR_BESL) >> 2;
 1475              		.loc 1 1080 7 is_stmt 1 view .LVU414
1080:Drivers/STM32G4xx_HAL_Driver/Src/stm32g4xx_hal_pcd.c ****       hpcd->BESL = ((uint32_t)hpcd->Instance->LPMCSR & USB_LPMCSR_BESL) >> 2;
 1476              		.loc 1 1080 23 is_stmt 0 view .LVU415
 1477 0168 84F86012 		strb	r1, [r4, #608]
1081:Drivers/STM32G4xx_HAL_Driver/Src/stm32g4xx_hal_pcd.c **** #if (USE_HAL_PCD_REGISTER_CALLBACKS == 1U)
 1478              		.loc 1 1081 7 is_stmt 1 view .LVU416
1081:Drivers/STM32G4xx_HAL_Driver/Src/stm32g4xx_hal_pcd.c **** #if (USE_HAL_PCD_REGISTER_CALLBACKS == 1U)
 1479              		.loc 1 1081 45 is_stmt 0 view .LVU417
 1480 016c B3F85430 		ldrh	r3, [r3, #84]
1081:Drivers/STM32G4xx_HAL_Driver/Src/stm32g4xx_hal_pcd.c **** #if (USE_HAL_PCD_REGISTER_CALLBACKS == 1U)
 1481              		.loc 1 1081 73 view .LVU418
 1482 0170 C3F38D03 		ubfx	r3, r3, #2, #14
 1483 0174 03F03C03 		and	r3, r3, #60
1081:Drivers/STM32G4xx_HAL_Driver/Src/stm32g4xx_hal_pcd.c **** #if (USE_HAL_PCD_REGISTER_CALLBACKS == 1U)
 1484              		.loc 1 1081 18 view .LVU419
 1485 0178 C4F86432 		str	r3, [r4, #612]
1085:Drivers/STM32G4xx_HAL_Driver/Src/stm32g4xx_hal_pcd.c **** #endif /* USE_HAL_PCD_REGISTER_CALLBACKS */
 1486              		.loc 1 1085 7 is_stmt 1 view .LVU420
 1487 017c 2046     		mov	r0, r4
 1488 017e FFF7FEFF 		bl	HAL_PCDEx_LPM_Callback
 1489              	.LVL102:
 1490              	.L92:
1098:Drivers/STM32G4xx_HAL_Driver/Src/stm32g4xx_hal_pcd.c ****   {
 1491              		.loc 1 1098 3 view .LVU421
1098:Drivers/STM32G4xx_HAL_Driver/Src/stm32g4xx_hal_pcd.c ****   {
 1492              		.loc 1 1098 7 is_stmt 0 view .LVU422
 1493 0182 2068     		ldr	r0, [r4]
 1494 0184 FFF7FEFF 		bl	USB_ReadInterrupts
 1495              	.LVL103:
1098:Drivers/STM32G4xx_HAL_Driver/Src/stm32g4xx_hal_pcd.c ****   {
 1496              		.loc 1 1098 6 view .LVU423
 1497 0188 8205     		lsls	r2, r0, #22
 1498 018a 0BD5     		bpl	.L94
1100:Drivers/STM32G4xx_HAL_Driver/Src/stm32g4xx_hal_pcd.c **** 
 1499              		.loc 1 1100 5 is_stmt 1 view .LVU424
 1500 018c 2268     		ldr	r2, [r4]
 1501 018e B2F84430 		ldrh	r3, [r2, #68]
 1502 0192 23F40073 		bic	r3, r3, #512
 1503 0196 1B04     		lsls	r3, r3, #16
 1504 0198 1B0C     		lsrs	r3, r3, #16
 1505 019a A2F84430 		strh	r3, [r2, #68]	@ movhi
1105:Drivers/STM32G4xx_HAL_Driver/Src/stm32g4xx_hal_pcd.c **** #endif /* USE_HAL_PCD_REGISTER_CALLBACKS */
 1506              		.loc 1 1105 5 view .LVU425
 1507 019e 2046     		mov	r0, r4
 1508 01a0 FFF7FEFF 		bl	HAL_PCD_SOFCallback
 1509              	.LVL104:
 1510              	.L94:
1109:Drivers/STM32G4xx_HAL_Driver/Src/stm32g4xx_hal_pcd.c ****   {
 1511              		.loc 1 1109 3 view .LVU426
1109:Drivers/STM32G4xx_HAL_Driver/Src/stm32g4xx_hal_pcd.c ****   {
 1512              		.loc 1 1109 7 is_stmt 0 view .LVU427
 1513 01a4 2068     		ldr	r0, [r4]
 1514 01a6 FFF7FEFF 		bl	USB_ReadInterrupts
ARM GAS  /tmp/cclKjP2I.s 			page 63


 1515              	.LVL105:
1109:Drivers/STM32G4xx_HAL_Driver/Src/stm32g4xx_hal_pcd.c ****   {
 1516              		.loc 1 1109 6 view .LVU428
 1517 01aa C305     		lsls	r3, r0, #23
 1518 01ac 08D5     		bpl	.L59
1112:Drivers/STM32G4xx_HAL_Driver/Src/stm32g4xx_hal_pcd.c ****   }
 1519              		.loc 1 1112 5 is_stmt 1 view .LVU429
 1520 01ae 2268     		ldr	r2, [r4]
 1521 01b0 B2F84430 		ldrh	r3, [r2, #68]
 1522 01b4 23F48073 		bic	r3, r3, #256
 1523 01b8 1B04     		lsls	r3, r3, #16
 1524 01ba 1B0C     		lsrs	r3, r3, #16
 1525 01bc A2F84430 		strh	r3, [r2, #68]	@ movhi
 1526              	.L59:
1114:Drivers/STM32G4xx_HAL_Driver/Src/stm32g4xx_hal_pcd.c **** 
 1527              		.loc 1 1114 1 is_stmt 0 view .LVU430
 1528 01c0 BDE8F88F 		pop	{r3, r4, r5, r6, r7, r8, r9, r10, fp, pc}
 1529              	.LVL106:
 1530              	.L83:
 1531              	.LBB30:
 1532              	.LBB29:
1670:Drivers/STM32G4xx_HAL_Driver/Src/stm32g4xx_hal_pcd.c ****     /* extract highest priority endpoint number */
 1533              		.loc 1 1670 5 is_stmt 1 view .LVU431
1670:Drivers/STM32G4xx_HAL_Driver/Src/stm32g4xx_hal_pcd.c ****     /* extract highest priority endpoint number */
 1534              		.loc 1 1670 11 is_stmt 0 view .LVU432
 1535 01c4 B0F84450 		ldrh	r5, [r0, #68]
 1536 01c8 A9B2     		uxth	r1, r5
 1537              	.LVL107:
1672:Drivers/STM32G4xx_HAL_Driver/Src/stm32g4xx_hal_pcd.c **** 
 1538              		.loc 1 1672 5 is_stmt 1 view .LVU433
1674:Drivers/STM32G4xx_HAL_Driver/Src/stm32g4xx_hal_pcd.c ****     {
 1539              		.loc 1 1674 5 view .LVU434
1674:Drivers/STM32G4xx_HAL_Driver/Src/stm32g4xx_hal_pcd.c ****     {
 1540              		.loc 1 1674 8 is_stmt 0 view .LVU435
 1541 01ca 15F00F05 		ands	r5, r5, #15
 1542              	.LVL108:
1674:Drivers/STM32G4xx_HAL_Driver/Src/stm32g4xx_hal_pcd.c ****     {
 1543              		.loc 1 1674 8 view .LVU436
 1544 01ce 40F0B780 		bne	.L63
1679:Drivers/STM32G4xx_HAL_Driver/Src/stm32g4xx_hal_pcd.c ****       {
 1545              		.loc 1 1679 7 is_stmt 1 view .LVU437
1679:Drivers/STM32G4xx_HAL_Driver/Src/stm32g4xx_hal_pcd.c ****       {
 1546              		.loc 1 1679 10 is_stmt 0 view .LVU438
 1547 01d2 11F01001 		ands	r1, r1, #16
 1548              	.LVL109:
1679:Drivers/STM32G4xx_HAL_Driver/Src/stm32g4xx_hal_pcd.c ****       {
 1549              		.loc 1 1679 10 view .LVU439
 1550 01d6 2CD1     		bne	.L64
1685:Drivers/STM32G4xx_HAL_Driver/Src/stm32g4xx_hal_pcd.c ****         ep = &hpcd->IN_ep[0];
 1551              		.loc 1 1685 9 is_stmt 1 view .LVU440
 1552              	.LBB17:
1685:Drivers/STM32G4xx_HAL_Driver/Src/stm32g4xx_hal_pcd.c ****         ep = &hpcd->IN_ep[0];
 1553              		.loc 1 1685 9 view .LVU441
1685:Drivers/STM32G4xx_HAL_Driver/Src/stm32g4xx_hal_pcd.c ****         ep = &hpcd->IN_ep[0];
 1554              		.loc 1 1685 9 view .LVU442
 1555 01d8 0388     		ldrh	r3, [r0]
 1556 01da 9BB2     		uxth	r3, r3
ARM GAS  /tmp/cclKjP2I.s 			page 64


 1557              	.LVL110:
1685:Drivers/STM32G4xx_HAL_Driver/Src/stm32g4xx_hal_pcd.c ****         ep = &hpcd->IN_ep[0];
 1558              		.loc 1 1685 9 view .LVU443
 1559 01dc 03EA0803 		and	r3, r3, r8
 1560              	.LVL111:
1685:Drivers/STM32G4xx_HAL_Driver/Src/stm32g4xx_hal_pcd.c ****         ep = &hpcd->IN_ep[0];
 1561              		.loc 1 1685 9 is_stmt 0 view .LVU444
 1562 01e0 43F40043 		orr	r3, r3, #32768
 1563 01e4 0380     		strh	r3, [r0]	@ movhi
 1564              	.LBE17:
1685:Drivers/STM32G4xx_HAL_Driver/Src/stm32g4xx_hal_pcd.c ****         ep = &hpcd->IN_ep[0];
