ARM GAS  /tmp/ccrXORvc.s 			page 1


   1              		.cpu cortex-m4
   2              		.eabi_attribute 27, 1
   3              		.eabi_attribute 28, 1
   4              		.eabi_attribute 20, 1
   5              		.eabi_attribute 21, 1
   6              		.eabi_attribute 23, 3
   7              		.eabi_attribute 24, 1
   8              		.eabi_attribute 25, 1
   9              		.eabi_attribute 26, 1
  10              		.eabi_attribute 30, 4
  11              		.eabi_attribute 34, 1
  12              		.eabi_attribute 18, 4
  13              		.file	"stm32g4xx_hal_dac_ex.c"
  14              		.text
  15              	.Ltext0:
  16              		.cfi_sections	.debug_frame
  17              		.section	.text.HAL_DACEx_DualStart,"ax",%progbits
  18              		.align	1
  19              		.global	HAL_DACEx_DualStart
  20              		.arch armv7e-m
  21              		.syntax unified
  22              		.thumb
  23              		.thumb_func
  24              		.fpu fpv4-sp-d16
  26              	HAL_DACEx_DualStart:
  27              	.LVL0:
  28              	.LFB357:
  29              		.file 1 "Drivers/STM32G4xx_HAL_Driver/Src/stm32g4xx_hal_dac_ex.c"
   1:Drivers/STM32G4xx_HAL_Driver/Src/stm32g4xx_hal_dac_ex.c **** /**
   2:Drivers/STM32G4xx_HAL_Driver/Src/stm32g4xx_hal_dac_ex.c ****   ******************************************************************************
   3:Drivers/STM32G4xx_HAL_Driver/Src/stm32g4xx_hal_dac_ex.c ****   * @file    stm32g4xx_hal_dac_ex.c
   4:Drivers/STM32G4xx_HAL_Driver/Src/stm32g4xx_hal_dac_ex.c ****   * @author  MCD Application Team
   5:Drivers/STM32G4xx_HAL_Driver/Src/stm32g4xx_hal_dac_ex.c ****   * @brief   DAC HAL module driver.
   6:Drivers/STM32G4xx_HAL_Driver/Src/stm32g4xx_hal_dac_ex.c ****   *          This file provides firmware functions to manage the extended
   7:Drivers/STM32G4xx_HAL_Driver/Src/stm32g4xx_hal_dac_ex.c ****   *          functionalities of the DAC peripheral.
   8:Drivers/STM32G4xx_HAL_Driver/Src/stm32g4xx_hal_dac_ex.c ****   *
   9:Drivers/STM32G4xx_HAL_Driver/Src/stm32g4xx_hal_dac_ex.c ****   *
  10:Drivers/STM32G4xx_HAL_Driver/Src/stm32g4xx_hal_dac_ex.c ****   @verbatim
  11:Drivers/STM32G4xx_HAL_Driver/Src/stm32g4xx_hal_dac_ex.c ****   ==============================================================================
  12:Drivers/STM32G4xx_HAL_Driver/Src/stm32g4xx_hal_dac_ex.c ****                       ##### How to use this driver #####
  13:Drivers/STM32G4xx_HAL_Driver/Src/stm32g4xx_hal_dac_ex.c ****   ==============================================================================
  14:Drivers/STM32G4xx_HAL_Driver/Src/stm32g4xx_hal_dac_ex.c ****     [..]
  15:Drivers/STM32G4xx_HAL_Driver/Src/stm32g4xx_hal_dac_ex.c ****      *** Dual mode IO operation ***
  16:Drivers/STM32G4xx_HAL_Driver/Src/stm32g4xx_hal_dac_ex.c ****      ==============================
  17:Drivers/STM32G4xx_HAL_Driver/Src/stm32g4xx_hal_dac_ex.c ****       (+) Use HAL_DACEx_DualStart() to enable both channel and start conversion
  18:Drivers/STM32G4xx_HAL_Driver/Src/stm32g4xx_hal_dac_ex.c ****           for dual mode operation.
  19:Drivers/STM32G4xx_HAL_Driver/Src/stm32g4xx_hal_dac_ex.c ****           If software trigger is selected, using HAL_DACEx_DualStart() will start
  20:Drivers/STM32G4xx_HAL_Driver/Src/stm32g4xx_hal_dac_ex.c ****           the conversion of the value previously set by HAL_DACEx_DualSetValue().
  21:Drivers/STM32G4xx_HAL_Driver/Src/stm32g4xx_hal_dac_ex.c ****       (+) Use HAL_DACEx_DualStop() to disable both channel and stop conversion
  22:Drivers/STM32G4xx_HAL_Driver/Src/stm32g4xx_hal_dac_ex.c ****           for dual mode operation.
  23:Drivers/STM32G4xx_HAL_Driver/Src/stm32g4xx_hal_dac_ex.c ****       (+) Use HAL_DACEx_DualStart_DMA() to enable both channel and start conversion
  24:Drivers/STM32G4xx_HAL_Driver/Src/stm32g4xx_hal_dac_ex.c ****           for dual mode operation using DMA to feed DAC converters.
  25:Drivers/STM32G4xx_HAL_Driver/Src/stm32g4xx_hal_dac_ex.c ****           First issued trigger will start the conversion of the value previously
  26:Drivers/STM32G4xx_HAL_Driver/Src/stm32g4xx_hal_dac_ex.c ****           set by HAL_DACEx_DualSetValue().
  27:Drivers/STM32G4xx_HAL_Driver/Src/stm32g4xx_hal_dac_ex.c ****           The same callbacks that are used in single mode are called in dual mode to notify
  28:Drivers/STM32G4xx_HAL_Driver/Src/stm32g4xx_hal_dac_ex.c ****           transfer completion (half complete or complete), errors or underrun.
  29:Drivers/STM32G4xx_HAL_Driver/Src/stm32g4xx_hal_dac_ex.c ****       (+) Use HAL_DACEx_DualStop_DMA() to disable both channel and stop conversion
ARM GAS  /tmp/ccrXORvc.s 			page 2


  30:Drivers/STM32G4xx_HAL_Driver/Src/stm32g4xx_hal_dac_ex.c ****           for dual mode operation using DMA to feed DAC converters.
  31:Drivers/STM32G4xx_HAL_Driver/Src/stm32g4xx_hal_dac_ex.c ****       (+) When Dual mode is enabled (i.e. DAC Channel1 and Channel2 are used simultaneously) :
  32:Drivers/STM32G4xx_HAL_Driver/Src/stm32g4xx_hal_dac_ex.c ****           Use HAL_DACEx_DualGetValue() to get digital data to be converted and use
  33:Drivers/STM32G4xx_HAL_Driver/Src/stm32g4xx_hal_dac_ex.c ****           HAL_DACEx_DualSetValue() to set digital value to converted simultaneously in
  34:Drivers/STM32G4xx_HAL_Driver/Src/stm32g4xx_hal_dac_ex.c ****           Channel 1 and Channel 2.
  35:Drivers/STM32G4xx_HAL_Driver/Src/stm32g4xx_hal_dac_ex.c **** 
  36:Drivers/STM32G4xx_HAL_Driver/Src/stm32g4xx_hal_dac_ex.c ****      *** Signal generation operation ***
  37:Drivers/STM32G4xx_HAL_Driver/Src/stm32g4xx_hal_dac_ex.c ****      ===================================
  38:Drivers/STM32G4xx_HAL_Driver/Src/stm32g4xx_hal_dac_ex.c ****       (+) Use HAL_DACEx_TriangleWaveGenerate() to generate Triangle signal.
  39:Drivers/STM32G4xx_HAL_Driver/Src/stm32g4xx_hal_dac_ex.c ****       (+) Use HAL_DACEx_NoiseWaveGenerate() to generate Noise signal.
  40:Drivers/STM32G4xx_HAL_Driver/Src/stm32g4xx_hal_dac_ex.c **** 
  41:Drivers/STM32G4xx_HAL_Driver/Src/stm32g4xx_hal_dac_ex.c ****       (+) Use HAL_DACEx_SawtoothWaveGenerate() to generate sawtooth signal.
  42:Drivers/STM32G4xx_HAL_Driver/Src/stm32g4xx_hal_dac_ex.c ****       (+) Use HAL_DACEx_SawtoothWaveDataReset() to reset sawtooth wave.
  43:Drivers/STM32G4xx_HAL_Driver/Src/stm32g4xx_hal_dac_ex.c ****       (+) Use HAL_DACEx_SawtoothWaveDataStep() to step sawtooth wave.
  44:Drivers/STM32G4xx_HAL_Driver/Src/stm32g4xx_hal_dac_ex.c **** 
  45:Drivers/STM32G4xx_HAL_Driver/Src/stm32g4xx_hal_dac_ex.c ****       (+) HAL_DACEx_SelfCalibrate to calibrate one DAC channel.
  46:Drivers/STM32G4xx_HAL_Driver/Src/stm32g4xx_hal_dac_ex.c ****       (+) HAL_DACEx_SetUserTrimming to set user trimming value.
  47:Drivers/STM32G4xx_HAL_Driver/Src/stm32g4xx_hal_dac_ex.c ****       (+) HAL_DACEx_GetTrimOffset to retrieve trimming value (factory setting
  48:Drivers/STM32G4xx_HAL_Driver/Src/stm32g4xx_hal_dac_ex.c ****           after reset, user setting if HAL_DACEx_SetUserTrimming have been used
  49:Drivers/STM32G4xx_HAL_Driver/Src/stm32g4xx_hal_dac_ex.c ****           at least one time after reset).
  50:Drivers/STM32G4xx_HAL_Driver/Src/stm32g4xx_hal_dac_ex.c **** 
  51:Drivers/STM32G4xx_HAL_Driver/Src/stm32g4xx_hal_dac_ex.c ****  @endverbatim
  52:Drivers/STM32G4xx_HAL_Driver/Src/stm32g4xx_hal_dac_ex.c ****   ******************************************************************************
  53:Drivers/STM32G4xx_HAL_Driver/Src/stm32g4xx_hal_dac_ex.c ****   * @attention
  54:Drivers/STM32G4xx_HAL_Driver/Src/stm32g4xx_hal_dac_ex.c ****   *
  55:Drivers/STM32G4xx_HAL_Driver/Src/stm32g4xx_hal_dac_ex.c ****   * <h2><center>&copy; Copyright (c) 2019 STMicroelectronics.
  56:Drivers/STM32G4xx_HAL_Driver/Src/stm32g4xx_hal_dac_ex.c ****   * All rights reserved.</center></h2>
  57:Drivers/STM32G4xx_HAL_Driver/Src/stm32g4xx_hal_dac_ex.c ****   *
  58:Drivers/STM32G4xx_HAL_Driver/Src/stm32g4xx_hal_dac_ex.c ****   * This software component is licensed by ST under BSD 3-Clause license,
  59:Drivers/STM32G4xx_HAL_Driver/Src/stm32g4xx_hal_dac_ex.c ****   * the "License"; You may not use this file except in compliance with the
  60:Drivers/STM32G4xx_HAL_Driver/Src/stm32g4xx_hal_dac_ex.c ****   * License. You may obtain a copy of the License at:
  61:Drivers/STM32G4xx_HAL_Driver/Src/stm32g4xx_hal_dac_ex.c ****   *                        opensource.org/licenses/BSD-3-Clause
  62:Drivers/STM32G4xx_HAL_Driver/Src/stm32g4xx_hal_dac_ex.c ****   *
  63:Drivers/STM32G4xx_HAL_Driver/Src/stm32g4xx_hal_dac_ex.c ****   ******************************************************************************
  64:Drivers/STM32G4xx_HAL_Driver/Src/stm32g4xx_hal_dac_ex.c ****   */
  65:Drivers/STM32G4xx_HAL_Driver/Src/stm32g4xx_hal_dac_ex.c **** 
  66:Drivers/STM32G4xx_HAL_Driver/Src/stm32g4xx_hal_dac_ex.c **** 
  67:Drivers/STM32G4xx_HAL_Driver/Src/stm32g4xx_hal_dac_ex.c **** /* Includes ------------------------------------------------------------------*/
  68:Drivers/STM32G4xx_HAL_Driver/Src/stm32g4xx_hal_dac_ex.c **** #include "stm32g4xx_hal.h"
  69:Drivers/STM32G4xx_HAL_Driver/Src/stm32g4xx_hal_dac_ex.c **** 
  70:Drivers/STM32G4xx_HAL_Driver/Src/stm32g4xx_hal_dac_ex.c **** /** @addtogroup STM32G4xx_HAL_Driver
  71:Drivers/STM32G4xx_HAL_Driver/Src/stm32g4xx_hal_dac_ex.c ****   * @{
  72:Drivers/STM32G4xx_HAL_Driver/Src/stm32g4xx_hal_dac_ex.c ****   */
  73:Drivers/STM32G4xx_HAL_Driver/Src/stm32g4xx_hal_dac_ex.c **** 
  74:Drivers/STM32G4xx_HAL_Driver/Src/stm32g4xx_hal_dac_ex.c **** #ifdef HAL_DAC_MODULE_ENABLED
  75:Drivers/STM32G4xx_HAL_Driver/Src/stm32g4xx_hal_dac_ex.c **** 
  76:Drivers/STM32G4xx_HAL_Driver/Src/stm32g4xx_hal_dac_ex.c **** #if defined(DAC1) || defined(DAC2) || defined(DAC3) ||defined (DAC4)
  77:Drivers/STM32G4xx_HAL_Driver/Src/stm32g4xx_hal_dac_ex.c **** 
  78:Drivers/STM32G4xx_HAL_Driver/Src/stm32g4xx_hal_dac_ex.c **** /** @defgroup DACEx DACEx
  79:Drivers/STM32G4xx_HAL_Driver/Src/stm32g4xx_hal_dac_ex.c ****   * @brief DAC Extended HAL module driver
  80:Drivers/STM32G4xx_HAL_Driver/Src/stm32g4xx_hal_dac_ex.c ****   * @{
  81:Drivers/STM32G4xx_HAL_Driver/Src/stm32g4xx_hal_dac_ex.c ****   */
  82:Drivers/STM32G4xx_HAL_Driver/Src/stm32g4xx_hal_dac_ex.c **** 
  83:Drivers/STM32G4xx_HAL_Driver/Src/stm32g4xx_hal_dac_ex.c **** /* Private typedef -----------------------------------------------------------*/
  84:Drivers/STM32G4xx_HAL_Driver/Src/stm32g4xx_hal_dac_ex.c **** /* Private define ------------------------------------------------------------*/
  85:Drivers/STM32G4xx_HAL_Driver/Src/stm32g4xx_hal_dac_ex.c **** /* Private macro -------------------------------------------------------------*/
  86:Drivers/STM32G4xx_HAL_Driver/Src/stm32g4xx_hal_dac_ex.c **** /* Private variables ---------------------------------------------------------*/
ARM GAS  /tmp/ccrXORvc.s 			page 3


  87:Drivers/STM32G4xx_HAL_Driver/Src/stm32g4xx_hal_dac_ex.c **** /* Private function prototypes -----------------------------------------------*/
  88:Drivers/STM32G4xx_HAL_Driver/Src/stm32g4xx_hal_dac_ex.c **** /* Exported functions --------------------------------------------------------*/
  89:Drivers/STM32G4xx_HAL_Driver/Src/stm32g4xx_hal_dac_ex.c **** 
  90:Drivers/STM32G4xx_HAL_Driver/Src/stm32g4xx_hal_dac_ex.c **** /** @defgroup DACEx_Exported_Functions DACEx Exported Functions
  91:Drivers/STM32G4xx_HAL_Driver/Src/stm32g4xx_hal_dac_ex.c ****   * @{
  92:Drivers/STM32G4xx_HAL_Driver/Src/stm32g4xx_hal_dac_ex.c ****   */
  93:Drivers/STM32G4xx_HAL_Driver/Src/stm32g4xx_hal_dac_ex.c **** 
  94:Drivers/STM32G4xx_HAL_Driver/Src/stm32g4xx_hal_dac_ex.c **** /** @defgroup DACEx_Exported_Functions_Group2 IO operation functions
  95:Drivers/STM32G4xx_HAL_Driver/Src/stm32g4xx_hal_dac_ex.c ****   *  @brief    Extended IO operation functions
  96:Drivers/STM32G4xx_HAL_Driver/Src/stm32g4xx_hal_dac_ex.c ****   *
  97:Drivers/STM32G4xx_HAL_Driver/Src/stm32g4xx_hal_dac_ex.c **** @verbatim
  98:Drivers/STM32G4xx_HAL_Driver/Src/stm32g4xx_hal_dac_ex.c ****   ==============================================================================
  99:Drivers/STM32G4xx_HAL_Driver/Src/stm32g4xx_hal_dac_ex.c ****                  ##### Extended features functions #####
 100:Drivers/STM32G4xx_HAL_Driver/Src/stm32g4xx_hal_dac_ex.c ****   ==============================================================================
 101:Drivers/STM32G4xx_HAL_Driver/Src/stm32g4xx_hal_dac_ex.c ****     [..]  This section provides functions allowing to:
 102:Drivers/STM32G4xx_HAL_Driver/Src/stm32g4xx_hal_dac_ex.c ****       (+) Start conversion.
 103:Drivers/STM32G4xx_HAL_Driver/Src/stm32g4xx_hal_dac_ex.c ****       (+) Stop conversion.
 104:Drivers/STM32G4xx_HAL_Driver/Src/stm32g4xx_hal_dac_ex.c ****       (+) Start conversion and enable DMA transfer.
 105:Drivers/STM32G4xx_HAL_Driver/Src/stm32g4xx_hal_dac_ex.c ****       (+) Stop conversion and disable DMA transfer.
 106:Drivers/STM32G4xx_HAL_Driver/Src/stm32g4xx_hal_dac_ex.c ****       (+) Get result of conversion.
 107:Drivers/STM32G4xx_HAL_Driver/Src/stm32g4xx_hal_dac_ex.c ****       (+) Get result of dual mode conversion.
 108:Drivers/STM32G4xx_HAL_Driver/Src/stm32g4xx_hal_dac_ex.c **** 
 109:Drivers/STM32G4xx_HAL_Driver/Src/stm32g4xx_hal_dac_ex.c **** @endverbatim
 110:Drivers/STM32G4xx_HAL_Driver/Src/stm32g4xx_hal_dac_ex.c ****   * @{
 111:Drivers/STM32G4xx_HAL_Driver/Src/stm32g4xx_hal_dac_ex.c ****   */
 112:Drivers/STM32G4xx_HAL_Driver/Src/stm32g4xx_hal_dac_ex.c **** 
 113:Drivers/STM32G4xx_HAL_Driver/Src/stm32g4xx_hal_dac_ex.c **** /**
 114:Drivers/STM32G4xx_HAL_Driver/Src/stm32g4xx_hal_dac_ex.c ****   * @brief  Enables DAC and starts conversion of both channels.
 115:Drivers/STM32G4xx_HAL_Driver/Src/stm32g4xx_hal_dac_ex.c ****   * @param  hdac pointer to a DAC_HandleTypeDef structure that contains
 116:Drivers/STM32G4xx_HAL_Driver/Src/stm32g4xx_hal_dac_ex.c ****   *         the configuration information for the specified DAC.
 117:Drivers/STM32G4xx_HAL_Driver/Src/stm32g4xx_hal_dac_ex.c ****   * @retval HAL status
 118:Drivers/STM32G4xx_HAL_Driver/Src/stm32g4xx_hal_dac_ex.c ****   */
 119:Drivers/STM32G4xx_HAL_Driver/Src/stm32g4xx_hal_dac_ex.c **** HAL_StatusTypeDef HAL_DACEx_DualStart(DAC_HandleTypeDef *hdac)
 120:Drivers/STM32G4xx_HAL_Driver/Src/stm32g4xx_hal_dac_ex.c **** {
  30              		.loc 1 120 1 view -0
  31              		.cfi_startproc
  32              		@ args = 0, pretend = 0, frame = 0
  33              		@ frame_needed = 0, uses_anonymous_args = 0
 121:Drivers/STM32G4xx_HAL_Driver/Src/stm32g4xx_hal_dac_ex.c ****   uint32_t tmp_swtrig = 0UL;
  34              		.loc 1 121 3 view .LVU1
 122:Drivers/STM32G4xx_HAL_Driver/Src/stm32g4xx_hal_dac_ex.c **** 
 123:Drivers/STM32G4xx_HAL_Driver/Src/stm32g4xx_hal_dac_ex.c ****   /* Check the parameters */
 124:Drivers/STM32G4xx_HAL_Driver/Src/stm32g4xx_hal_dac_ex.c ****   assert_param(IS_DAC_CHANNEL(hdac->Instance, DAC_CHANNEL_2));
  35              		.loc 1 124 3 view .LVU2
 125:Drivers/STM32G4xx_HAL_Driver/Src/stm32g4xx_hal_dac_ex.c **** 
 126:Drivers/STM32G4xx_HAL_Driver/Src/stm32g4xx_hal_dac_ex.c ****   /* Process locked */
 127:Drivers/STM32G4xx_HAL_Driver/Src/stm32g4xx_hal_dac_ex.c ****   __HAL_LOCK(hdac);
  36              		.loc 1 127 3 view .LVU3
  37              		.loc 1 127 3 view .LVU4
 120:Drivers/STM32G4xx_HAL_Driver/Src/stm32g4xx_hal_dac_ex.c ****   uint32_t tmp_swtrig = 0UL;
  38              		.loc 1 120 1 is_stmt 0 view .LVU5
  39 0000 10B5     		push	{r4, lr}
  40              	.LCFI0:
  41              		.cfi_def_cfa_offset 8
  42              		.cfi_offset 4, -8
  43              		.cfi_offset 14, -4
  44              		.loc 1 127 3 view .LVU6
ARM GAS  /tmp/ccrXORvc.s 			page 4


  45 0002 4379     		ldrb	r3, [r0, #5]	@ zero_extendqisi2
  46 0004 012B     		cmp	r3, #1
 120:Drivers/STM32G4xx_HAL_Driver/Src/stm32g4xx_hal_dac_ex.c ****   uint32_t tmp_swtrig = 0UL;
  47              		.loc 1 120 1 view .LVU7
  48 0006 0446     		mov	r4, r0
  49 0008 4FF00203 		mov	r3, #2
  50              		.loc 1 127 3 view .LVU8
  51 000c 23D0     		beq	.L4
  52              		.loc 1 127 3 is_stmt 1 discriminator 2 view .LVU9
 128:Drivers/STM32G4xx_HAL_Driver/Src/stm32g4xx_hal_dac_ex.c **** 
 129:Drivers/STM32G4xx_HAL_Driver/Src/stm32g4xx_hal_dac_ex.c ****   /* Change DAC state */
 130:Drivers/STM32G4xx_HAL_Driver/Src/stm32g4xx_hal_dac_ex.c ****   hdac->State = HAL_DAC_STATE_BUSY;
  53              		.loc 1 130 15 is_stmt 0 discriminator 2 view .LVU10
  54 000e 2371     		strb	r3, [r4, #4]
 127:Drivers/STM32G4xx_HAL_Driver/Src/stm32g4xx_hal_dac_ex.c **** 
  55              		.loc 1 127 3 discriminator 2 view .LVU11
  56 0010 0120     		movs	r0, #1
  57              	.LVL1:
 131:Drivers/STM32G4xx_HAL_Driver/Src/stm32g4xx_hal_dac_ex.c **** 
 132:Drivers/STM32G4xx_HAL_Driver/Src/stm32g4xx_hal_dac_ex.c ****   /* Enable the Peripheral */
 133:Drivers/STM32G4xx_HAL_Driver/Src/stm32g4xx_hal_dac_ex.c ****   __HAL_DAC_ENABLE(hdac, DAC_CHANNEL_1);
  58              		.loc 1 133 3 discriminator 2 view .LVU12
  59 0012 2368     		ldr	r3, [r4]
 127:Drivers/STM32G4xx_HAL_Driver/Src/stm32g4xx_hal_dac_ex.c **** 
  60              		.loc 1 127 3 discriminator 2 view .LVU13
  61 0014 6071     		strb	r0, [r4, #5]
 127:Drivers/STM32G4xx_HAL_Driver/Src/stm32g4xx_hal_dac_ex.c **** 
  62              		.loc 1 127 3 is_stmt 1 discriminator 2 view .LVU14
 130:Drivers/STM32G4xx_HAL_Driver/Src/stm32g4xx_hal_dac_ex.c **** 
  63              		.loc 1 130 3 discriminator 2 view .LVU15
  64              		.loc 1 133 3 discriminator 2 view .LVU16
  65 0016 1A68     		ldr	r2, [r3]
  66 0018 0243     		orrs	r2, r2, r0
  67 001a 1A60     		str	r2, [r3]
 134:Drivers/STM32G4xx_HAL_Driver/Src/stm32g4xx_hal_dac_ex.c ****   __HAL_DAC_ENABLE(hdac, DAC_CHANNEL_2);
  68              		.loc 1 134 3 discriminator 2 view .LVU17
  69 001c 1A68     		ldr	r2, [r3]
  70 001e 42F48032 		orr	r2, r2, #65536
  71 0022 1A60     		str	r2, [r3]
 135:Drivers/STM32G4xx_HAL_Driver/Src/stm32g4xx_hal_dac_ex.c ****   /* Ensure minimum wait before using peripheral after enabling it */
 136:Drivers/STM32G4xx_HAL_Driver/Src/stm32g4xx_hal_dac_ex.c ****   HAL_Delay(1);
  72              		.loc 1 136 3 discriminator 2 view .LVU18
  73 0024 FFF7FEFF 		bl	HAL_Delay
  74              	.LVL2:
 137:Drivers/STM32G4xx_HAL_Driver/Src/stm32g4xx_hal_dac_ex.c **** 
 138:Drivers/STM32G4xx_HAL_Driver/Src/stm32g4xx_hal_dac_ex.c ****   /* Check if software trigger enabled */
 139:Drivers/STM32G4xx_HAL_Driver/Src/stm32g4xx_hal_dac_ex.c ****   if ((hdac->Instance->CR & (DAC_CR_TEN1 | DAC_CR_TSEL1)) == DAC_CR_TEN1)
  75              		.loc 1 139 3 discriminator 2 view .LVU19
  76              		.loc 1 139 12 is_stmt 0 discriminator 2 view .LVU20
  77 0028 2268     		ldr	r2, [r4]
  78              		.loc 1 139 22 discriminator 2 view .LVU21
  79 002a 1368     		ldr	r3, [r2]
  80              		.loc 1 139 27 discriminator 2 view .LVU22
  81 002c 03F03E03 		and	r3, r3, #62
  82              		.loc 1 139 6 discriminator 2 view .LVU23
  83 0030 991E     		subs	r1, r3, #2
  84 0032 4B42     		rsbs	r3, r1, #0
ARM GAS  /tmp/ccrXORvc.s 			page 5


  85 0034 4B41     		adcs	r3, r3, r1
  86              	.LVL3:
 140:Drivers/STM32G4xx_HAL_Driver/Src/stm32g4xx_hal_dac_ex.c ****   {
 141:Drivers/STM32G4xx_HAL_Driver/Src/stm32g4xx_hal_dac_ex.c ****     tmp_swtrig |= DAC_SWTRIGR_SWTRIG1;
 142:Drivers/STM32G4xx_HAL_Driver/Src/stm32g4xx_hal_dac_ex.c ****   }
 143:Drivers/STM32G4xx_HAL_Driver/Src/stm32g4xx_hal_dac_ex.c ****   if ((hdac->Instance->CR & (DAC_CR_TEN2 | DAC_CR_TSEL2)) == DAC_CR_TEN2)
  87              		.loc 1 143 3 is_stmt 1 discriminator 2 view .LVU24
  88              		.loc 1 143 22 is_stmt 0 discriminator 2 view .LVU25
  89 0036 1168     		ldr	r1, [r2]
  90              		.loc 1 143 27 discriminator 2 view .LVU26
  91 0038 01F47811 		and	r1, r1, #4063232
  92              		.loc 1 143 6 discriminator 2 view .LVU27
  93 003c B1F5003F 		cmp	r1, #131072
 144:Drivers/STM32G4xx_HAL_Driver/Src/stm32g4xx_hal_dac_ex.c ****   {
 145:Drivers/STM32G4xx_HAL_Driver/Src/stm32g4xx_hal_dac_ex.c ****     tmp_swtrig |= DAC_SWTRIGR_SWTRIG2;
  94              		.loc 1 145 5 is_stmt 1 discriminator 2 view .LVU28
 146:Drivers/STM32G4xx_HAL_Driver/Src/stm32g4xx_hal_dac_ex.c ****   }
 147:Drivers/STM32G4xx_HAL_Driver/Src/stm32g4xx_hal_dac_ex.c ****   /* Enable the selected DAC software conversion*/
 148:Drivers/STM32G4xx_HAL_Driver/Src/stm32g4xx_hal_dac_ex.c ****   SET_BIT(hdac->Instance->SWTRIGR, tmp_swtrig);
  95              		.loc 1 148 3 is_stmt 0 discriminator 2 view .LVU29
  96 0040 5168     		ldr	r1, [r2, #4]
 145:Drivers/STM32G4xx_HAL_Driver/Src/stm32g4xx_hal_dac_ex.c ****   }
  97              		.loc 1 145 16 discriminator 2 view .LVU30
  98 0042 08BF     		it	eq
  99 0044 43F00203 		orreq	r3, r3, #2
 100              	.LVL4:
 101              		.loc 1 148 3 is_stmt 1 discriminator 2 view .LVU31
 102 0048 0B43     		orrs	r3, r3, r1
 103              	.LVL5:
 104              		.loc 1 148 3 is_stmt 0 discriminator 2 view .LVU32
 105 004a 5360     		str	r3, [r2, #4]
 149:Drivers/STM32G4xx_HAL_Driver/Src/stm32g4xx_hal_dac_ex.c **** 
 150:Drivers/STM32G4xx_HAL_Driver/Src/stm32g4xx_hal_dac_ex.c ****   /* Change DAC state */
 151:Drivers/STM32G4xx_HAL_Driver/Src/stm32g4xx_hal_dac_ex.c ****   hdac->State = HAL_DAC_STATE_READY;
 106              		.loc 1 151 3 is_stmt 1 discriminator 2 view .LVU33
 152:Drivers/STM32G4xx_HAL_Driver/Src/stm32g4xx_hal_dac_ex.c **** 
 153:Drivers/STM32G4xx_HAL_Driver/Src/stm32g4xx_hal_dac_ex.c ****   /* Process unlocked */
 154:Drivers/STM32G4xx_HAL_Driver/Src/stm32g4xx_hal_dac_ex.c ****   __HAL_UNLOCK(hdac);
 107              		.loc 1 154 3 is_stmt 0 discriminator 2 view .LVU34
 108 004c 0020     		movs	r0, #0
 151:Drivers/STM32G4xx_HAL_Driver/Src/stm32g4xx_hal_dac_ex.c **** 
 109              		.loc 1 151 15 discriminator 2 view .LVU35
 110 004e 0123     		movs	r3, #1
 111 0050 2371     		strb	r3, [r4, #4]
 112              		.loc 1 154 3 is_stmt 1 discriminator 2 view .LVU36
 113              		.loc 1 154 3 discriminator 2 view .LVU37
 114 0052 6071     		strb	r0, [r4, #5]
 115              		.loc 1 154 3 discriminator 2 view .LVU38
 155:Drivers/STM32G4xx_HAL_Driver/Src/stm32g4xx_hal_dac_ex.c **** 
 156:Drivers/STM32G4xx_HAL_Driver/Src/stm32g4xx_hal_dac_ex.c ****   /* Return function status */
 157:Drivers/STM32G4xx_HAL_Driver/Src/stm32g4xx_hal_dac_ex.c ****   return HAL_OK;
 116              		.loc 1 157 3 discriminator 2 view .LVU39
 117              	.L2:
 158:Drivers/STM32G4xx_HAL_Driver/Src/stm32g4xx_hal_dac_ex.c **** }
 118              		.loc 1 158 1 is_stmt 0 view .LVU40
 119 0054 10BD     		pop	{r4, pc}
 120              	.LVL6:
ARM GAS  /tmp/ccrXORvc.s 			page 6


 121              	.L4:
 127:Drivers/STM32G4xx_HAL_Driver/Src/stm32g4xx_hal_dac_ex.c **** 
 122              		.loc 1 127 3 view .LVU41
 123 0056 1846     		mov	r0, r3
 124              	.LVL7:
 127:Drivers/STM32G4xx_HAL_Driver/Src/stm32g4xx_hal_dac_ex.c **** 
 125              		.loc 1 127 3 view .LVU42
 126 0058 FCE7     		b	.L2
 127              		.cfi_endproc
 128              	.LFE357:
 130              		.section	.text.HAL_DACEx_DualStop,"ax",%progbits
 131              		.align	1
 132              		.global	HAL_DACEx_DualStop
 133              		.syntax unified
 134              		.thumb
 135              		.thumb_func
 136              		.fpu fpv4-sp-d16
 138              	HAL_DACEx_DualStop:
 139              	.LVL8:
 140              	.LFB358:
 159:Drivers/STM32G4xx_HAL_Driver/Src/stm32g4xx_hal_dac_ex.c **** 
 160:Drivers/STM32G4xx_HAL_Driver/Src/stm32g4xx_hal_dac_ex.c **** /**
 161:Drivers/STM32G4xx_HAL_Driver/Src/stm32g4xx_hal_dac_ex.c ****   * @brief  Disables DAC and stop conversion of both channels.
 162:Drivers/STM32G4xx_HAL_Driver/Src/stm32g4xx_hal_dac_ex.c ****   * @param  hdac pointer to a DAC_HandleTypeDef structure that contains
 163:Drivers/STM32G4xx_HAL_Driver/Src/stm32g4xx_hal_dac_ex.c ****   *         the configuration information for the specified DAC.
 164:Drivers/STM32G4xx_HAL_Driver/Src/stm32g4xx_hal_dac_ex.c ****   * @retval HAL status
 165:Drivers/STM32G4xx_HAL_Driver/Src/stm32g4xx_hal_dac_ex.c ****   */
 166:Drivers/STM32G4xx_HAL_Driver/Src/stm32g4xx_hal_dac_ex.c **** HAL_StatusTypeDef HAL_DACEx_DualStop(DAC_HandleTypeDef *hdac)
 167:Drivers/STM32G4xx_HAL_Driver/Src/stm32g4xx_hal_dac_ex.c **** {
 141              		.loc 1 167 1 is_stmt 1 view -0
 142              		.cfi_startproc
 143              		@ args = 0, pretend = 0, frame = 0
 144              		@ frame_needed = 0, uses_anonymous_args = 0
 168:Drivers/STM32G4xx_HAL_Driver/Src/stm32g4xx_hal_dac_ex.c ****   /* Check the parameters */
 169:Drivers/STM32G4xx_HAL_Driver/Src/stm32g4xx_hal_dac_ex.c ****   assert_param(IS_DAC_CHANNEL(hdac->Instance, DAC_CHANNEL_2));
 145              		.loc 1 169 3 view .LVU44
 170:Drivers/STM32G4xx_HAL_Driver/Src/stm32g4xx_hal_dac_ex.c **** 
 171:Drivers/STM32G4xx_HAL_Driver/Src/stm32g4xx_hal_dac_ex.c ****   /* Disable the Peripheral */
 172:Drivers/STM32G4xx_HAL_Driver/Src/stm32g4xx_hal_dac_ex.c ****   __HAL_DAC_DISABLE(hdac, DAC_CHANNEL_1);
 146              		.loc 1 172 3 view .LVU45
 147 0000 0368     		ldr	r3, [r0]
 148 0002 1A68     		ldr	r2, [r3]
 149 0004 22F00102 		bic	r2, r2, #1
 167:Drivers/STM32G4xx_HAL_Driver/Src/stm32g4xx_hal_dac_ex.c ****   /* Check the parameters */
 150              		.loc 1 167 1 is_stmt 0 view .LVU46
 151 0008 10B5     		push	{r4, lr}
 152              	.LCFI1:
 153              		.cfi_def_cfa_offset 8
 154              		.cfi_offset 4, -8
 155              		.cfi_offset 14, -4
 156              		.loc 1 172 3 view .LVU47
 157 000a 1A60     		str	r2, [r3]
 173:Drivers/STM32G4xx_HAL_Driver/Src/stm32g4xx_hal_dac_ex.c ****   __HAL_DAC_DISABLE(hdac, DAC_CHANNEL_2);
 158              		.loc 1 173 3 is_stmt 1 view .LVU48
 159 000c 1A68     		ldr	r2, [r3]
 160 000e 22F48032 		bic	r2, r2, #65536
 167:Drivers/STM32G4xx_HAL_Driver/Src/stm32g4xx_hal_dac_ex.c ****   /* Check the parameters */
ARM GAS  /tmp/ccrXORvc.s 			page 7


 161              		.loc 1 167 1 is_stmt 0 view .LVU49
 162 0012 0446     		mov	r4, r0
 163              		.loc 1 173 3 view .LVU50
 164 0014 1A60     		str	r2, [r3]
 174:Drivers/STM32G4xx_HAL_Driver/Src/stm32g4xx_hal_dac_ex.c ****   /* Ensure minimum wait before enabling peripheral after disabling it */
 175:Drivers/STM32G4xx_HAL_Driver/Src/stm32g4xx_hal_dac_ex.c ****   HAL_Delay(1);
 165              		.loc 1 175 3 is_stmt 1 view .LVU51
 166 0016 0120     		movs	r0, #1
 167              	.LVL9:
 168              		.loc 1 175 3 is_stmt 0 view .LVU52
 169 0018 FFF7FEFF 		bl	HAL_Delay
 170              	.LVL10:
 176:Drivers/STM32G4xx_HAL_Driver/Src/stm32g4xx_hal_dac_ex.c **** 
 177:Drivers/STM32G4xx_HAL_Driver/Src/stm32g4xx_hal_dac_ex.c ****   /* Change DAC state */
 178:Drivers/STM32G4xx_HAL_Driver/Src/stm32g4xx_hal_dac_ex.c ****   hdac->State = HAL_DAC_STATE_READY;
 171              		.loc 1 178 3 is_stmt 1 view .LVU53
 172              		.loc 1 178 15 is_stmt 0 view .LVU54
 173 001c 0123     		movs	r3, #1
 174 001e 2371     		strb	r3, [r4, #4]
 179:Drivers/STM32G4xx_HAL_Driver/Src/stm32g4xx_hal_dac_ex.c **** 
 180:Drivers/STM32G4xx_HAL_Driver/Src/stm32g4xx_hal_dac_ex.c ****   /* Return function status */
 181:Drivers/STM32G4xx_HAL_Driver/Src/stm32g4xx_hal_dac_ex.c ****   return HAL_OK;
 175              		.loc 1 181 3 is_stmt 1 view .LVU55
 182:Drivers/STM32G4xx_HAL_Driver/Src/stm32g4xx_hal_dac_ex.c **** }
 176              		.loc 1 182 1 is_stmt 0 view .LVU56
 177 0020 0020     		movs	r0, #0
 178 0022 10BD     		pop	{r4, pc}
 179              		.loc 1 182 1 view .LVU57
 180              		.cfi_endproc
 181              	.LFE358:
 183              		.section	.text.HAL_DACEx_DualStart_DMA,"ax",%progbits
 184              		.align	1
 185              		.global	HAL_DACEx_DualStart_DMA
 186              		.syntax unified
 187              		.thumb
 188              		.thumb_func
 189              		.fpu fpv4-sp-d16
 191              	HAL_DACEx_DualStart_DMA:
 192              	.LVL11:
 193              	.LFB359:
 183:Drivers/STM32G4xx_HAL_Driver/Src/stm32g4xx_hal_dac_ex.c **** 
 184:Drivers/STM32G4xx_HAL_Driver/Src/stm32g4xx_hal_dac_ex.c **** /**
 185:Drivers/STM32G4xx_HAL_Driver/Src/stm32g4xx_hal_dac_ex.c ****   * @brief  Enables DAC and starts conversion of both channel 1 and 2 of the same DAC.
 186:Drivers/STM32G4xx_HAL_Driver/Src/stm32g4xx_hal_dac_ex.c ****   * @param  hdac pointer to a DAC_HandleTypeDef structure that contains
 187:Drivers/STM32G4xx_HAL_Driver/Src/stm32g4xx_hal_dac_ex.c ****   *         the configuration information for the specified DAC.
 188:Drivers/STM32G4xx_HAL_Driver/Src/stm32g4xx_hal_dac_ex.c ****   * @param  Channel The DAC channel that will request data from DMA.
 189:Drivers/STM32G4xx_HAL_Driver/Src/stm32g4xx_hal_dac_ex.c ****   *          This parameter can be one of the following values:
 190:Drivers/STM32G4xx_HAL_Driver/Src/stm32g4xx_hal_dac_ex.c ****   *            @arg DAC_CHANNEL_1: DAC Channel1 selected
 191:Drivers/STM32G4xx_HAL_Driver/Src/stm32g4xx_hal_dac_ex.c ****   *            @arg DAC_CHANNEL_2: DAC Channel2 selected
 192:Drivers/STM32G4xx_HAL_Driver/Src/stm32g4xx_hal_dac_ex.c ****   * @param  pData The destination peripheral Buffer address.
 193:Drivers/STM32G4xx_HAL_Driver/Src/stm32g4xx_hal_dac_ex.c ****   * @param  Length The length of data to be transferred from memory to DAC peripheral
 194:Drivers/STM32G4xx_HAL_Driver/Src/stm32g4xx_hal_dac_ex.c ****   * @param  Alignment Specifies the data alignment for DAC channel.
 195:Drivers/STM32G4xx_HAL_Driver/Src/stm32g4xx_hal_dac_ex.c ****   *          This parameter can be one of the following values:
 196:Drivers/STM32G4xx_HAL_Driver/Src/stm32g4xx_hal_dac_ex.c ****   *            @arg DAC_ALIGN_8B_R: 8bit right data alignment selected
 197:Drivers/STM32G4xx_HAL_Driver/Src/stm32g4xx_hal_dac_ex.c ****   *            @arg DAC_ALIGN_12B_L: 12bit left data alignment selected
 198:Drivers/STM32G4xx_HAL_Driver/Src/stm32g4xx_hal_dac_ex.c ****   *            @arg DAC_ALIGN_12B_R: 12bit right data alignment selected
 199:Drivers/STM32G4xx_HAL_Driver/Src/stm32g4xx_hal_dac_ex.c ****   * @retval HAL status
ARM GAS  /tmp/ccrXORvc.s 			page 8


 200:Drivers/STM32G4xx_HAL_Driver/Src/stm32g4xx_hal_dac_ex.c ****   */
 201:Drivers/STM32G4xx_HAL_Driver/Src/stm32g4xx_hal_dac_ex.c **** HAL_StatusTypeDef HAL_DACEx_DualStart_DMA(DAC_HandleTypeDef *hdac, uint32_t Channel, uint32_t *pDat
 202:Drivers/STM32G4xx_HAL_Driver/Src/stm32g4xx_hal_dac_ex.c ****                                           uint32_t Alignment)
 203:Drivers/STM32G4xx_HAL_Driver/Src/stm32g4xx_hal_dac_ex.c **** {
 194              		.loc 1 203 1 is_stmt 1 view -0
 195              		.cfi_startproc
 196              		@ args = 4, pretend = 0, frame = 0
 197              		@ frame_needed = 0, uses_anonymous_args = 0
 204:Drivers/STM32G4xx_HAL_Driver/Src/stm32g4xx_hal_dac_ex.c ****   HAL_StatusTypeDef status;
 198              		.loc 1 204 3 view .LVU59
 205:Drivers/STM32G4xx_HAL_Driver/Src/stm32g4xx_hal_dac_ex.c ****   uint32_t tmpreg = 0U;
 199              		.loc 1 205 3 view .LVU60
 206:Drivers/STM32G4xx_HAL_Driver/Src/stm32g4xx_hal_dac_ex.c **** 
 207:Drivers/STM32G4xx_HAL_Driver/Src/stm32g4xx_hal_dac_ex.c ****   /* Check the parameters */
 208:Drivers/STM32G4xx_HAL_Driver/Src/stm32g4xx_hal_dac_ex.c ****   assert_param(IS_DAC_CHANNEL(hdac->Instance, Channel));
 200              		.loc 1 208 3 view .LVU61
 209:Drivers/STM32G4xx_HAL_Driver/Src/stm32g4xx_hal_dac_ex.c ****   /* Ensure Channel 2 exists for this particular DAC instance */
 210:Drivers/STM32G4xx_HAL_Driver/Src/stm32g4xx_hal_dac_ex.c ****   assert_param(IS_DAC_CHANNEL(hdac->Instance, DAC_CHANNEL_2));
 201              		.loc 1 210 3 view .LVU62
 211:Drivers/STM32G4xx_HAL_Driver/Src/stm32g4xx_hal_dac_ex.c ****   assert_param(IS_DAC_ALIGN(Alignment));
 202              		.loc 1 211 3 view .LVU63
 212:Drivers/STM32G4xx_HAL_Driver/Src/stm32g4xx_hal_dac_ex.c **** 
 213:Drivers/STM32G4xx_HAL_Driver/Src/stm32g4xx_hal_dac_ex.c ****   /* Process locked */
 214:Drivers/STM32G4xx_HAL_Driver/Src/stm32g4xx_hal_dac_ex.c ****   __HAL_LOCK(hdac);
 203              		.loc 1 214 3 view .LVU64
 204              		.loc 1 214 3 view .LVU65
 203:Drivers/STM32G4xx_HAL_Driver/Src/stm32g4xx_hal_dac_ex.c ****   HAL_StatusTypeDef status;
 205              		.loc 1 203 1 is_stmt 0 view .LVU66
 206 0000 F8B5     		push	{r3, r4, r5, r6, r7, lr}
 207              	.LCFI2:
 208              		.cfi_def_cfa_offset 24
 209              		.cfi_offset 3, -24
 210              		.cfi_offset 4, -20
 211              		.cfi_offset 5, -16
 212              		.cfi_offset 6, -12
 213              		.cfi_offset 7, -8
 214              		.cfi_offset 14, -4
 203:Drivers/STM32G4xx_HAL_Driver/Src/stm32g4xx_hal_dac_ex.c ****   HAL_StatusTypeDef status;
 215              		.loc 1 203 1 view .LVU67
 216 0002 0F46     		mov	r7, r1
 217 0004 1146     		mov	r1, r2
 218              	.LVL12:
 219              		.loc 1 214 3 view .LVU68
 220 0006 4279     		ldrb	r2, [r0, #5]	@ zero_extendqisi2
 221              	.LVL13:
 203:Drivers/STM32G4xx_HAL_Driver/Src/stm32g4xx_hal_dac_ex.c ****   HAL_StatusTypeDef status;
 222              		.loc 1 203 1 view .LVU69
 223 0008 069E     		ldr	r6, [sp, #24]
 224              		.loc 1 214 3 view .LVU70
 225 000a 012A     		cmp	r2, #1
 203:Drivers/STM32G4xx_HAL_Driver/Src/stm32g4xx_hal_dac_ex.c ****   HAL_StatusTypeDef status;
 226              		.loc 1 203 1 view .LVU71
 227 000c 0446     		mov	r4, r0
 228 000e 4FF00205 		mov	r5, #2
 229              		.loc 1 214 3 view .LVU72
 230 0012 32D0     		beq	.L7
 231              		.loc 1 214 3 is_stmt 1 discriminator 2 view .LVU73
ARM GAS  /tmp/ccrXORvc.s 			page 9


 232 0014 0122     		movs	r2, #1
 233 0016 4271     		strb	r2, [r0, #5]
 234              		.loc 1 214 3 discriminator 2 view .LVU74
 215:Drivers/STM32G4xx_HAL_Driver/Src/stm32g4xx_hal_dac_ex.c **** 
 216:Drivers/STM32G4xx_HAL_Driver/Src/stm32g4xx_hal_dac_ex.c ****   /* Change DAC state */
 217:Drivers/STM32G4xx_HAL_Driver/Src/stm32g4xx_hal_dac_ex.c ****   hdac->State = HAL_DAC_STATE_BUSY;
 235              		.loc 1 217 3 discriminator 2 view .LVU75
 236              		.loc 1 217 15 is_stmt 0 discriminator 2 view .LVU76
 237 0018 0571     		strb	r5, [r0, #4]
 218:Drivers/STM32G4xx_HAL_Driver/Src/stm32g4xx_hal_dac_ex.c **** 
 219:Drivers/STM32G4xx_HAL_Driver/Src/stm32g4xx_hal_dac_ex.c ****   if (Channel == DAC_CHANNEL_1)
 238              		.loc 1 219 3 is_stmt 1 discriminator 2 view .LVU77
 239 001a 0068     		ldr	r0, [r0]
 240              	.LVL14:
 241              		.loc 1 219 6 is_stmt 0 discriminator 2 view .LVU78
 242 001c 002F     		cmp	r7, #0
 243 001e 2ED1     		bne	.L8
 220:Drivers/STM32G4xx_HAL_Driver/Src/stm32g4xx_hal_dac_ex.c ****   {
 221:Drivers/STM32G4xx_HAL_Driver/Src/stm32g4xx_hal_dac_ex.c ****     /* Set the DMA transfer complete callback for channel1 */
 222:Drivers/STM32G4xx_HAL_Driver/Src/stm32g4xx_hal_dac_ex.c ****     hdac->DMA_Handle1->XferCpltCallback = DAC_DMAConvCpltCh1;
 244              		.loc 1 222 5 is_stmt 1 view .LVU79
 245              		.loc 1 222 9 is_stmt 0 view .LVU80
 246 0020 A268     		ldr	r2, [r4, #8]
 247              		.loc 1 222 41 view .LVU81
 248 0022 294D     		ldr	r5, .L35
 249 0024 D562     		str	r5, [r2, #44]
 223:Drivers/STM32G4xx_HAL_Driver/Src/stm32g4xx_hal_dac_ex.c **** 
 224:Drivers/STM32G4xx_HAL_Driver/Src/stm32g4xx_hal_dac_ex.c ****     /* Set the DMA half transfer complete callback for channel1 */
 225:Drivers/STM32G4xx_HAL_Driver/Src/stm32g4xx_hal_dac_ex.c ****     hdac->DMA_Handle1->XferHalfCpltCallback = DAC_DMAHalfConvCpltCh1;
 250              		.loc 1 225 5 is_stmt 1 view .LVU82
 251              		.loc 1 225 45 is_stmt 0 view .LVU83
 252 0026 294D     		ldr	r5, .L35+4
 253 0028 1563     		str	r5, [r2, #48]
 226:Drivers/STM32G4xx_HAL_Driver/Src/stm32g4xx_hal_dac_ex.c **** 
 227:Drivers/STM32G4xx_HAL_Driver/Src/stm32g4xx_hal_dac_ex.c ****     /* Set the DMA error callback for channel1 */
 228:Drivers/STM32G4xx_HAL_Driver/Src/stm32g4xx_hal_dac_ex.c ****     hdac->DMA_Handle1->XferErrorCallback = DAC_DMAErrorCh1;
 254              		.loc 1 228 5 is_stmt 1 view .LVU84
 255              		.loc 1 228 42 is_stmt 0 view .LVU85
 256 002a 294D     		ldr	r5, .L35+8
 257 002c 5563     		str	r5, [r2, #52]
 229:Drivers/STM32G4xx_HAL_Driver/Src/stm32g4xx_hal_dac_ex.c **** 
 230:Drivers/STM32G4xx_HAL_Driver/Src/stm32g4xx_hal_dac_ex.c ****     /* Enable the selected DAC channel1 DMA request */
 231:Drivers/STM32G4xx_HAL_Driver/Src/stm32g4xx_hal_dac_ex.c ****     SET_BIT(hdac->Instance->CR, DAC_CR_DMAEN1);
 258              		.loc 1 231 5 is_stmt 1 view .LVU86
 259 002e 0268     		ldr	r2, [r0]
 232:Drivers/STM32G4xx_HAL_Driver/Src/stm32g4xx_hal_dac_ex.c ****   }
 233:Drivers/STM32G4xx_HAL_Driver/Src/stm32g4xx_hal_dac_ex.c ****   else
 234:Drivers/STM32G4xx_HAL_Driver/Src/stm32g4xx_hal_dac_ex.c ****   {
 235:Drivers/STM32G4xx_HAL_Driver/Src/stm32g4xx_hal_dac_ex.c ****     /* Set the DMA transfer complete callback for channel2 */
 236:Drivers/STM32G4xx_HAL_Driver/Src/stm32g4xx_hal_dac_ex.c ****     hdac->DMA_Handle2->XferCpltCallback = DAC_DMAConvCpltCh2;
 237:Drivers/STM32G4xx_HAL_Driver/Src/stm32g4xx_hal_dac_ex.c **** 
 238:Drivers/STM32G4xx_HAL_Driver/Src/stm32g4xx_hal_dac_ex.c ****     /* Set the DMA half transfer complete callback for channel2 */
 239:Drivers/STM32G4xx_HAL_Driver/Src/stm32g4xx_hal_dac_ex.c ****     hdac->DMA_Handle2->XferHalfCpltCallback = DAC_DMAHalfConvCpltCh2;
 240:Drivers/STM32G4xx_HAL_Driver/Src/stm32g4xx_hal_dac_ex.c **** 
 241:Drivers/STM32G4xx_HAL_Driver/Src/stm32g4xx_hal_dac_ex.c ****     /* Set the DMA error callback for channel2 */
 242:Drivers/STM32G4xx_HAL_Driver/Src/stm32g4xx_hal_dac_ex.c ****     hdac->DMA_Handle2->XferErrorCallback = DAC_DMAErrorCh2;
 243:Drivers/STM32G4xx_HAL_Driver/Src/stm32g4xx_hal_dac_ex.c **** 
ARM GAS  /tmp/ccrXORvc.s 			page 10


 244:Drivers/STM32G4xx_HAL_Driver/Src/stm32g4xx_hal_dac_ex.c ****     /* Enable the selected DAC channel2 DMA request */
 245:Drivers/STM32G4xx_HAL_Driver/Src/stm32g4xx_hal_dac_ex.c ****     SET_BIT(hdac->Instance->CR, DAC_CR_DMAEN2);
 246:Drivers/STM32G4xx_HAL_Driver/Src/stm32g4xx_hal_dac_ex.c ****   }
 247:Drivers/STM32G4xx_HAL_Driver/Src/stm32g4xx_hal_dac_ex.c **** 
 248:Drivers/STM32G4xx_HAL_Driver/Src/stm32g4xx_hal_dac_ex.c ****   switch (Alignment)
 260              		.loc 1 248 3 is_stmt 0 view .LVU87
 261 0030 042E     		cmp	r6, #4
 231:Drivers/STM32G4xx_HAL_Driver/Src/stm32g4xx_hal_dac_ex.c ****   }
 262              		.loc 1 231 5 view .LVU88
 263 0032 42F48052 		orr	r2, r2, #4096
 264 0036 0260     		str	r2, [r0]
 265              		.loc 1 248 3 is_stmt 1 view .LVU89
 266 0038 39D0     		beq	.L9
 267 003a 082E     		cmp	r6, #8
 268 003c 3AD0     		beq	.L10
 269 003e 002E     		cmp	r6, #0
 270 0040 3BD1     		bne	.L18
 271              	.L13:
 249:Drivers/STM32G4xx_HAL_Driver/Src/stm32g4xx_hal_dac_ex.c ****   {
 250:Drivers/STM32G4xx_HAL_Driver/Src/stm32g4xx_hal_dac_ex.c ****     case DAC_ALIGN_12B_R:
 251:Drivers/STM32G4xx_HAL_Driver/Src/stm32g4xx_hal_dac_ex.c ****       /* Get DHR12R1 address */
 252:Drivers/STM32G4xx_HAL_Driver/Src/stm32g4xx_hal_dac_ex.c ****       tmpreg = (uint32_t)&hdac->Instance->DHR12RD;
 272              		.loc 1 252 7 view .LVU90
 273              		.loc 1 252 26 is_stmt 0 view .LVU91
 274 0042 00F12002 		add	r2, r0, #32
 275              	.LVL15:
 253:Drivers/STM32G4xx_HAL_Driver/Src/stm32g4xx_hal_dac_ex.c ****       break;
 276              		.loc 1 253 7 is_stmt 1 view .LVU92
 277              	.L12:
 254:Drivers/STM32G4xx_HAL_Driver/Src/stm32g4xx_hal_dac_ex.c ****     case DAC_ALIGN_12B_L:
 255:Drivers/STM32G4xx_HAL_Driver/Src/stm32g4xx_hal_dac_ex.c ****       /* Get DHR12L1 address */
 256:Drivers/STM32G4xx_HAL_Driver/Src/stm32g4xx_hal_dac_ex.c ****       tmpreg = (uint32_t)&hdac->Instance->DHR12LD;
 257:Drivers/STM32G4xx_HAL_Driver/Src/stm32g4xx_hal_dac_ex.c ****       break;
 258:Drivers/STM32G4xx_HAL_Driver/Src/stm32g4xx_hal_dac_ex.c ****     case DAC_ALIGN_8B_R:
 259:Drivers/STM32G4xx_HAL_Driver/Src/stm32g4xx_hal_dac_ex.c ****       /* Get DHR8R1 address */
 260:Drivers/STM32G4xx_HAL_Driver/Src/stm32g4xx_hal_dac_ex.c ****       tmpreg = (uint32_t)&hdac->Instance->DHR8RD;
 261:Drivers/STM32G4xx_HAL_Driver/Src/stm32g4xx_hal_dac_ex.c ****       break;
 262:Drivers/STM32G4xx_HAL_Driver/Src/stm32g4xx_hal_dac_ex.c ****     default:
 263:Drivers/STM32G4xx_HAL_Driver/Src/stm32g4xx_hal_dac_ex.c ****       break;
 264:Drivers/STM32G4xx_HAL_Driver/Src/stm32g4xx_hal_dac_ex.c ****   }
 265:Drivers/STM32G4xx_HAL_Driver/Src/stm32g4xx_hal_dac_ex.c **** 
 266:Drivers/STM32G4xx_HAL_Driver/Src/stm32g4xx_hal_dac_ex.c ****   /* Enable the DMA channel */
 267:Drivers/STM32G4xx_HAL_Driver/Src/stm32g4xx_hal_dac_ex.c ****   if (Channel == DAC_CHANNEL_1)
 278              		.loc 1 267 3 view .LVU93
 279              		.loc 1 267 6 is_stmt 0 view .LVU94
 280 0046 002F     		cmp	r7, #0
 281 0048 2BD1     		bne	.L14
 282              	.LVL16:
 283              	.L11:
 268:Drivers/STM32G4xx_HAL_Driver/Src/stm32g4xx_hal_dac_ex.c ****   {
 269:Drivers/STM32G4xx_HAL_Driver/Src/stm32g4xx_hal_dac_ex.c ****     /* Enable the DAC DMA underrun interrupt */
 270:Drivers/STM32G4xx_HAL_Driver/Src/stm32g4xx_hal_dac_ex.c ****     __HAL_DAC_ENABLE_IT(hdac, DAC_IT_DMAUDR1);
 284              		.loc 1 270 5 is_stmt 1 view .LVU95
 285 004a 0568     		ldr	r5, [r0]
 286 004c 45F40055 		orr	r5, r5, #8192
 287 0050 0560     		str	r5, [r0]
 271:Drivers/STM32G4xx_HAL_Driver/Src/stm32g4xx_hal_dac_ex.c **** 
ARM GAS  /tmp/ccrXORvc.s 			page 11


 272:Drivers/STM32G4xx_HAL_Driver/Src/stm32g4xx_hal_dac_ex.c ****     /* Enable the DMA channel */
 273:Drivers/STM32G4xx_HAL_Driver/Src/stm32g4xx_hal_dac_ex.c ****     status = HAL_DMA_Start_IT(hdac->DMA_Handle1, (uint32_t)pData, tmpreg, Length);
 288              		.loc 1 273 5 view .LVU96
 289              		.loc 1 273 14 is_stmt 0 view .LVU97
 290 0052 A068     		ldr	r0, [r4, #8]
 291              	.L34:
 274:Drivers/STM32G4xx_HAL_Driver/Src/stm32g4xx_hal_dac_ex.c ****   }
 275:Drivers/STM32G4xx_HAL_Driver/Src/stm32g4xx_hal_dac_ex.c ****   else
 276:Drivers/STM32G4xx_HAL_Driver/Src/stm32g4xx_hal_dac_ex.c ****   {
 277:Drivers/STM32G4xx_HAL_Driver/Src/stm32g4xx_hal_dac_ex.c ****     /* Enable the DAC DMA underrun interrupt */
 278:Drivers/STM32G4xx_HAL_Driver/Src/stm32g4xx_hal_dac_ex.c ****     __HAL_DAC_ENABLE_IT(hdac, DAC_IT_DMAUDR2);
 279:Drivers/STM32G4xx_HAL_Driver/Src/stm32g4xx_hal_dac_ex.c **** 
 280:Drivers/STM32G4xx_HAL_Driver/Src/stm32g4xx_hal_dac_ex.c ****     /* Enable the DMA channel */
 281:Drivers/STM32G4xx_HAL_Driver/Src/stm32g4xx_hal_dac_ex.c ****     status = HAL_DMA_Start_IT(hdac->DMA_Handle2, (uint32_t)pData, tmpreg, Length);
 292              		.loc 1 281 14 view .LVU98
 293 0054 FFF7FEFF 		bl	HAL_DMA_Start_IT
 294              	.LVL17:
 282:Drivers/STM32G4xx_HAL_Driver/Src/stm32g4xx_hal_dac_ex.c ****   }
 283:Drivers/STM32G4xx_HAL_Driver/Src/stm32g4xx_hal_dac_ex.c **** 
 284:Drivers/STM32G4xx_HAL_Driver/Src/stm32g4xx_hal_dac_ex.c ****   /* Process Unlocked */
 285:Drivers/STM32G4xx_HAL_Driver/Src/stm32g4xx_hal_dac_ex.c ****   __HAL_UNLOCK(hdac);
 295              		.loc 1 285 3 view .LVU99
 296 0058 0023     		movs	r3, #0
 281:Drivers/STM32G4xx_HAL_Driver/Src/stm32g4xx_hal_dac_ex.c ****   }
 297              		.loc 1 281 14 view .LVU100
 298 005a 0546     		mov	r5, r0
 299              	.LVL18:
 300              		.loc 1 285 3 is_stmt 1 view .LVU101
 301              		.loc 1 285 3 view .LVU102
 302 005c 6371     		strb	r3, [r4, #5]
 303              		.loc 1 285 3 view .LVU103
 286:Drivers/STM32G4xx_HAL_Driver/Src/stm32g4xx_hal_dac_ex.c **** 
 287:Drivers/STM32G4xx_HAL_Driver/Src/stm32g4xx_hal_dac_ex.c ****   if (status == HAL_OK)
 304              		.loc 1 287 3 view .LVU104
 305              		.loc 1 287 6 is_stmt 0 view .LVU105
 306 005e 0028     		cmp	r0, #0
 307 0060 2DD1     		bne	.L16
 288:Drivers/STM32G4xx_HAL_Driver/Src/stm32g4xx_hal_dac_ex.c ****   {
 289:Drivers/STM32G4xx_HAL_Driver/Src/stm32g4xx_hal_dac_ex.c ****     /* Enable the Peripheral */
 290:Drivers/STM32G4xx_HAL_Driver/Src/stm32g4xx_hal_dac_ex.c ****     __HAL_DAC_ENABLE(hdac, DAC_CHANNEL_1);
 308              		.loc 1 290 5 is_stmt 1 view .LVU106
 309 0062 2368     		ldr	r3, [r4]
 310 0064 1A68     		ldr	r2, [r3]
 311 0066 42F00102 		orr	r2, r2, #1
 312 006a 1A60     		str	r2, [r3]
 291:Drivers/STM32G4xx_HAL_Driver/Src/stm32g4xx_hal_dac_ex.c ****     __HAL_DAC_ENABLE(hdac, DAC_CHANNEL_2);
 313              		.loc 1 291 5 view .LVU107
 314 006c 1A68     		ldr	r2, [r3]
 315 006e 42F48032 		orr	r2, r2, #65536
 316 0072 1A60     		str	r2, [r3]
 292:Drivers/STM32G4xx_HAL_Driver/Src/stm32g4xx_hal_dac_ex.c ****     /* Ensure minimum wait before using peripheral after enabling it */
 293:Drivers/STM32G4xx_HAL_Driver/Src/stm32g4xx_hal_dac_ex.c ****     HAL_Delay(1);
 317              		.loc 1 293 5 view .LVU108
 318 0074 0120     		movs	r0, #1
 319              	.LVL19:
 320              		.loc 1 293 5 is_stmt 0 view .LVU109
 321 0076 FFF7FEFF 		bl	HAL_Delay
ARM GAS  /tmp/ccrXORvc.s 			page 12


 322              	.LVL20:
 323              	.L7:
 294:Drivers/STM32G4xx_HAL_Driver/Src/stm32g4xx_hal_dac_ex.c ****   }
 295:Drivers/STM32G4xx_HAL_Driver/Src/stm32g4xx_hal_dac_ex.c ****   else
 296:Drivers/STM32G4xx_HAL_Driver/Src/stm32g4xx_hal_dac_ex.c ****   {
 297:Drivers/STM32G4xx_HAL_Driver/Src/stm32g4xx_hal_dac_ex.c ****     hdac->ErrorCode |= HAL_DAC_ERROR_DMA;
 298:Drivers/STM32G4xx_HAL_Driver/Src/stm32g4xx_hal_dac_ex.c ****   }
 299:Drivers/STM32G4xx_HAL_Driver/Src/stm32g4xx_hal_dac_ex.c **** 
 300:Drivers/STM32G4xx_HAL_Driver/Src/stm32g4xx_hal_dac_ex.c ****   /* Return function status */
 301:Drivers/STM32G4xx_HAL_Driver/Src/stm32g4xx_hal_dac_ex.c ****   return status;
 302:Drivers/STM32G4xx_HAL_Driver/Src/stm32g4xx_hal_dac_ex.c **** }
 324              		.loc 1 302 1 view .LVU110
 325 007a 2846     		mov	r0, r5
 326 007c F8BD     		pop	{r3, r4, r5, r6, r7, pc}
 327              	.LVL21:
 328              	.L8:
 236:Drivers/STM32G4xx_HAL_Driver/Src/stm32g4xx_hal_dac_ex.c **** 
 329              		.loc 1 236 5 is_stmt 1 view .LVU111
 236:Drivers/STM32G4xx_HAL_Driver/Src/stm32g4xx_hal_dac_ex.c **** 
 330              		.loc 1 236 9 is_stmt 0 view .LVU112
 331 007e E268     		ldr	r2, [r4, #12]
 236:Drivers/STM32G4xx_HAL_Driver/Src/stm32g4xx_hal_dac_ex.c **** 
 332              		.loc 1 236 41 view .LVU113
 333 0080 144D     		ldr	r5, .L35+12
 334 0082 D562     		str	r5, [r2, #44]
 239:Drivers/STM32G4xx_HAL_Driver/Src/stm32g4xx_hal_dac_ex.c **** 
 335              		.loc 1 239 5 is_stmt 1 view .LVU114
 239:Drivers/STM32G4xx_HAL_Driver/Src/stm32g4xx_hal_dac_ex.c **** 
 336              		.loc 1 239 45 is_stmt 0 view .LVU115
 337 0084 144D     		ldr	r5, .L35+16
 338 0086 1563     		str	r5, [r2, #48]
 242:Drivers/STM32G4xx_HAL_Driver/Src/stm32g4xx_hal_dac_ex.c **** 
 339              		.loc 1 242 5 is_stmt 1 view .LVU116
 242:Drivers/STM32G4xx_HAL_Driver/Src/stm32g4xx_hal_dac_ex.c **** 
 340              		.loc 1 242 42 is_stmt 0 view .LVU117
 341 0088 144D     		ldr	r5, .L35+20
 342 008a 5563     		str	r5, [r2, #52]
 245:Drivers/STM32G4xx_HAL_Driver/Src/stm32g4xx_hal_dac_ex.c ****   }
 343              		.loc 1 245 5 is_stmt 1 view .LVU118
 344 008c 0268     		ldr	r2, [r0]
 248:Drivers/STM32G4xx_HAL_Driver/Src/stm32g4xx_hal_dac_ex.c ****   {
 345              		.loc 1 248 3 is_stmt 0 view .LVU119
 346 008e 042E     		cmp	r6, #4
 245:Drivers/STM32G4xx_HAL_Driver/Src/stm32g4xx_hal_dac_ex.c ****   }
 347              		.loc 1 245 5 view .LVU120
 348 0090 42F08052 		orr	r2, r2, #268435456
 349 0094 0260     		str	r2, [r0]
 248:Drivers/STM32G4xx_HAL_Driver/Src/stm32g4xx_hal_dac_ex.c ****   {
 350              		.loc 1 248 3 is_stmt 1 view .LVU121
 351 0096 0AD0     		beq	.L9
 352 0098 082E     		cmp	r6, #8
 353 009a 0BD0     		beq	.L10
 354 009c 002E     		cmp	r6, #0
 355 009e D0D0     		beq	.L13
 356 00a0 0022     		movs	r2, #0
 357              	.LVL22:
 358              	.L14:
ARM GAS  /tmp/ccrXORvc.s 			page 13


 278:Drivers/STM32G4xx_HAL_Driver/Src/stm32g4xx_hal_dac_ex.c **** 
 359              		.loc 1 278 5 view .LVU122
 360 00a2 0568     		ldr	r5, [r0]
 361 00a4 45F00055 		orr	r5, r5, #536870912
 362 00a8 0560     		str	r5, [r0]
 281:Drivers/STM32G4xx_HAL_Driver/Src/stm32g4xx_hal_dac_ex.c ****   }
 363              		.loc 1 281 5 view .LVU123
 281:Drivers/STM32G4xx_HAL_Driver/Src/stm32g4xx_hal_dac_ex.c ****   }
 364              		.loc 1 281 14 is_stmt 0 view .LVU124
 365 00aa E068     		ldr	r0, [r4, #12]
 366 00ac D2E7     		b	.L34
 367              	.LVL23:
 368              	.L9:
 256:Drivers/STM32G4xx_HAL_Driver/Src/stm32g4xx_hal_dac_ex.c ****       break;
 369              		.loc 1 256 7 is_stmt 1 view .LVU125
 256:Drivers/STM32G4xx_HAL_Driver/Src/stm32g4xx_hal_dac_ex.c ****       break;
 370              		.loc 1 256 26 is_stmt 0 view .LVU126
 371 00ae 00F12402 		add	r2, r0, #36
 372              	.LVL24:
 257:Drivers/STM32G4xx_HAL_Driver/Src/stm32g4xx_hal_dac_ex.c ****     case DAC_ALIGN_8B_R:
 373              		.loc 1 257 7 is_stmt 1 view .LVU127
 374 00b2 C8E7     		b	.L12
 375              	.LVL25:
 376              	.L10:
 260:Drivers/STM32G4xx_HAL_Driver/Src/stm32g4xx_hal_dac_ex.c ****       break;
 377              		.loc 1 260 7 view .LVU128
 260:Drivers/STM32G4xx_HAL_Driver/Src/stm32g4xx_hal_dac_ex.c ****       break;
 378              		.loc 1 260 26 is_stmt 0 view .LVU129
 379 00b4 00F12802 		add	r2, r0, #40
 380              	.LVL26:
 261:Drivers/STM32G4xx_HAL_Driver/Src/stm32g4xx_hal_dac_ex.c ****     default:
 381              		.loc 1 261 7 is_stmt 1 view .LVU130
 382 00b8 C5E7     		b	.L12
 383              	.LVL27:
 384              	.L18:
 248:Drivers/STM32G4xx_HAL_Driver/Src/stm32g4xx_hal_dac_ex.c ****   {
 385              		.loc 1 248 3 is_stmt 0 view .LVU131
 386 00ba 3A46     		mov	r2, r7
 387 00bc C5E7     		b	.L11
 388              	.LVL28:
 389              	.L16:
 297:Drivers/STM32G4xx_HAL_Driver/Src/stm32g4xx_hal_dac_ex.c ****   }
 390              		.loc 1 297 5 is_stmt 1 view .LVU132
 297:Drivers/STM32G4xx_HAL_Driver/Src/stm32g4xx_hal_dac_ex.c ****   }
 391              		.loc 1 297 21 is_stmt 0 view .LVU133
 392 00be 2369     		ldr	r3, [r4, #16]
 393 00c0 43F00403 		orr	r3, r3, #4
 394 00c4 2361     		str	r3, [r4, #16]
 395 00c6 D8E7     		b	.L7
 396              	.L36:
 397              		.align	2
 398              	.L35:
 399 00c8 00000000 		.word	DAC_DMAConvCpltCh1
 400 00cc 00000000 		.word	DAC_DMAHalfConvCpltCh1
 401 00d0 00000000 		.word	DAC_DMAErrorCh1
 402 00d4 00000000 		.word	DAC_DMAConvCpltCh2
 403 00d8 00000000 		.word	DAC_DMAHalfConvCpltCh2
ARM GAS  /tmp/ccrXORvc.s 			page 14


 404 00dc 00000000 		.word	DAC_DMAErrorCh2
 405              		.cfi_endproc
 406              	.LFE359:
 408              		.section	.text.HAL_DACEx_DualStop_DMA,"ax",%progbits
 409              		.align	1
 410              		.global	HAL_DACEx_DualStop_DMA
 411              		.syntax unified
 412              		.thumb
 413              		.thumb_func
 414              		.fpu fpv4-sp-d16
 416              	HAL_DACEx_DualStop_DMA:
 417              	.LVL29:
 418              	.LFB360:
 303:Drivers/STM32G4xx_HAL_Driver/Src/stm32g4xx_hal_dac_ex.c **** 
 304:Drivers/STM32G4xx_HAL_Driver/Src/stm32g4xx_hal_dac_ex.c **** /**
 305:Drivers/STM32G4xx_HAL_Driver/Src/stm32g4xx_hal_dac_ex.c ****   * @brief  Disables DAC and stop conversion both channel.
 306:Drivers/STM32G4xx_HAL_Driver/Src/stm32g4xx_hal_dac_ex.c ****   * @param  hdac pointer to a DAC_HandleTypeDef structure that contains
 307:Drivers/STM32G4xx_HAL_Driver/Src/stm32g4xx_hal_dac_ex.c ****   *         the configuration information for the specified DAC.
 308:Drivers/STM32G4xx_HAL_Driver/Src/stm32g4xx_hal_dac_ex.c ****   * @param  Channel The DAC channel that requests data from DMA.
 309:Drivers/STM32G4xx_HAL_Driver/Src/stm32g4xx_hal_dac_ex.c ****   *          This parameter can be one of the following values:
 310:Drivers/STM32G4xx_HAL_Driver/Src/stm32g4xx_hal_dac_ex.c ****   *            @arg DAC_CHANNEL_1: DAC Channel1 selected
 311:Drivers/STM32G4xx_HAL_Driver/Src/stm32g4xx_hal_dac_ex.c ****   *            @arg DAC_CHANNEL_2: DAC Channel2 selected
 312:Drivers/STM32G4xx_HAL_Driver/Src/stm32g4xx_hal_dac_ex.c ****   * @retval HAL status
 313:Drivers/STM32G4xx_HAL_Driver/Src/stm32g4xx_hal_dac_ex.c ****   */
 314:Drivers/STM32G4xx_HAL_Driver/Src/stm32g4xx_hal_dac_ex.c **** HAL_StatusTypeDef HAL_DACEx_DualStop_DMA(DAC_HandleTypeDef *hdac, uint32_t Channel)
 315:Drivers/STM32G4xx_HAL_Driver/Src/stm32g4xx_hal_dac_ex.c **** {
 419              		.loc 1 315 1 is_stmt 1 view -0
 420              		.cfi_startproc
 421              		@ args = 0, pretend = 0, frame = 0
 422              		@ frame_needed = 0, uses_anonymous_args = 0
 316:Drivers/STM32G4xx_HAL_Driver/Src/stm32g4xx_hal_dac_ex.c ****   HAL_StatusTypeDef status;
 423              		.loc 1 316 3 view .LVU135
 317:Drivers/STM32G4xx_HAL_Driver/Src/stm32g4xx_hal_dac_ex.c **** 
 318:Drivers/STM32G4xx_HAL_Driver/Src/stm32g4xx_hal_dac_ex.c ****   /* Ensure Channel 2 exists for this particular DAC instance */
 319:Drivers/STM32G4xx_HAL_Driver/Src/stm32g4xx_hal_dac_ex.c ****   assert_param(IS_DAC_CHANNEL(hdac->Instance, DAC_CHANNEL_2));
 424              		.loc 1 319 3 view .LVU136
 320:Drivers/STM32G4xx_HAL_Driver/Src/stm32g4xx_hal_dac_ex.c **** 
 321:Drivers/STM32G4xx_HAL_Driver/Src/stm32g4xx_hal_dac_ex.c ****   /* Disable the selected DAC channel DMA request */
 322:Drivers/STM32G4xx_HAL_Driver/Src/stm32g4xx_hal_dac_ex.c ****   CLEAR_BIT(hdac->Instance->CR, DAC_CR_DMAEN2 | DAC_CR_DMAEN1);
 425              		.loc 1 322 3 view .LVU137
 315:Drivers/STM32G4xx_HAL_Driver/Src/stm32g4xx_hal_dac_ex.c ****   HAL_StatusTypeDef status;
 426              		.loc 1 315 1 is_stmt 0 view .LVU138
 427 0000 38B5     		push	{r3, r4, r5, lr}
 428              	.LCFI3:
 429              		.cfi_def_cfa_offset 16
 430              		.cfi_offset 3, -16
 431              		.cfi_offset 4, -12
 432              		.cfi_offset 5, -8
 433              		.cfi_offset 14, -4
 434              		.loc 1 322 3 view .LVU139
 435 0002 0368     		ldr	r3, [r0]
 436 0004 1A68     		ldr	r2, [r3]
 437 0006 22F01022 		bic	r2, r2, #268439552
 438 000a 1A60     		str	r2, [r3]
 323:Drivers/STM32G4xx_HAL_Driver/Src/stm32g4xx_hal_dac_ex.c **** 
 324:Drivers/STM32G4xx_HAL_Driver/Src/stm32g4xx_hal_dac_ex.c ****   /* Disable the Peripheral */
 325:Drivers/STM32G4xx_HAL_Driver/Src/stm32g4xx_hal_dac_ex.c ****   __HAL_DAC_DISABLE(hdac, DAC_CHANNEL_1);
ARM GAS  /tmp/ccrXORvc.s 			page 15


 439              		.loc 1 325 3 is_stmt 1 view .LVU140
 440 000c 1A68     		ldr	r2, [r3]
 441 000e 22F00102 		bic	r2, r2, #1
 442 0012 1A60     		str	r2, [r3]
 326:Drivers/STM32G4xx_HAL_Driver/Src/stm32g4xx_hal_dac_ex.c ****   __HAL_DAC_DISABLE(hdac, DAC_CHANNEL_2);
 443              		.loc 1 326 3 view .LVU141
 444 0014 1A68     		ldr	r2, [r3]
 445 0016 22F48032 		bic	r2, r2, #65536
 315:Drivers/STM32G4xx_HAL_Driver/Src/stm32g4xx_hal_dac_ex.c ****   HAL_StatusTypeDef status;
 446              		.loc 1 315 1 is_stmt 0 view .LVU142
 447 001a 0446     		mov	r4, r0
 448 001c 0D46     		mov	r5, r1
 449              		.loc 1 326 3 view .LVU143
 450 001e 1A60     		str	r2, [r3]
 327:Drivers/STM32G4xx_HAL_Driver/Src/stm32g4xx_hal_dac_ex.c ****   /* Ensure minimum wait before enabling peripheral after disabling it */
 328:Drivers/STM32G4xx_HAL_Driver/Src/stm32g4xx_hal_dac_ex.c ****   HAL_Delay(1);
 451              		.loc 1 328 3 is_stmt 1 view .LVU144
 452 0020 0120     		movs	r0, #1
 453              	.LVL30:
 454              		.loc 1 328 3 is_stmt 0 view .LVU145
 455 0022 FFF7FEFF 		bl	HAL_Delay
 456              	.LVL31:
 329:Drivers/STM32G4xx_HAL_Driver/Src/stm32g4xx_hal_dac_ex.c **** 
 330:Drivers/STM32G4xx_HAL_Driver/Src/stm32g4xx_hal_dac_ex.c ****   /* Disable the DMA channel */
 331:Drivers/STM32G4xx_HAL_Driver/Src/stm32g4xx_hal_dac_ex.c **** 
 332:Drivers/STM32G4xx_HAL_Driver/Src/stm32g4xx_hal_dac_ex.c ****   /* Channel1 is used */
 333:Drivers/STM32G4xx_HAL_Driver/Src/stm32g4xx_hal_dac_ex.c ****   if (Channel == DAC_CHANNEL_1)
 457              		.loc 1 333 3 is_stmt 1 view .LVU146
 458              		.loc 1 333 6 is_stmt 0 view .LVU147
 459 0026 5DB9     		cbnz	r5, .L38
 334:Drivers/STM32G4xx_HAL_Driver/Src/stm32g4xx_hal_dac_ex.c ****   {
 335:Drivers/STM32G4xx_HAL_Driver/Src/stm32g4xx_hal_dac_ex.c ****     /* Disable the DMA channel */
 336:Drivers/STM32G4xx_HAL_Driver/Src/stm32g4xx_hal_dac_ex.c ****     status = HAL_DMA_Abort(hdac->DMA_Handle1);
 460              		.loc 1 336 5 is_stmt 1 view .LVU148
 461              		.loc 1 336 14 is_stmt 0 view .LVU149
 462 0028 A068     		ldr	r0, [r4, #8]
 463 002a FFF7FEFF 		bl	HAL_DMA_Abort
 464              	.LVL32:
 337:Drivers/STM32G4xx_HAL_Driver/Src/stm32g4xx_hal_dac_ex.c **** 
 338:Drivers/STM32G4xx_HAL_Driver/Src/stm32g4xx_hal_dac_ex.c ****     /* Disable the DAC DMA underrun interrupt */
 339:Drivers/STM32G4xx_HAL_Driver/Src/stm32g4xx_hal_dac_ex.c ****     __HAL_DAC_DISABLE_IT(hdac, DAC_IT_DMAUDR1);
 465              		.loc 1 339 5 is_stmt 1 view .LVU150
 466 002e 2268     		ldr	r2, [r4]
 467 0030 1368     		ldr	r3, [r2]
 468 0032 23F40053 		bic	r3, r3, #8192
 469              	.L42:
 340:Drivers/STM32G4xx_HAL_Driver/Src/stm32g4xx_hal_dac_ex.c ****   }
 341:Drivers/STM32G4xx_HAL_Driver/Src/stm32g4xx_hal_dac_ex.c ****   else
 342:Drivers/STM32G4xx_HAL_Driver/Src/stm32g4xx_hal_dac_ex.c ****   {
 343:Drivers/STM32G4xx_HAL_Driver/Src/stm32g4xx_hal_dac_ex.c ****     /* Disable the DMA channel */
 344:Drivers/STM32G4xx_HAL_Driver/Src/stm32g4xx_hal_dac_ex.c ****     status = HAL_DMA_Abort(hdac->DMA_Handle2);
 345:Drivers/STM32G4xx_HAL_Driver/Src/stm32g4xx_hal_dac_ex.c **** 
 346:Drivers/STM32G4xx_HAL_Driver/Src/stm32g4xx_hal_dac_ex.c ****     /* Disable the DAC DMA underrun interrupt */
 347:Drivers/STM32G4xx_HAL_Driver/Src/stm32g4xx_hal_dac_ex.c ****     __HAL_DAC_DISABLE_IT(hdac, DAC_IT_DMAUDR2);
 470              		.loc 1 347 5 is_stmt 0 view .LVU151
 471 0036 1360     		str	r3, [r2]
 348:Drivers/STM32G4xx_HAL_Driver/Src/stm32g4xx_hal_dac_ex.c ****   }
ARM GAS  /tmp/ccrXORvc.s 			page 16


 349:Drivers/STM32G4xx_HAL_Driver/Src/stm32g4xx_hal_dac_ex.c **** 
 350:Drivers/STM32G4xx_HAL_Driver/Src/stm32g4xx_hal_dac_ex.c ****   /* Check if DMA Channel effectively disabled */
 351:Drivers/STM32G4xx_HAL_Driver/Src/stm32g4xx_hal_dac_ex.c ****   if (status != HAL_OK)
 472              		.loc 1 351 3 is_stmt 1 view .LVU152
 473              		.loc 1 351 6 is_stmt 0 view .LVU153
 474 0038 50B1     		cbz	r0, .L40
 352:Drivers/STM32G4xx_HAL_Driver/Src/stm32g4xx_hal_dac_ex.c ****   {
 353:Drivers/STM32G4xx_HAL_Driver/Src/stm32g4xx_hal_dac_ex.c ****     /* Update DAC state machine to error */
 354:Drivers/STM32G4xx_HAL_Driver/Src/stm32g4xx_hal_dac_ex.c ****     hdac->State = HAL_DAC_STATE_ERROR;
 475              		.loc 1 354 5 is_stmt 1 view .LVU154
 476              		.loc 1 354 17 is_stmt 0 view .LVU155
 477 003a 0423     		movs	r3, #4
 478              	.L43:
 355:Drivers/STM32G4xx_HAL_Driver/Src/stm32g4xx_hal_dac_ex.c ****   }
 356:Drivers/STM32G4xx_HAL_Driver/Src/stm32g4xx_hal_dac_ex.c ****   else
 357:Drivers/STM32G4xx_HAL_Driver/Src/stm32g4xx_hal_dac_ex.c ****   {
 358:Drivers/STM32G4xx_HAL_Driver/Src/stm32g4xx_hal_dac_ex.c ****     /* Change DAC state */
 359:Drivers/STM32G4xx_HAL_Driver/Src/stm32g4xx_hal_dac_ex.c ****     hdac->State = HAL_DAC_STATE_READY;
 479              		.loc 1 359 17 view .LVU156
 480 003c 2371     		strb	r3, [r4, #4]
 360:Drivers/STM32G4xx_HAL_Driver/Src/stm32g4xx_hal_dac_ex.c ****   }
 361:Drivers/STM32G4xx_HAL_Driver/Src/stm32g4xx_hal_dac_ex.c **** 
 362:Drivers/STM32G4xx_HAL_Driver/Src/stm32g4xx_hal_dac_ex.c ****   /* Return function status */
 363:Drivers/STM32G4xx_HAL_Driver/Src/stm32g4xx_hal_dac_ex.c ****   return status;
 481              		.loc 1 363 3 is_stmt 1 view .LVU157
 364:Drivers/STM32G4xx_HAL_Driver/Src/stm32g4xx_hal_dac_ex.c **** }
 482              		.loc 1 364 1 is_stmt 0 view .LVU158
 483 003e 38BD     		pop	{r3, r4, r5, pc}
 484              	.LVL33:
 485              	.L38:
 344:Drivers/STM32G4xx_HAL_Driver/Src/stm32g4xx_hal_dac_ex.c **** 
 486              		.loc 1 344 5 is_stmt 1 view .LVU159
 344:Drivers/STM32G4xx_HAL_Driver/Src/stm32g4xx_hal_dac_ex.c **** 
 487              		.loc 1 344 14 is_stmt 0 view .LVU160
 488 0040 E068     		ldr	r0, [r4, #12]
 489 0042 FFF7FEFF 		bl	HAL_DMA_Abort
 490              	.LVL34:
 347:Drivers/STM32G4xx_HAL_Driver/Src/stm32g4xx_hal_dac_ex.c ****   }
 491              		.loc 1 347 5 is_stmt 1 view .LVU161
 492 0046 2268     		ldr	r2, [r4]
 493 0048 1368     		ldr	r3, [r2]
 494 004a 23F00053 		bic	r3, r3, #536870912
 495 004e F2E7     		b	.L42
 496              	.L40:
 359:Drivers/STM32G4xx_HAL_Driver/Src/stm32g4xx_hal_dac_ex.c ****   }
 497              		.loc 1 359 5 view .LVU162
 359:Drivers/STM32G4xx_HAL_Driver/Src/stm32g4xx_hal_dac_ex.c ****   }
 498              		.loc 1 359 17 is_stmt 0 view .LVU163
 499 0050 0123     		movs	r3, #1
 500 0052 F3E7     		b	.L43
 501              		.cfi_endproc
 502              	.LFE360:
 504              		.section	.text.HAL_DACEx_TriangleWaveGenerate,"ax",%progbits
 505              		.align	1
 506              		.global	HAL_DACEx_TriangleWaveGenerate
 507              		.syntax unified
 508              		.thumb
ARM GAS  /tmp/ccrXORvc.s 			page 17


 509              		.thumb_func
 510              		.fpu fpv4-sp-d16
 512              	HAL_DACEx_TriangleWaveGenerate:
 513              	.LVL35:
 514              	.LFB361:
 365:Drivers/STM32G4xx_HAL_Driver/Src/stm32g4xx_hal_dac_ex.c **** 
 366:Drivers/STM32G4xx_HAL_Driver/Src/stm32g4xx_hal_dac_ex.c **** /**
 367:Drivers/STM32G4xx_HAL_Driver/Src/stm32g4xx_hal_dac_ex.c ****   * @brief  Enable or disable the selected DAC channel wave generation.
 368:Drivers/STM32G4xx_HAL_Driver/Src/stm32g4xx_hal_dac_ex.c ****   * @param  hdac pointer to a DAC_HandleTypeDef structure that contains
 369:Drivers/STM32G4xx_HAL_Driver/Src/stm32g4xx_hal_dac_ex.c ****   *         the configuration information for the specified DAC.
 370:Drivers/STM32G4xx_HAL_Driver/Src/stm32g4xx_hal_dac_ex.c ****   * @param  Channel The selected DAC channel.
 371:Drivers/STM32G4xx_HAL_Driver/Src/stm32g4xx_hal_dac_ex.c ****   *          This parameter can be one of the following values:
 372:Drivers/STM32G4xx_HAL_Driver/Src/stm32g4xx_hal_dac_ex.c ****   *            @arg DAC_CHANNEL_1: DAC Channel1 selected
 373:Drivers/STM32G4xx_HAL_Driver/Src/stm32g4xx_hal_dac_ex.c ****   *            @arg DAC_CHANNEL_2: DAC Channel2 selected (1)
 374:Drivers/STM32G4xx_HAL_Driver/Src/stm32g4xx_hal_dac_ex.c ****   *
 375:Drivers/STM32G4xx_HAL_Driver/Src/stm32g4xx_hal_dac_ex.c ****   *         (1) On this STM32 serie, parameter not available on all instances.
 376:Drivers/STM32G4xx_HAL_Driver/Src/stm32g4xx_hal_dac_ex.c ****   *             Refer to device datasheet for channels availability.
 377:Drivers/STM32G4xx_HAL_Driver/Src/stm32g4xx_hal_dac_ex.c ****   * @param  Amplitude Select max triangle amplitude.
 378:Drivers/STM32G4xx_HAL_Driver/Src/stm32g4xx_hal_dac_ex.c ****   *          This parameter can be one of the following values:
 379:Drivers/STM32G4xx_HAL_Driver/Src/stm32g4xx_hal_dac_ex.c ****   *            @arg DAC_TRIANGLEAMPLITUDE_1: Select max triangle amplitude of 1
 380:Drivers/STM32G4xx_HAL_Driver/Src/stm32g4xx_hal_dac_ex.c ****   *            @arg DAC_TRIANGLEAMPLITUDE_3: Select max triangle amplitude of 3
 381:Drivers/STM32G4xx_HAL_Driver/Src/stm32g4xx_hal_dac_ex.c ****   *            @arg DAC_TRIANGLEAMPLITUDE_7: Select max triangle amplitude of 7
 382:Drivers/STM32G4xx_HAL_Driver/Src/stm32g4xx_hal_dac_ex.c ****   *            @arg DAC_TRIANGLEAMPLITUDE_15: Select max triangle amplitude of 15
 383:Drivers/STM32G4xx_HAL_Driver/Src/stm32g4xx_hal_dac_ex.c ****   *            @arg DAC_TRIANGLEAMPLITUDE_31: Select max triangle amplitude of 31
 384:Drivers/STM32G4xx_HAL_Driver/Src/stm32g4xx_hal_dac_ex.c ****   *            @arg DAC_TRIANGLEAMPLITUDE_63: Select max triangle amplitude of 63
 385:Drivers/STM32G4xx_HAL_Driver/Src/stm32g4xx_hal_dac_ex.c ****   *            @arg DAC_TRIANGLEAMPLITUDE_127: Select max triangle amplitude of 127
 386:Drivers/STM32G4xx_HAL_Driver/Src/stm32g4xx_hal_dac_ex.c ****   *            @arg DAC_TRIANGLEAMPLITUDE_255: Select max triangle amplitude of 255
 387:Drivers/STM32G4xx_HAL_Driver/Src/stm32g4xx_hal_dac_ex.c ****   *            @arg DAC_TRIANGLEAMPLITUDE_511: Select max triangle amplitude of 511
 388:Drivers/STM32G4xx_HAL_Driver/Src/stm32g4xx_hal_dac_ex.c ****   *            @arg DAC_TRIANGLEAMPLITUDE_1023: Select max triangle amplitude of 1023
 389:Drivers/STM32G4xx_HAL_Driver/Src/stm32g4xx_hal_dac_ex.c ****   *            @arg DAC_TRIANGLEAMPLITUDE_2047: Select max triangle amplitude of 2047
 390:Drivers/STM32G4xx_HAL_Driver/Src/stm32g4xx_hal_dac_ex.c ****   *            @arg DAC_TRIANGLEAMPLITUDE_4095: Select max triangle amplitude of 4095
 391:Drivers/STM32G4xx_HAL_Driver/Src/stm32g4xx_hal_dac_ex.c ****   * @retval HAL status
 392:Drivers/STM32G4xx_HAL_Driver/Src/stm32g4xx_hal_dac_ex.c ****   */
 393:Drivers/STM32G4xx_HAL_Driver/Src/stm32g4xx_hal_dac_ex.c **** HAL_StatusTypeDef HAL_DACEx_TriangleWaveGenerate(DAC_HandleTypeDef *hdac, uint32_t Channel, uint32_
 394:Drivers/STM32G4xx_HAL_Driver/Src/stm32g4xx_hal_dac_ex.c **** {
 515              		.loc 1 394 1 is_stmt 1 view -0
 516              		.cfi_startproc
 517              		@ args = 0, pretend = 0, frame = 0
 518              		@ frame_needed = 0, uses_anonymous_args = 0
 395:Drivers/STM32G4xx_HAL_Driver/Src/stm32g4xx_hal_dac_ex.c ****   /* Check the parameters */
 396:Drivers/STM32G4xx_HAL_Driver/Src/stm32g4xx_hal_dac_ex.c ****   assert_param(IS_DAC_CHANNEL(hdac->Instance, Channel));
 519              		.loc 1 396 3 view .LVU165
 397:Drivers/STM32G4xx_HAL_Driver/Src/stm32g4xx_hal_dac_ex.c ****   assert_param(IS_DAC_LFSR_UNMASK_TRIANGLE_AMPLITUDE(Amplitude));
 520              		.loc 1 397 3 view .LVU166
 398:Drivers/STM32G4xx_HAL_Driver/Src/stm32g4xx_hal_dac_ex.c **** 
 399:Drivers/STM32G4xx_HAL_Driver/Src/stm32g4xx_hal_dac_ex.c ****   /* Process locked */
 400:Drivers/STM32G4xx_HAL_Driver/Src/stm32g4xx_hal_dac_ex.c ****   __HAL_LOCK(hdac);
 521              		.loc 1 400 3 view .LVU167
 522              		.loc 1 400 3 view .LVU168
 394:Drivers/STM32G4xx_HAL_Driver/Src/stm32g4xx_hal_dac_ex.c ****   /* Check the parameters */
 523              		.loc 1 394 1 is_stmt 0 view .LVU169
 524 0000 30B5     		push	{r4, r5, lr}
 525              	.LCFI4:
 526              		.cfi_def_cfa_offset 12
 527              		.cfi_offset 4, -12
 528              		.cfi_offset 5, -8
 529              		.cfi_offset 14, -4
ARM GAS  /tmp/ccrXORvc.s 			page 18


 530              		.loc 1 400 3 view .LVU170
 531 0002 4379     		ldrb	r3, [r0, #5]	@ zero_extendqisi2
 532 0004 012B     		cmp	r3, #1
 533 0006 4FF00203 		mov	r3, #2
 534 000a 12D0     		beq	.L46
 535              		.loc 1 400 3 is_stmt 1 discriminator 2 view .LVU171
 536              		.loc 1 400 3 discriminator 2 view .LVU172
 401:Drivers/STM32G4xx_HAL_Driver/Src/stm32g4xx_hal_dac_ex.c **** 
 402:Drivers/STM32G4xx_HAL_Driver/Src/stm32g4xx_hal_dac_ex.c ****   /* Change DAC state */
 403:Drivers/STM32G4xx_HAL_Driver/Src/stm32g4xx_hal_dac_ex.c ****   hdac->State = HAL_DAC_STATE_BUSY;
 537              		.loc 1 403 3 discriminator 2 view .LVU173
 404:Drivers/STM32G4xx_HAL_Driver/Src/stm32g4xx_hal_dac_ex.c **** 
 405:Drivers/STM32G4xx_HAL_Driver/Src/stm32g4xx_hal_dac_ex.c ****   /* Enable the triangle wave generation for the selected DAC channel */
 406:Drivers/STM32G4xx_HAL_Driver/Src/stm32g4xx_hal_dac_ex.c ****   MODIFY_REG(hdac->Instance->CR, ((DAC_CR_WAVE1) | (DAC_CR_MAMP1)) << (Channel & 0x10UL), (DAC_CR_W
 538              		.loc 1 406 3 is_stmt 0 discriminator 2 view .LVU174
 539 000c 0568     		ldr	r5, [r0]
 403:Drivers/STM32G4xx_HAL_Driver/Src/stm32g4xx_hal_dac_ex.c **** 
 540              		.loc 1 403 15 discriminator 2 view .LVU175
 541 000e 0371     		strb	r3, [r0, #4]
 542              		.loc 1 406 3 is_stmt 1 discriminator 2 view .LVU176
 543 0010 2B68     		ldr	r3, [r5]
 544 0012 01F01001 		and	r1, r1, #16
 545              	.LVL36:
 546              		.loc 1 406 3 is_stmt 0 discriminator 2 view .LVU177
 547 0016 4FF47C64 		mov	r4, #4032
 548 001a 8C40     		lsls	r4, r4, r1
 549 001c 42F08002 		orr	r2, r2, #128
 550              	.LVL37:
 551              		.loc 1 406 3 discriminator 2 view .LVU178
 552 0020 23EA0403 		bic	r3, r3, r4
 553 0024 8A40     		lsls	r2, r2, r1
 554 0026 1A43     		orrs	r2, r2, r3
 407:Drivers/STM32G4xx_HAL_Driver/Src/stm32g4xx_hal_dac_ex.c **** 
 408:Drivers/STM32G4xx_HAL_Driver/Src/stm32g4xx_hal_dac_ex.c ****   /* Change DAC state */
 409:Drivers/STM32G4xx_HAL_Driver/Src/stm32g4xx_hal_dac_ex.c ****   hdac->State = HAL_DAC_STATE_READY;
 555              		.loc 1 409 15 discriminator 2 view .LVU179
 556 0028 0123     		movs	r3, #1
 406:Drivers/STM32G4xx_HAL_Driver/Src/stm32g4xx_hal_dac_ex.c **** 
 557              		.loc 1 406 3 discriminator 2 view .LVU180
 558 002a 2A60     		str	r2, [r5]
 559              		.loc 1 409 3 is_stmt 1 discriminator 2 view .LVU181
 560              		.loc 1 409 15 is_stmt 0 discriminator 2 view .LVU182
 561 002c 0371     		strb	r3, [r0, #4]
 410:Drivers/STM32G4xx_HAL_Driver/Src/stm32g4xx_hal_dac_ex.c **** 
 411:Drivers/STM32G4xx_HAL_Driver/Src/stm32g4xx_hal_dac_ex.c ****   /* Process unlocked */
 412:Drivers/STM32G4xx_HAL_Driver/Src/stm32g4xx_hal_dac_ex.c ****   __HAL_UNLOCK(hdac);
 562              		.loc 1 412 3 is_stmt 1 discriminator 2 view .LVU183
 563              		.loc 1 412 3 discriminator 2 view .LVU184
 564 002e 0023     		movs	r3, #0
 565 0030 4371     		strb	r3, [r0, #5]
 566              		.loc 1 412 3 discriminator 2 view .LVU185
 413:Drivers/STM32G4xx_HAL_Driver/Src/stm32g4xx_hal_dac_ex.c **** 
 414:Drivers/STM32G4xx_HAL_Driver/Src/stm32g4xx_hal_dac_ex.c ****   /* Return function status */
 415:Drivers/STM32G4xx_HAL_Driver/Src/stm32g4xx_hal_dac_ex.c ****   return HAL_OK;
 567              		.loc 1 415 3 discriminator 2 view .LVU186
 568              	.L46:
 400:Drivers/STM32G4xx_HAL_Driver/Src/stm32g4xx_hal_dac_ex.c **** 
ARM GAS  /tmp/ccrXORvc.s 			page 19


 569              		.loc 1 400 3 is_stmt 0 view .LVU187
 570 0032 1846     		mov	r0, r3
 571              	.LVL38:
 416:Drivers/STM32G4xx_HAL_Driver/Src/stm32g4xx_hal_dac_ex.c **** }
 572              		.loc 1 416 1 view .LVU188
 573 0034 30BD     		pop	{r4, r5, pc}
 574              		.cfi_endproc
 575              	.LFE361:
 577              		.section	.text.HAL_DACEx_NoiseWaveGenerate,"ax",%progbits
 578              		.align	1
 579              		.global	HAL_DACEx_NoiseWaveGenerate
 580              		.syntax unified
 581              		.thumb
 582              		.thumb_func
 583              		.fpu fpv4-sp-d16
 585              	HAL_DACEx_NoiseWaveGenerate:
 586              	.LVL39:
 587              	.LFB362:
 417:Drivers/STM32G4xx_HAL_Driver/Src/stm32g4xx_hal_dac_ex.c **** 
 418:Drivers/STM32G4xx_HAL_Driver/Src/stm32g4xx_hal_dac_ex.c **** /**
 419:Drivers/STM32G4xx_HAL_Driver/Src/stm32g4xx_hal_dac_ex.c ****   * @brief  Enable or disable the selected DAC channel wave generation.
 420:Drivers/STM32G4xx_HAL_Driver/Src/stm32g4xx_hal_dac_ex.c ****   * @param  hdac pointer to a DAC_HandleTypeDef structure that contains
 421:Drivers/STM32G4xx_HAL_Driver/Src/stm32g4xx_hal_dac_ex.c ****   *         the configuration information for the specified DAC.
 422:Drivers/STM32G4xx_HAL_Driver/Src/stm32g4xx_hal_dac_ex.c ****   * @param  Channel The selected DAC channel.
 423:Drivers/STM32G4xx_HAL_Driver/Src/stm32g4xx_hal_dac_ex.c ****   *          This parameter can be one of the following values:
 424:Drivers/STM32G4xx_HAL_Driver/Src/stm32g4xx_hal_dac_ex.c ****   *            @arg DAC_CHANNEL_1: DAC Channel1 selected
 425:Drivers/STM32G4xx_HAL_Driver/Src/stm32g4xx_hal_dac_ex.c ****   *            @arg DAC_CHANNEL_2: DAC Channel2 selected (1)
 426:Drivers/STM32G4xx_HAL_Driver/Src/stm32g4xx_hal_dac_ex.c ****   *
 427:Drivers/STM32G4xx_HAL_Driver/Src/stm32g4xx_hal_dac_ex.c ****   *         (1) On this STM32 serie, parameter not available on all instances.
 428:Drivers/STM32G4xx_HAL_Driver/Src/stm32g4xx_hal_dac_ex.c ****   *             Refer to device datasheet for channels availability.
 429:Drivers/STM32G4xx_HAL_Driver/Src/stm32g4xx_hal_dac_ex.c ****   * @param  Amplitude Unmask DAC channel LFSR for noise wave generation.
 430:Drivers/STM32G4xx_HAL_Driver/Src/stm32g4xx_hal_dac_ex.c ****   *          This parameter can be one of the following values:
 431:Drivers/STM32G4xx_HAL_Driver/Src/stm32g4xx_hal_dac_ex.c ****   *            @arg DAC_LFSRUNMASK_BIT0: Unmask DAC channel LFSR bit0 for noise wave generation
 432:Drivers/STM32G4xx_HAL_Driver/Src/stm32g4xx_hal_dac_ex.c ****   *            @arg DAC_LFSRUNMASK_BITS1_0: Unmask DAC channel LFSR bit[1:0] for noise wave generat
 433:Drivers/STM32G4xx_HAL_Driver/Src/stm32g4xx_hal_dac_ex.c ****   *            @arg DAC_LFSRUNMASK_BITS2_0: Unmask DAC channel LFSR bit[2:0] for noise wave generat
 434:Drivers/STM32G4xx_HAL_Driver/Src/stm32g4xx_hal_dac_ex.c ****   *            @arg DAC_LFSRUNMASK_BITS3_0: Unmask DAC channel LFSR bit[3:0] for noise wave generat
 435:Drivers/STM32G4xx_HAL_Driver/Src/stm32g4xx_hal_dac_ex.c ****   *            @arg DAC_LFSRUNMASK_BITS4_0: Unmask DAC channel LFSR bit[4:0] for noise wave generat
 436:Drivers/STM32G4xx_HAL_Driver/Src/stm32g4xx_hal_dac_ex.c ****   *            @arg DAC_LFSRUNMASK_BITS5_0: Unmask DAC channel LFSR bit[5:0] for noise wave generat
 437:Drivers/STM32G4xx_HAL_Driver/Src/stm32g4xx_hal_dac_ex.c ****   *            @arg DAC_LFSRUNMASK_BITS6_0: Unmask DAC channel LFSR bit[6:0] for noise wave generat
 438:Drivers/STM32G4xx_HAL_Driver/Src/stm32g4xx_hal_dac_ex.c ****   *            @arg DAC_LFSRUNMASK_BITS7_0: Unmask DAC channel LFSR bit[7:0] for noise wave generat
 439:Drivers/STM32G4xx_HAL_Driver/Src/stm32g4xx_hal_dac_ex.c ****   *            @arg DAC_LFSRUNMASK_BITS8_0: Unmask DAC channel LFSR bit[8:0] for noise wave generat
 440:Drivers/STM32G4xx_HAL_Driver/Src/stm32g4xx_hal_dac_ex.c ****   *            @arg DAC_LFSRUNMASK_BITS9_0: Unmask DAC channel LFSR bit[9:0] for noise wave generat
 441:Drivers/STM32G4xx_HAL_Driver/Src/stm32g4xx_hal_dac_ex.c ****   *            @arg DAC_LFSRUNMASK_BITS10_0: Unmask DAC channel LFSR bit[10:0] for noise wave gener
 442:Drivers/STM32G4xx_HAL_Driver/Src/stm32g4xx_hal_dac_ex.c ****   *            @arg DAC_LFSRUNMASK_BITS11_0: Unmask DAC channel LFSR bit[11:0] for noise wave gener
 443:Drivers/STM32G4xx_HAL_Driver/Src/stm32g4xx_hal_dac_ex.c ****   * @retval HAL status
 444:Drivers/STM32G4xx_HAL_Driver/Src/stm32g4xx_hal_dac_ex.c ****   */
 445:Drivers/STM32G4xx_HAL_Driver/Src/stm32g4xx_hal_dac_ex.c **** HAL_StatusTypeDef HAL_DACEx_NoiseWaveGenerate(DAC_HandleTypeDef *hdac, uint32_t Channel, uint32_t A
 446:Drivers/STM32G4xx_HAL_Driver/Src/stm32g4xx_hal_dac_ex.c **** {
 588              		.loc 1 446 1 is_stmt 1 view -0
 589              		.cfi_startproc
 590              		@ args = 0, pretend = 0, frame = 0
 591              		@ frame_needed = 0, uses_anonymous_args = 0
 447:Drivers/STM32G4xx_HAL_Driver/Src/stm32g4xx_hal_dac_ex.c ****   /* Check the parameters */
 448:Drivers/STM32G4xx_HAL_Driver/Src/stm32g4xx_hal_dac_ex.c ****   assert_param(IS_DAC_CHANNEL(hdac->Instance, Channel));
 592              		.loc 1 448 3 view .LVU190
 449:Drivers/STM32G4xx_HAL_Driver/Src/stm32g4xx_hal_dac_ex.c ****   assert_param(IS_DAC_LFSR_UNMASK_TRIANGLE_AMPLITUDE(Amplitude));
 593              		.loc 1 449 3 view .LVU191
ARM GAS  /tmp/ccrXORvc.s 			page 20


 450:Drivers/STM32G4xx_HAL_Driver/Src/stm32g4xx_hal_dac_ex.c **** 
 451:Drivers/STM32G4xx_HAL_Driver/Src/stm32g4xx_hal_dac_ex.c ****   /* Process locked */
 452:Drivers/STM32G4xx_HAL_Driver/Src/stm32g4xx_hal_dac_ex.c ****   __HAL_LOCK(hdac);
 594              		.loc 1 452 3 view .LVU192
 595              		.loc 1 452 3 view .LVU193
 446:Drivers/STM32G4xx_HAL_Driver/Src/stm32g4xx_hal_dac_ex.c ****   /* Check the parameters */
 596              		.loc 1 446 1 is_stmt 0 view .LVU194
 597 0000 30B5     		push	{r4, r5, lr}
 598              	.LCFI5:
 599              		.cfi_def_cfa_offset 12
 600              		.cfi_offset 4, -12
 601              		.cfi_offset 5, -8
 602              		.cfi_offset 14, -4
 603              		.loc 1 452 3 view .LVU195
 604 0002 4379     		ldrb	r3, [r0, #5]	@ zero_extendqisi2
 605 0004 012B     		cmp	r3, #1
 606 0006 4FF00203 		mov	r3, #2
 607 000a 12D0     		beq	.L49
 608              		.loc 1 452 3 is_stmt 1 discriminator 2 view .LVU196
 609              		.loc 1 452 3 discriminator 2 view .LVU197
 453:Drivers/STM32G4xx_HAL_Driver/Src/stm32g4xx_hal_dac_ex.c **** 
 454:Drivers/STM32G4xx_HAL_Driver/Src/stm32g4xx_hal_dac_ex.c ****   /* Change DAC state */
 455:Drivers/STM32G4xx_HAL_Driver/Src/stm32g4xx_hal_dac_ex.c ****   hdac->State = HAL_DAC_STATE_BUSY;
 610              		.loc 1 455 3 discriminator 2 view .LVU198
 456:Drivers/STM32G4xx_HAL_Driver/Src/stm32g4xx_hal_dac_ex.c **** 
 457:Drivers/STM32G4xx_HAL_Driver/Src/stm32g4xx_hal_dac_ex.c ****   /* Enable the noise wave generation for the selected DAC channel */
 458:Drivers/STM32G4xx_HAL_Driver/Src/stm32g4xx_hal_dac_ex.c ****   MODIFY_REG(hdac->Instance->CR, ((DAC_CR_WAVE1) | (DAC_CR_MAMP1)) << (Channel & 0x10UL), (DAC_CR_W
 611              		.loc 1 458 3 is_stmt 0 discriminator 2 view .LVU199
 612 000c 0568     		ldr	r5, [r0]
 455:Drivers/STM32G4xx_HAL_Driver/Src/stm32g4xx_hal_dac_ex.c **** 
 613              		.loc 1 455 15 discriminator 2 view .LVU200
 614 000e 0371     		strb	r3, [r0, #4]
 615              		.loc 1 458 3 is_stmt 1 discriminator 2 view .LVU201
 616 0010 2B68     		ldr	r3, [r5]
 617 0012 01F01001 		and	r1, r1, #16
 618              	.LVL40:
 619              		.loc 1 458 3 is_stmt 0 discriminator 2 view .LVU202
 620 0016 4FF47C64 		mov	r4, #4032
 621 001a 8C40     		lsls	r4, r4, r1
 622 001c 42F04002 		orr	r2, r2, #64
 623              	.LVL41:
 624              		.loc 1 458 3 discriminator 2 view .LVU203
 625 0020 23EA0403 		bic	r3, r3, r4
 626 0024 8A40     		lsls	r2, r2, r1
 627 0026 1A43     		orrs	r2, r2, r3
 459:Drivers/STM32G4xx_HAL_Driver/Src/stm32g4xx_hal_dac_ex.c **** 
 460:Drivers/STM32G4xx_HAL_Driver/Src/stm32g4xx_hal_dac_ex.c ****   /* Change DAC state */
 461:Drivers/STM32G4xx_HAL_Driver/Src/stm32g4xx_hal_dac_ex.c ****   hdac->State = HAL_DAC_STATE_READY;
 628              		.loc 1 461 15 discriminator 2 view .LVU204
 629 0028 0123     		movs	r3, #1
 458:Drivers/STM32G4xx_HAL_Driver/Src/stm32g4xx_hal_dac_ex.c **** 
 630              		.loc 1 458 3 discriminator 2 view .LVU205
 631 002a 2A60     		str	r2, [r5]
 632              		.loc 1 461 3 is_stmt 1 discriminator 2 view .LVU206
 633              		.loc 1 461 15 is_stmt 0 discriminator 2 view .LVU207
 634 002c 0371     		strb	r3, [r0, #4]
 462:Drivers/STM32G4xx_HAL_Driver/Src/stm32g4xx_hal_dac_ex.c **** 
ARM GAS  /tmp/ccrXORvc.s 			page 21


 463:Drivers/STM32G4xx_HAL_Driver/Src/stm32g4xx_hal_dac_ex.c ****   /* Process unlocked */
 464:Drivers/STM32G4xx_HAL_Driver/Src/stm32g4xx_hal_dac_ex.c ****   __HAL_UNLOCK(hdac);
 635              		.loc 1 464 3 is_stmt 1 discriminator 2 view .LVU208
 636              		.loc 1 464 3 discriminator 2 view .LVU209
 637 002e 0023     		movs	r3, #0
 638 0030 4371     		strb	r3, [r0, #5]
 639              		.loc 1 464 3 discriminator 2 view .LVU210
 465:Drivers/STM32G4xx_HAL_Driver/Src/stm32g4xx_hal_dac_ex.c **** 
 466:Drivers/STM32G4xx_HAL_Driver/Src/stm32g4xx_hal_dac_ex.c ****   /* Return function status */
 467:Drivers/STM32G4xx_HAL_Driver/Src/stm32g4xx_hal_dac_ex.c ****   return HAL_OK;
 640              		.loc 1 467 3 discriminator 2 view .LVU211
 641              	.L49:
 452:Drivers/STM32G4xx_HAL_Driver/Src/stm32g4xx_hal_dac_ex.c **** 
 642              		.loc 1 452 3 is_stmt 0 view .LVU212
 643 0032 1846     		mov	r0, r3
 644              	.LVL42:
 468:Drivers/STM32G4xx_HAL_Driver/Src/stm32g4xx_hal_dac_ex.c **** }
 645              		.loc 1 468 1 view .LVU213
 646 0034 30BD     		pop	{r4, r5, pc}
 647              		.cfi_endproc
 648              	.LFE362:
 650              		.section	.text.HAL_DACEx_SawtoothWaveGenerate,"ax",%progbits
 651              		.align	1
 652              		.global	HAL_DACEx_SawtoothWaveGenerate
 653              		.syntax unified
 654              		.thumb
 655              		.thumb_func
 656              		.fpu fpv4-sp-d16
 658              	HAL_DACEx_SawtoothWaveGenerate:
 659              	.LVL43:
 660              	.LFB363:
 469:Drivers/STM32G4xx_HAL_Driver/Src/stm32g4xx_hal_dac_ex.c **** 
 470:Drivers/STM32G4xx_HAL_Driver/Src/stm32g4xx_hal_dac_ex.c **** /**
 471:Drivers/STM32G4xx_HAL_Driver/Src/stm32g4xx_hal_dac_ex.c ****   * @brief  Enable or disable the selected DAC channel sawtooth wave generation.
 472:Drivers/STM32G4xx_HAL_Driver/Src/stm32g4xx_hal_dac_ex.c ****   * @param  hdac pointer to a DAC_HandleTypeDef structure that contains
 473:Drivers/STM32G4xx_HAL_Driver/Src/stm32g4xx_hal_dac_ex.c ****   *         the configuration information for the specified DAC.
 474:Drivers/STM32G4xx_HAL_Driver/Src/stm32g4xx_hal_dac_ex.c ****   * @param  Channel The selected DAC channel.
 475:Drivers/STM32G4xx_HAL_Driver/Src/stm32g4xx_hal_dac_ex.c ****   *          This parameter can be one of the following values:
 476:Drivers/STM32G4xx_HAL_Driver/Src/stm32g4xx_hal_dac_ex.c ****   *            @arg DAC_CHANNEL_1: DAC Channel1 selected
 477:Drivers/STM32G4xx_HAL_Driver/Src/stm32g4xx_hal_dac_ex.c ****   *            @arg DAC_CHANNEL_2: DAC Channel2 selected (1)
 478:Drivers/STM32G4xx_HAL_Driver/Src/stm32g4xx_hal_dac_ex.c ****   *
 479:Drivers/STM32G4xx_HAL_Driver/Src/stm32g4xx_hal_dac_ex.c ****   *         (1) On this STM32 serie, parameter not available on all instances.
 480:Drivers/STM32G4xx_HAL_Driver/Src/stm32g4xx_hal_dac_ex.c ****   *             Refer to device datasheet for channels availability.
 481:Drivers/STM32G4xx_HAL_Driver/Src/stm32g4xx_hal_dac_ex.c ****   * @param  Polarity polarity to be used for wave generation.
 482:Drivers/STM32G4xx_HAL_Driver/Src/stm32g4xx_hal_dac_ex.c ****   *          This parameter can be one of the following values:
 483:Drivers/STM32G4xx_HAL_Driver/Src/stm32g4xx_hal_dac_ex.c ****   *            @arg DAC_SAWTOOTH_POLARITY_DECREMENT
 484:Drivers/STM32G4xx_HAL_Driver/Src/stm32g4xx_hal_dac_ex.c ****   *            @arg DAC_SAWTOOTH_POLARITY_INCREMENT
 485:Drivers/STM32G4xx_HAL_Driver/Src/stm32g4xx_hal_dac_ex.c ****   * @param  ResetData Sawtooth wave reset value.
 486:Drivers/STM32G4xx_HAL_Driver/Src/stm32g4xx_hal_dac_ex.c ****   *          Range is from 0 to DAC full range 4095 (0xFFF)
 487:Drivers/STM32G4xx_HAL_Driver/Src/stm32g4xx_hal_dac_ex.c ****   * @param  StepData Sawtooth wave step value.
 488:Drivers/STM32G4xx_HAL_Driver/Src/stm32g4xx_hal_dac_ex.c ****   *          12.4 bit format, unsigned: 12 bits exponent / 4 bits mantissa
 489:Drivers/STM32G4xx_HAL_Driver/Src/stm32g4xx_hal_dac_ex.c ****   *          Step value step is 1/16 = 0.0625
 490:Drivers/STM32G4xx_HAL_Driver/Src/stm32g4xx_hal_dac_ex.c ****   *          Step value range is 0.0000 to 4095.9375 (0xFFF.F)
 491:Drivers/STM32G4xx_HAL_Driver/Src/stm32g4xx_hal_dac_ex.c ****   * @note    Sawtooth reset and step triggers are configured by calling @ref HAL_DAC_ConfigChannel
 492:Drivers/STM32G4xx_HAL_Driver/Src/stm32g4xx_hal_dac_ex.c ****   * @retval HAL status
 493:Drivers/STM32G4xx_HAL_Driver/Src/stm32g4xx_hal_dac_ex.c ****   */
 494:Drivers/STM32G4xx_HAL_Driver/Src/stm32g4xx_hal_dac_ex.c **** HAL_StatusTypeDef HAL_DACEx_SawtoothWaveGenerate(DAC_HandleTypeDef *hdac, uint32_t Channel, uint32_
ARM GAS  /tmp/ccrXORvc.s 			page 22


 495:Drivers/STM32G4xx_HAL_Driver/Src/stm32g4xx_hal_dac_ex.c ****                                                  uint32_t ResetData, uint32_t StepData)
 496:Drivers/STM32G4xx_HAL_Driver/Src/stm32g4xx_hal_dac_ex.c **** {
 661              		.loc 1 496 1 is_stmt 1 view -0
 662              		.cfi_startproc
 663              		@ args = 4, pretend = 0, frame = 0
 664              		@ frame_needed = 0, uses_anonymous_args = 0
 497:Drivers/STM32G4xx_HAL_Driver/Src/stm32g4xx_hal_dac_ex.c ****   /* Check the parameters */
 498:Drivers/STM32G4xx_HAL_Driver/Src/stm32g4xx_hal_dac_ex.c ****   assert_param(IS_DAC_CHANNEL(hdac->Instance, Channel));
 665              		.loc 1 498 3 view .LVU215
 499:Drivers/STM32G4xx_HAL_Driver/Src/stm32g4xx_hal_dac_ex.c ****   assert_param(IS_DAC_SAWTOOTH_POLARITY(Polarity));
 666              		.loc 1 499 3 view .LVU216
 500:Drivers/STM32G4xx_HAL_Driver/Src/stm32g4xx_hal_dac_ex.c ****   assert_param(IS_DAC_RESET_DATA(ResetData));
 667              		.loc 1 500 3 view .LVU217
 501:Drivers/STM32G4xx_HAL_Driver/Src/stm32g4xx_hal_dac_ex.c ****   assert_param(IS_DAC_STEP_DATA(StepData));
 668              		.loc 1 501 3 view .LVU218
 502:Drivers/STM32G4xx_HAL_Driver/Src/stm32g4xx_hal_dac_ex.c **** 
 503:Drivers/STM32G4xx_HAL_Driver/Src/stm32g4xx_hal_dac_ex.c ****   /* Process locked */
 504:Drivers/STM32G4xx_HAL_Driver/Src/stm32g4xx_hal_dac_ex.c ****   __HAL_LOCK(hdac);
 669              		.loc 1 504 3 view .LVU219
 670              		.loc 1 504 3 view .LVU220
 496:Drivers/STM32G4xx_HAL_Driver/Src/stm32g4xx_hal_dac_ex.c ****   /* Check the parameters */
 671              		.loc 1 496 1 is_stmt 0 view .LVU221
 672 0000 30B5     		push	{r4, r5, lr}
 673              	.LCFI6:
 674              		.cfi_def_cfa_offset 12
 675              		.cfi_offset 4, -12
 676              		.cfi_offset 5, -8
 677              		.cfi_offset 14, -4
 678              		.loc 1 504 3 view .LVU222
 679 0002 4479     		ldrb	r4, [r0, #5]	@ zero_extendqisi2
 680 0004 012C     		cmp	r4, #1
 681 0006 4FF00204 		mov	r4, #2
 682 000a 20D0     		beq	.L54
 683              		.loc 1 504 3 is_stmt 1 discriminator 2 view .LVU223
 684 000c 1343     		orrs	r3, r3, r2
 685              	.LVL44:
 686              		.loc 1 504 3 is_stmt 0 discriminator 2 view .LVU224
 687 000e 039A     		ldr	r2, [sp, #12]
 688              	.LVL45:
 505:Drivers/STM32G4xx_HAL_Driver/Src/stm32g4xx_hal_dac_ex.c **** 
 506:Drivers/STM32G4xx_HAL_Driver/Src/stm32g4xx_hal_dac_ex.c ****   /* Change DAC state */
 507:Drivers/STM32G4xx_HAL_Driver/Src/stm32g4xx_hal_dac_ex.c ****   hdac->State = HAL_DAC_STATE_BUSY;
 689              		.loc 1 507 15 discriminator 2 view .LVU225
 690 0010 0471     		strb	r4, [r0, #4]
 504:Drivers/STM32G4xx_HAL_Driver/Src/stm32g4xx_hal_dac_ex.c **** 
 691              		.loc 1 504 3 discriminator 2 view .LVU226
 692 0012 0125     		movs	r5, #1
 693 0014 0468     		ldr	r4, [r0]
 694 0016 4571     		strb	r5, [r0, #5]
 504:Drivers/STM32G4xx_HAL_Driver/Src/stm32g4xx_hal_dac_ex.c **** 
 695              		.loc 1 504 3 is_stmt 1 discriminator 2 view .LVU227
 696              		.loc 1 507 3 discriminator 2 view .LVU228
 508:Drivers/STM32G4xx_HAL_Driver/Src/stm32g4xx_hal_dac_ex.c **** 
 509:Drivers/STM32G4xx_HAL_Driver/Src/stm32g4xx_hal_dac_ex.c ****   if (Channel == DAC_CHANNEL_1)
 697              		.loc 1 509 3 discriminator 2 view .LVU229
 698 0018 43EA0243 		orr	r3, r3, r2, lsl #16
 699              		.loc 1 509 6 is_stmt 0 discriminator 2 view .LVU230
ARM GAS  /tmp/ccrXORvc.s 			page 23


 700 001c 89B9     		cbnz	r1, .L52
 510:Drivers/STM32G4xx_HAL_Driver/Src/stm32g4xx_hal_dac_ex.c ****   {
 511:Drivers/STM32G4xx_HAL_Driver/Src/stm32g4xx_hal_dac_ex.c ****     /* Configure the sawtooth wave generation data parameters */
 512:Drivers/STM32G4xx_HAL_Driver/Src/stm32g4xx_hal_dac_ex.c ****     MODIFY_REG(hdac->Instance->STR1,
 701              		.loc 1 512 5 is_stmt 1 view .LVU231
 702 001e A26D     		ldr	r2, [r4, #88]
 703 0020 02F46042 		and	r2, r2, #57344
 704 0024 1343     		orrs	r3, r3, r2
 705 0026 A365     		str	r3, [r4, #88]
 706              	.L53:
 513:Drivers/STM32G4xx_HAL_Driver/Src/stm32g4xx_hal_dac_ex.c ****                DAC_STR1_STINCDATA1 | DAC_STR1_STDIR1 | DAC_STR1_STRSTDATA1,
 514:Drivers/STM32G4xx_HAL_Driver/Src/stm32g4xx_hal_dac_ex.c ****                (StepData << DAC_STR1_STINCDATA1_Pos)
 515:Drivers/STM32G4xx_HAL_Driver/Src/stm32g4xx_hal_dac_ex.c ****                | Polarity
 516:Drivers/STM32G4xx_HAL_Driver/Src/stm32g4xx_hal_dac_ex.c ****                | (ResetData << DAC_STR1_STRSTDATA1_Pos));
 517:Drivers/STM32G4xx_HAL_Driver/Src/stm32g4xx_hal_dac_ex.c ****   }
 518:Drivers/STM32G4xx_HAL_Driver/Src/stm32g4xx_hal_dac_ex.c ****   else
 519:Drivers/STM32G4xx_HAL_Driver/Src/stm32g4xx_hal_dac_ex.c ****   {
 520:Drivers/STM32G4xx_HAL_Driver/Src/stm32g4xx_hal_dac_ex.c ****     /* Configure the sawtooth wave generation data parameters */
 521:Drivers/STM32G4xx_HAL_Driver/Src/stm32g4xx_hal_dac_ex.c ****     MODIFY_REG(hdac->Instance->STR2,
 522:Drivers/STM32G4xx_HAL_Driver/Src/stm32g4xx_hal_dac_ex.c ****                DAC_STR2_STINCDATA2 | DAC_STR2_STDIR2 | DAC_STR2_STRSTDATA2,
 523:Drivers/STM32G4xx_HAL_Driver/Src/stm32g4xx_hal_dac_ex.c ****                (StepData << DAC_STR2_STINCDATA2_Pos)
 524:Drivers/STM32G4xx_HAL_Driver/Src/stm32g4xx_hal_dac_ex.c ****                | Polarity
 525:Drivers/STM32G4xx_HAL_Driver/Src/stm32g4xx_hal_dac_ex.c ****                | (ResetData << DAC_STR2_STRSTDATA2_Pos));
 526:Drivers/STM32G4xx_HAL_Driver/Src/stm32g4xx_hal_dac_ex.c ****   }
 527:Drivers/STM32G4xx_HAL_Driver/Src/stm32g4xx_hal_dac_ex.c **** 
 528:Drivers/STM32G4xx_HAL_Driver/Src/stm32g4xx_hal_dac_ex.c ****   /* Enable the sawtooth wave generation for the selected DAC channel */
 529:Drivers/STM32G4xx_HAL_Driver/Src/stm32g4xx_hal_dac_ex.c ****   MODIFY_REG(hdac->Instance->CR, (DAC_CR_WAVE1) << (Channel & 0x10UL), (uint32_t)(DAC_CR_WAVE1_1 | 
 707              		.loc 1 529 3 view .LVU232
 708 0028 2268     		ldr	r2, [r4]
 709 002a 01F01003 		and	r3, r1, #16
 710 002e C021     		movs	r1, #192
 711              	.LVL46:
 712              		.loc 1 529 3 is_stmt 0 view .LVU233
 713 0030 9940     		lsls	r1, r1, r3
 714 0032 1143     		orrs	r1, r1, r2
 530:Drivers/STM32G4xx_HAL_Driver/Src/stm32g4xx_hal_dac_ex.c **** 
 531:Drivers/STM32G4xx_HAL_Driver/Src/stm32g4xx_hal_dac_ex.c ****   /* Change DAC state */
 532:Drivers/STM32G4xx_HAL_Driver/Src/stm32g4xx_hal_dac_ex.c ****   hdac->State = HAL_DAC_STATE_READY;
 715              		.loc 1 532 15 view .LVU234
 716 0034 0123     		movs	r3, #1
 529:Drivers/STM32G4xx_HAL_Driver/Src/stm32g4xx_hal_dac_ex.c **** 
 717              		.loc 1 529 3 view .LVU235
 718 0036 2160     		str	r1, [r4]
 719              		.loc 1 532 3 is_stmt 1 view .LVU236
 720              		.loc 1 532 15 is_stmt 0 view .LVU237
 721 0038 0371     		strb	r3, [r0, #4]
 533:Drivers/STM32G4xx_HAL_Driver/Src/stm32g4xx_hal_dac_ex.c **** 
 534:Drivers/STM32G4xx_HAL_Driver/Src/stm32g4xx_hal_dac_ex.c ****   /* Process unlocked */
 535:Drivers/STM32G4xx_HAL_Driver/Src/stm32g4xx_hal_dac_ex.c ****   __HAL_UNLOCK(hdac);
 722              		.loc 1 535 3 is_stmt 1 view .LVU238
 723              		.loc 1 535 3 view .LVU239
 724 003a 0023     		movs	r3, #0
 725 003c 4371     		strb	r3, [r0, #5]
 726              		.loc 1 535 3 view .LVU240
 536:Drivers/STM32G4xx_HAL_Driver/Src/stm32g4xx_hal_dac_ex.c **** 
 537:Drivers/STM32G4xx_HAL_Driver/Src/stm32g4xx_hal_dac_ex.c ****   /* Return function status */
 538:Drivers/STM32G4xx_HAL_Driver/Src/stm32g4xx_hal_dac_ex.c ****   return HAL_OK;
ARM GAS  /tmp/ccrXORvc.s 			page 24


 727              		.loc 1 538 3 view .LVU241
 728              		.loc 1 538 10 is_stmt 0 view .LVU242
 729 003e 1846     		mov	r0, r3
 730              	.LVL47:
 731              	.L51:
 539:Drivers/STM32G4xx_HAL_Driver/Src/stm32g4xx_hal_dac_ex.c **** }
 732              		.loc 1 539 1 view .LVU243
 733 0040 30BD     		pop	{r4, r5, pc}
 734              	.LVL48:
 735              	.L52:
 521:Drivers/STM32G4xx_HAL_Driver/Src/stm32g4xx_hal_dac_ex.c ****                DAC_STR2_STINCDATA2 | DAC_STR2_STDIR2 | DAC_STR2_STRSTDATA2,
 736              		.loc 1 521 5 is_stmt 1 view .LVU244
 737 0042 E26D     		ldr	r2, [r4, #92]
 738 0044 02F46042 		and	r2, r2, #57344
 739 0048 1343     		orrs	r3, r3, r2
 740 004a E365     		str	r3, [r4, #92]
 741 004c ECE7     		b	.L53
 742              	.LVL49:
 743              	.L54:
 504:Drivers/STM32G4xx_HAL_Driver/Src/stm32g4xx_hal_dac_ex.c **** 
 744              		.loc 1 504 3 is_stmt 0 view .LVU245
 745 004e 2046     		mov	r0, r4
 746              	.LVL50:
 504:Drivers/STM32G4xx_HAL_Driver/Src/stm32g4xx_hal_dac_ex.c **** 
 747              		.loc 1 504 3 view .LVU246
 748 0050 F6E7     		b	.L51
 749              		.cfi_endproc
 750              	.LFE363:
 752              		.section	.text.HAL_DACEx_SawtoothWaveDataReset,"ax",%progbits
 753              		.align	1
 754              		.global	HAL_DACEx_SawtoothWaveDataReset
 755              		.syntax unified
 756              		.thumb
 757              		.thumb_func
 758              		.fpu fpv4-sp-d16
 760              	HAL_DACEx_SawtoothWaveDataReset:
 761              	.LVL51:
 762              	.LFB364:
 540:Drivers/STM32G4xx_HAL_Driver/Src/stm32g4xx_hal_dac_ex.c **** 
 541:Drivers/STM32G4xx_HAL_Driver/Src/stm32g4xx_hal_dac_ex.c **** /**
 542:Drivers/STM32G4xx_HAL_Driver/Src/stm32g4xx_hal_dac_ex.c ****   * @brief  Trig sawtooth wave reset
 543:Drivers/STM32G4xx_HAL_Driver/Src/stm32g4xx_hal_dac_ex.c ****   * @note   This function allows to reset sawtooth wave in case of SW trigger
 544:Drivers/STM32G4xx_HAL_Driver/Src/stm32g4xx_hal_dac_ex.c ****   *         has been configured for this usage.
 545:Drivers/STM32G4xx_HAL_Driver/Src/stm32g4xx_hal_dac_ex.c ****   * @param  hdac pointer to a DAC_HandleTypeDef structure that contains
 546:Drivers/STM32G4xx_HAL_Driver/Src/stm32g4xx_hal_dac_ex.c ****   *         the configuration information for the specified DAC.
 547:Drivers/STM32G4xx_HAL_Driver/Src/stm32g4xx_hal_dac_ex.c ****   * @param  Channel The selected DAC channel.
 548:Drivers/STM32G4xx_HAL_Driver/Src/stm32g4xx_hal_dac_ex.c ****   *          This parameter can be one of the following values:
 549:Drivers/STM32G4xx_HAL_Driver/Src/stm32g4xx_hal_dac_ex.c ****   *            @arg DAC_CHANNEL_1: DAC Channel1 selected
 550:Drivers/STM32G4xx_HAL_Driver/Src/stm32g4xx_hal_dac_ex.c ****   *            @arg DAC_CHANNEL_2: DAC Channel2 selected (1)
 551:Drivers/STM32G4xx_HAL_Driver/Src/stm32g4xx_hal_dac_ex.c ****   *
 552:Drivers/STM32G4xx_HAL_Driver/Src/stm32g4xx_hal_dac_ex.c ****   *         (1) On this STM32 serie, parameter not available on all instances.
 553:Drivers/STM32G4xx_HAL_Driver/Src/stm32g4xx_hal_dac_ex.c ****   *             Refer to device datasheet for channels availability.
 554:Drivers/STM32G4xx_HAL_Driver/Src/stm32g4xx_hal_dac_ex.c ****   * @retval HAL status
 555:Drivers/STM32G4xx_HAL_Driver/Src/stm32g4xx_hal_dac_ex.c ****   */
 556:Drivers/STM32G4xx_HAL_Driver/Src/stm32g4xx_hal_dac_ex.c **** HAL_StatusTypeDef HAL_DACEx_SawtoothWaveDataReset(DAC_HandleTypeDef *hdac, uint32_t Channel)
 557:Drivers/STM32G4xx_HAL_Driver/Src/stm32g4xx_hal_dac_ex.c **** {
 763              		.loc 1 557 1 is_stmt 1 view -0
ARM GAS  /tmp/ccrXORvc.s 			page 25


 764              		.cfi_startproc
 765              		@ args = 0, pretend = 0, frame = 0
 766              		@ frame_needed = 0, uses_anonymous_args = 0
 558:Drivers/STM32G4xx_HAL_Driver/Src/stm32g4xx_hal_dac_ex.c ****   HAL_StatusTypeDef status = HAL_OK;
 767              		.loc 1 558 3 view .LVU248
 559:Drivers/STM32G4xx_HAL_Driver/Src/stm32g4xx_hal_dac_ex.c **** 
 560:Drivers/STM32G4xx_HAL_Driver/Src/stm32g4xx_hal_dac_ex.c ****   /* Check the parameters */
 561:Drivers/STM32G4xx_HAL_Driver/Src/stm32g4xx_hal_dac_ex.c ****   assert_param(IS_DAC_CHANNEL(hdac->Instance, Channel));
 768              		.loc 1 561 3 view .LVU249
 562:Drivers/STM32G4xx_HAL_Driver/Src/stm32g4xx_hal_dac_ex.c **** 
 563:Drivers/STM32G4xx_HAL_Driver/Src/stm32g4xx_hal_dac_ex.c ****   /* Process locked */
 564:Drivers/STM32G4xx_HAL_Driver/Src/stm32g4xx_hal_dac_ex.c ****   __HAL_LOCK(hdac);
 769              		.loc 1 564 3 view .LVU250
 770              		.loc 1 564 3 view .LVU251
 557:Drivers/STM32G4xx_HAL_Driver/Src/stm32g4xx_hal_dac_ex.c ****   HAL_StatusTypeDef status = HAL_OK;
 771              		.loc 1 557 1 is_stmt 0 view .LVU252
 772 0000 30B5     		push	{r4, r5, lr}
 773              	.LCFI7:
 774              		.cfi_def_cfa_offset 12
 775              		.cfi_offset 4, -12
 776              		.cfi_offset 5, -8
 777              		.cfi_offset 14, -4
 778              		.loc 1 564 3 view .LVU253
 779 0002 4279     		ldrb	r2, [r0, #5]	@ zero_extendqisi2
 780 0004 012A     		cmp	r2, #1
 557:Drivers/STM32G4xx_HAL_Driver/Src/stm32g4xx_hal_dac_ex.c ****   HAL_StatusTypeDef status = HAL_OK;
 781              		.loc 1 557 1 view .LVU254
 782 0006 0346     		mov	r3, r0
 783              		.loc 1 564 3 view .LVU255
 784 0008 19D0     		beq	.L60
 785              		.loc 1 564 3 is_stmt 1 discriminator 2 view .LVU256
 565:Drivers/STM32G4xx_HAL_Driver/Src/stm32g4xx_hal_dac_ex.c **** 
 566:Drivers/STM32G4xx_HAL_Driver/Src/stm32g4xx_hal_dac_ex.c ****   if (((hdac->Instance->STMODR >> (Channel & 0x10UL)) & DAC_STMODR_STRSTTRIGSEL1) == 0U /* SW TRIGG
 786              		.loc 1 566 13 is_stmt 0 discriminator 2 view .LVU257
 787 000a 1A68     		ldr	r2, [r3]
 564:Drivers/STM32G4xx_HAL_Driver/Src/stm32g4xx_hal_dac_ex.c **** 
 788              		.loc 1 564 3 discriminator 2 view .LVU258
 789 000c 0120     		movs	r0, #1
 790              	.LVL52:
 564:Drivers/STM32G4xx_HAL_Driver/Src/stm32g4xx_hal_dac_ex.c **** 
 791              		.loc 1 564 3 discriminator 2 view .LVU259
 792 000e 5871     		strb	r0, [r3, #5]
 564:Drivers/STM32G4xx_HAL_Driver/Src/stm32g4xx_hal_dac_ex.c **** 
 793              		.loc 1 564 3 is_stmt 1 discriminator 2 view .LVU260
 794              		.loc 1 566 3 discriminator 2 view .LVU261
 795              		.loc 1 566 23 is_stmt 0 discriminator 2 view .LVU262
 796 0010 146E     		ldr	r4, [r2, #96]
 797              		.loc 1 566 44 discriminator 2 view .LVU263
 798 0012 01F01005 		and	r5, r1, #16
 799              		.loc 1 566 32 discriminator 2 view .LVU264
 800 0016 EC40     		lsrs	r4, r4, r5
 801              		.loc 1 566 6 discriminator 2 view .LVU265
 802 0018 2407     		lsls	r4, r4, #28
 803 001a 09D1     		bne	.L57
 567:Drivers/STM32G4xx_HAL_Driver/Src/stm32g4xx_hal_dac_ex.c ****   {
 568:Drivers/STM32G4xx_HAL_Driver/Src/stm32g4xx_hal_dac_ex.c ****     /* Change DAC state */
 569:Drivers/STM32G4xx_HAL_Driver/Src/stm32g4xx_hal_dac_ex.c ****     hdac->State = HAL_DAC_STATE_BUSY;
ARM GAS  /tmp/ccrXORvc.s 			page 26


 804              		.loc 1 569 5 is_stmt 1 view .LVU266
 805              		.loc 1 569 17 is_stmt 0 view .LVU267
 806 001c 0220     		movs	r0, #2
 807 001e 1871     		strb	r0, [r3, #4]
 570:Drivers/STM32G4xx_HAL_Driver/Src/stm32g4xx_hal_dac_ex.c **** 
 571:Drivers/STM32G4xx_HAL_Driver/Src/stm32g4xx_hal_dac_ex.c ****     if (Channel == DAC_CHANNEL_1)
 808              		.loc 1 571 5 is_stmt 1 view .LVU268
 809              		.loc 1 571 8 is_stmt 0 view .LVU269
 810 0020 49B9     		cbnz	r1, .L58
 572:Drivers/STM32G4xx_HAL_Driver/Src/stm32g4xx_hal_dac_ex.c ****     {
 573:Drivers/STM32G4xx_HAL_Driver/Src/stm32g4xx_hal_dac_ex.c ****       /* Enable the selected DAC software conversion */
 574:Drivers/STM32G4xx_HAL_Driver/Src/stm32g4xx_hal_dac_ex.c ****       SET_BIT(hdac->Instance->SWTRIGR, DAC_SWTRIGR_SWTRIG1);
 811              		.loc 1 574 7 is_stmt 1 view .LVU270
 812 0022 5168     		ldr	r1, [r2, #4]
 813              	.LVL53:
 814              		.loc 1 574 7 is_stmt 0 view .LVU271
 815 0024 41F00101 		orr	r1, r1, #1
 816              	.L62:
 575:Drivers/STM32G4xx_HAL_Driver/Src/stm32g4xx_hal_dac_ex.c ****     }
 576:Drivers/STM32G4xx_HAL_Driver/Src/stm32g4xx_hal_dac_ex.c ****     else
 577:Drivers/STM32G4xx_HAL_Driver/Src/stm32g4xx_hal_dac_ex.c ****     {
 578:Drivers/STM32G4xx_HAL_Driver/Src/stm32g4xx_hal_dac_ex.c ****       /* Enable the selected DAC software conversion */
 579:Drivers/STM32G4xx_HAL_Driver/Src/stm32g4xx_hal_dac_ex.c ****       SET_BIT(hdac->Instance->SWTRIGR, DAC_SWTRIGR_SWTRIG2);
 817              		.loc 1 579 7 view .LVU272
 818 0028 5160     		str	r1, [r2, #4]
 580:Drivers/STM32G4xx_HAL_Driver/Src/stm32g4xx_hal_dac_ex.c ****     }
 581:Drivers/STM32G4xx_HAL_Driver/Src/stm32g4xx_hal_dac_ex.c **** 
 582:Drivers/STM32G4xx_HAL_Driver/Src/stm32g4xx_hal_dac_ex.c ****     /* Change DAC state */
 583:Drivers/STM32G4xx_HAL_Driver/Src/stm32g4xx_hal_dac_ex.c ****     hdac->State = HAL_DAC_STATE_READY;
 819              		.loc 1 583 5 is_stmt 1 view .LVU273
 820              		.loc 1 583 17 is_stmt 0 view .LVU274
 821 002a 0122     		movs	r2, #1
 822 002c 1A71     		strb	r2, [r3, #4]
 558:Drivers/STM32G4xx_HAL_Driver/Src/stm32g4xx_hal_dac_ex.c **** 
 823              		.loc 1 558 21 view .LVU275
 824 002e 0020     		movs	r0, #0
 825              	.L57:
 826              	.LVL54:
 584:Drivers/STM32G4xx_HAL_Driver/Src/stm32g4xx_hal_dac_ex.c ****   }
 585:Drivers/STM32G4xx_HAL_Driver/Src/stm32g4xx_hal_dac_ex.c ****   else
 586:Drivers/STM32G4xx_HAL_Driver/Src/stm32g4xx_hal_dac_ex.c ****   {
 587:Drivers/STM32G4xx_HAL_Driver/Src/stm32g4xx_hal_dac_ex.c ****     status = HAL_ERROR;
 588:Drivers/STM32G4xx_HAL_Driver/Src/stm32g4xx_hal_dac_ex.c ****   }
 589:Drivers/STM32G4xx_HAL_Driver/Src/stm32g4xx_hal_dac_ex.c **** 
 590:Drivers/STM32G4xx_HAL_Driver/Src/stm32g4xx_hal_dac_ex.c ****   /* Process unlocked */
 591:Drivers/STM32G4xx_HAL_Driver/Src/stm32g4xx_hal_dac_ex.c ****   __HAL_UNLOCK(hdac);
 827              		.loc 1 591 3 is_stmt 1 view .LVU276
 828              		.loc 1 591 3 view .LVU277
 829 0030 0022     		movs	r2, #0
 830 0032 5A71     		strb	r2, [r3, #5]
 831              		.loc 1 591 3 view .LVU278
 592:Drivers/STM32G4xx_HAL_Driver/Src/stm32g4xx_hal_dac_ex.c **** 
 593:Drivers/STM32G4xx_HAL_Driver/Src/stm32g4xx_hal_dac_ex.c ****   /* Return function status */
 594:Drivers/STM32G4xx_HAL_Driver/Src/stm32g4xx_hal_dac_ex.c ****   return status;
 832              		.loc 1 594 3 view .LVU279
 833              	.LVL55:
 834              	.L56:
ARM GAS  /tmp/ccrXORvc.s 			page 27


 595:Drivers/STM32G4xx_HAL_Driver/Src/stm32g4xx_hal_dac_ex.c **** }
 835              		.loc 1 595 1 is_stmt 0 view .LVU280
 836 0034 30BD     		pop	{r4, r5, pc}
 837              	.LVL56:
 838              	.L58:
 579:Drivers/STM32G4xx_HAL_Driver/Src/stm32g4xx_hal_dac_ex.c ****     }
 839              		.loc 1 579 7 is_stmt 1 view .LVU281
 840 0036 5168     		ldr	r1, [r2, #4]
 841              	.LVL57:
 579:Drivers/STM32G4xx_HAL_Driver/Src/stm32g4xx_hal_dac_ex.c ****     }
 842              		.loc 1 579 7 is_stmt 0 view .LVU282
 843 0038 41F00201 		orr	r1, r1, #2
 844 003c F4E7     		b	.L62
 845              	.LVL58:
 846              	.L60:
 564:Drivers/STM32G4xx_HAL_Driver/Src/stm32g4xx_hal_dac_ex.c **** 
 847              		.loc 1 564 3 view .LVU283
 848 003e 0220     		movs	r0, #2
 849              	.LVL59:
 564:Drivers/STM32G4xx_HAL_Driver/Src/stm32g4xx_hal_dac_ex.c **** 
 850              		.loc 1 564 3 view .LVU284
 851 0040 F8E7     		b	.L56
 852              		.cfi_endproc
 853              	.LFE364:
 855              		.section	.text.HAL_DACEx_SawtoothWaveDataStep,"ax",%progbits
 856              		.align	1
 857              		.global	HAL_DACEx_SawtoothWaveDataStep
 858              		.syntax unified
 859              		.thumb
 860              		.thumb_func
 861              		.fpu fpv4-sp-d16
 863              	HAL_DACEx_SawtoothWaveDataStep:
 864              	.LVL60:
 865              	.LFB365:
 596:Drivers/STM32G4xx_HAL_Driver/Src/stm32g4xx_hal_dac_ex.c **** 
 597:Drivers/STM32G4xx_HAL_Driver/Src/stm32g4xx_hal_dac_ex.c **** /**
 598:Drivers/STM32G4xx_HAL_Driver/Src/stm32g4xx_hal_dac_ex.c ****   * @brief  Trig sawtooth wave step
 599:Drivers/STM32G4xx_HAL_Driver/Src/stm32g4xx_hal_dac_ex.c ****   * @note   This function allows to generate step  in sawtooth wave in case of
 600:Drivers/STM32G4xx_HAL_Driver/Src/stm32g4xx_hal_dac_ex.c ****   *         SW trigger has been configured for this usage.
 601:Drivers/STM32G4xx_HAL_Driver/Src/stm32g4xx_hal_dac_ex.c ****   * @param  hdac pointer to a DAC_HandleTypeDef structure that contains
 602:Drivers/STM32G4xx_HAL_Driver/Src/stm32g4xx_hal_dac_ex.c ****   *         the configuration information for the specified DAC.
 603:Drivers/STM32G4xx_HAL_Driver/Src/stm32g4xx_hal_dac_ex.c ****   * @param  Channel The selected DAC channel.
 604:Drivers/STM32G4xx_HAL_Driver/Src/stm32g4xx_hal_dac_ex.c ****   *          This parameter can be one of the following values:
 605:Drivers/STM32G4xx_HAL_Driver/Src/stm32g4xx_hal_dac_ex.c ****   *            @arg DAC_CHANNEL_1: DAC Channel1 selected
 606:Drivers/STM32G4xx_HAL_Driver/Src/stm32g4xx_hal_dac_ex.c ****   *            @arg DAC_CHANNEL_2: DAC Channel2 selected (1)
 607:Drivers/STM32G4xx_HAL_Driver/Src/stm32g4xx_hal_dac_ex.c ****   *
 608:Drivers/STM32G4xx_HAL_Driver/Src/stm32g4xx_hal_dac_ex.c ****   *         (1) On this STM32 serie, parameter not available on all instances.
 609:Drivers/STM32G4xx_HAL_Driver/Src/stm32g4xx_hal_dac_ex.c ****   *             Refer to device datasheet for channels availability.
 610:Drivers/STM32G4xx_HAL_Driver/Src/stm32g4xx_hal_dac_ex.c ****   * @retval HAL status
 611:Drivers/STM32G4xx_HAL_Driver/Src/stm32g4xx_hal_dac_ex.c ****   */
 612:Drivers/STM32G4xx_HAL_Driver/Src/stm32g4xx_hal_dac_ex.c **** HAL_StatusTypeDef HAL_DACEx_SawtoothWaveDataStep(DAC_HandleTypeDef *hdac, uint32_t Channel)
 613:Drivers/STM32G4xx_HAL_Driver/Src/stm32g4xx_hal_dac_ex.c **** {
 866              		.loc 1 613 1 is_stmt 1 view -0
 867              		.cfi_startproc
 868              		@ args = 0, pretend = 0, frame = 0
 869              		@ frame_needed = 0, uses_anonymous_args = 0
 614:Drivers/STM32G4xx_HAL_Driver/Src/stm32g4xx_hal_dac_ex.c ****   HAL_StatusTypeDef status = HAL_OK;
ARM GAS  /tmp/ccrXORvc.s 			page 28


 870              		.loc 1 614 3 view .LVU286
 615:Drivers/STM32G4xx_HAL_Driver/Src/stm32g4xx_hal_dac_ex.c **** 
 616:Drivers/STM32G4xx_HAL_Driver/Src/stm32g4xx_hal_dac_ex.c ****   /* Check the parameters */
 617:Drivers/STM32G4xx_HAL_Driver/Src/stm32g4xx_hal_dac_ex.c ****   assert_param(IS_DAC_CHANNEL(hdac->Instance, Channel));
 871              		.loc 1 617 3 view .LVU287
 618:Drivers/STM32G4xx_HAL_Driver/Src/stm32g4xx_hal_dac_ex.c **** 
 619:Drivers/STM32G4xx_HAL_Driver/Src/stm32g4xx_hal_dac_ex.c ****   /* Process locked */
 620:Drivers/STM32G4xx_HAL_Driver/Src/stm32g4xx_hal_dac_ex.c ****   __HAL_LOCK(hdac);
 872              		.loc 1 620 3 view .LVU288
 873              		.loc 1 620 3 view .LVU289
 613:Drivers/STM32G4xx_HAL_Driver/Src/stm32g4xx_hal_dac_ex.c ****   HAL_StatusTypeDef status = HAL_OK;
 874              		.loc 1 613 1 is_stmt 0 view .LVU290
 875 0000 30B5     		push	{r4, r5, lr}
 876              	.LCFI8:
 877              		.cfi_def_cfa_offset 12
 878              		.cfi_offset 4, -12
 879              		.cfi_offset 5, -8
 880              		.cfi_offset 14, -4
 881              		.loc 1 620 3 view .LVU291
 882 0002 4279     		ldrb	r2, [r0, #5]	@ zero_extendqisi2
 883 0004 012A     		cmp	r2, #1
 613:Drivers/STM32G4xx_HAL_Driver/Src/stm32g4xx_hal_dac_ex.c ****   HAL_StatusTypeDef status = HAL_OK;
 884              		.loc 1 613 1 view .LVU292
 885 0006 0346     		mov	r3, r0
 886              		.loc 1 620 3 view .LVU293
 887 0008 1AD0     		beq	.L68
 888              		.loc 1 620 3 is_stmt 1 discriminator 2 view .LVU294
 621:Drivers/STM32G4xx_HAL_Driver/Src/stm32g4xx_hal_dac_ex.c **** 
 622:Drivers/STM32G4xx_HAL_Driver/Src/stm32g4xx_hal_dac_ex.c ****   if (((hdac->Instance->STMODR >> (Channel & 0x10UL)) & DAC_STMODR_STINCTRIGSEL1) == 0U /* SW TRIGG
 889              		.loc 1 622 13 is_stmt 0 discriminator 2 view .LVU295
 890 000a 1A68     		ldr	r2, [r3]
 620:Drivers/STM32G4xx_HAL_Driver/Src/stm32g4xx_hal_dac_ex.c **** 
 891              		.loc 1 620 3 discriminator 2 view .LVU296
 892 000c 0120     		movs	r0, #1
 893              	.LVL61:
 620:Drivers/STM32G4xx_HAL_Driver/Src/stm32g4xx_hal_dac_ex.c **** 
 894              		.loc 1 620 3 discriminator 2 view .LVU297
 895 000e 5871     		strb	r0, [r3, #5]
 620:Drivers/STM32G4xx_HAL_Driver/Src/stm32g4xx_hal_dac_ex.c **** 
 896              		.loc 1 620 3 is_stmt 1 discriminator 2 view .LVU298
 897              		.loc 1 622 3 discriminator 2 view .LVU299
 898              		.loc 1 622 23 is_stmt 0 discriminator 2 view .LVU300
 899 0010 146E     		ldr	r4, [r2, #96]
 900              		.loc 1 622 44 discriminator 2 view .LVU301
 901 0012 01F01005 		and	r5, r1, #16
 902              		.loc 1 622 32 discriminator 2 view .LVU302
 903 0016 EC40     		lsrs	r4, r4, r5
 904              		.loc 1 622 6 discriminator 2 view .LVU303
 905 0018 14F4706F 		tst	r4, #3840
 906 001c 09D1     		bne	.L65
 623:Drivers/STM32G4xx_HAL_Driver/Src/stm32g4xx_hal_dac_ex.c ****   {
 624:Drivers/STM32G4xx_HAL_Driver/Src/stm32g4xx_hal_dac_ex.c ****     /* Change DAC state */
 625:Drivers/STM32G4xx_HAL_Driver/Src/stm32g4xx_hal_dac_ex.c ****     hdac->State = HAL_DAC_STATE_BUSY;
 907              		.loc 1 625 5 is_stmt 1 view .LVU304
 908              		.loc 1 625 17 is_stmt 0 view .LVU305
 909 001e 0220     		movs	r0, #2
 910 0020 1871     		strb	r0, [r3, #4]
ARM GAS  /tmp/ccrXORvc.s 			page 29


 626:Drivers/STM32G4xx_HAL_Driver/Src/stm32g4xx_hal_dac_ex.c **** 
 627:Drivers/STM32G4xx_HAL_Driver/Src/stm32g4xx_hal_dac_ex.c ****     if (Channel == DAC_CHANNEL_1)
 911              		.loc 1 627 5 is_stmt 1 view .LVU306
 912              		.loc 1 627 8 is_stmt 0 view .LVU307
 913 0022 49B9     		cbnz	r1, .L66
 628:Drivers/STM32G4xx_HAL_Driver/Src/stm32g4xx_hal_dac_ex.c ****     {
 629:Drivers/STM32G4xx_HAL_Driver/Src/stm32g4xx_hal_dac_ex.c ****       /* Enable the selected DAC software conversion */
 630:Drivers/STM32G4xx_HAL_Driver/Src/stm32g4xx_hal_dac_ex.c ****       SET_BIT(hdac->Instance->SWTRIGR, DAC_SWTRIGR_SWTRIGB1);
 914              		.loc 1 630 7 is_stmt 1 view .LVU308
 915 0024 5168     		ldr	r1, [r2, #4]
 916              	.LVL62:
 917              		.loc 1 630 7 is_stmt 0 view .LVU309
 918 0026 41F48031 		orr	r1, r1, #65536
 919              	.L70:
 631:Drivers/STM32G4xx_HAL_Driver/Src/stm32g4xx_hal_dac_ex.c ****     }
 632:Drivers/STM32G4xx_HAL_Driver/Src/stm32g4xx_hal_dac_ex.c ****     else
 633:Drivers/STM32G4xx_HAL_Driver/Src/stm32g4xx_hal_dac_ex.c ****     {
 634:Drivers/STM32G4xx_HAL_Driver/Src/stm32g4xx_hal_dac_ex.c ****       /* Enable the selected DAC software conversion */
 635:Drivers/STM32G4xx_HAL_Driver/Src/stm32g4xx_hal_dac_ex.c ****       SET_BIT(hdac->Instance->SWTRIGR, DAC_SWTRIGR_SWTRIGB2);
 920              		.loc 1 635 7 view .LVU310
 921 002a 5160     		str	r1, [r2, #4]
 636:Drivers/STM32G4xx_HAL_Driver/Src/stm32g4xx_hal_dac_ex.c ****     }
 637:Drivers/STM32G4xx_HAL_Driver/Src/stm32g4xx_hal_dac_ex.c **** 
 638:Drivers/STM32G4xx_HAL_Driver/Src/stm32g4xx_hal_dac_ex.c ****     /* Change DAC state */
 639:Drivers/STM32G4xx_HAL_Driver/Src/stm32g4xx_hal_dac_ex.c ****     hdac->State = HAL_DAC_STATE_READY;
 922              		.loc 1 639 5 is_stmt 1 view .LVU311
 923              		.loc 1 639 17 is_stmt 0 view .LVU312
 924 002c 0122     		movs	r2, #1
 925 002e 1A71     		strb	r2, [r3, #4]
 614:Drivers/STM32G4xx_HAL_Driver/Src/stm32g4xx_hal_dac_ex.c **** 
 926              		.loc 1 614 21 view .LVU313
 927 0030 0020     		movs	r0, #0
 928              	.L65:
 929              	.LVL63:
 640:Drivers/STM32G4xx_HAL_Driver/Src/stm32g4xx_hal_dac_ex.c ****   }
 641:Drivers/STM32G4xx_HAL_Driver/Src/stm32g4xx_hal_dac_ex.c ****   else
 642:Drivers/STM32G4xx_HAL_Driver/Src/stm32g4xx_hal_dac_ex.c ****   {
 643:Drivers/STM32G4xx_HAL_Driver/Src/stm32g4xx_hal_dac_ex.c ****     status = HAL_ERROR;
 644:Drivers/STM32G4xx_HAL_Driver/Src/stm32g4xx_hal_dac_ex.c ****   }
 645:Drivers/STM32G4xx_HAL_Driver/Src/stm32g4xx_hal_dac_ex.c **** 
 646:Drivers/STM32G4xx_HAL_Driver/Src/stm32g4xx_hal_dac_ex.c ****   /* Process unlocked */
 647:Drivers/STM32G4xx_HAL_Driver/Src/stm32g4xx_hal_dac_ex.c ****   __HAL_UNLOCK(hdac);
 930              		.loc 1 647 3 is_stmt 1 view .LVU314
 931              		.loc 1 647 3 view .LVU315
 932 0032 0022     		movs	r2, #0
 933 0034 5A71     		strb	r2, [r3, #5]
 934              		.loc 1 647 3 view .LVU316
 648:Drivers/STM32G4xx_HAL_Driver/Src/stm32g4xx_hal_dac_ex.c **** 
 649:Drivers/STM32G4xx_HAL_Driver/Src/stm32g4xx_hal_dac_ex.c ****   /* Return function status */
 650:Drivers/STM32G4xx_HAL_Driver/Src/stm32g4xx_hal_dac_ex.c ****   return status;
 935              		.loc 1 650 3 view .LVU317
 936              	.LVL64:
 937              	.L64:
 651:Drivers/STM32G4xx_HAL_Driver/Src/stm32g4xx_hal_dac_ex.c **** }
 938              		.loc 1 651 1 is_stmt 0 view .LVU318
 939 0036 30BD     		pop	{r4, r5, pc}
 940              	.LVL65:
ARM GAS  /tmp/ccrXORvc.s 			page 30


 941              	.L66:
 635:Drivers/STM32G4xx_HAL_Driver/Src/stm32g4xx_hal_dac_ex.c ****     }
 942              		.loc 1 635 7 is_stmt 1 view .LVU319
 943 0038 5168     		ldr	r1, [r2, #4]
 944              	.LVL66:
 635:Drivers/STM32G4xx_HAL_Driver/Src/stm32g4xx_hal_dac_ex.c ****     }
 945              		.loc 1 635 7 is_stmt 0 view .LVU320
 946 003a 41F40031 		orr	r1, r1, #131072
 947 003e F4E7     		b	.L70
 948              	.LVL67:
 949              	.L68:
 620:Drivers/STM32G4xx_HAL_Driver/Src/stm32g4xx_hal_dac_ex.c **** 
 950              		.loc 1 620 3 view .LVU321
 951 0040 0220     		movs	r0, #2
 952              	.LVL68:
 620:Drivers/STM32G4xx_HAL_Driver/Src/stm32g4xx_hal_dac_ex.c **** 
 953              		.loc 1 620 3 view .LVU322
 954 0042 F8E7     		b	.L64
 955              		.cfi_endproc
 956              	.LFE365:
 958              		.section	.text.HAL_DACEx_DualSetValue,"ax",%progbits
 959              		.align	1
 960              		.global	HAL_DACEx_DualSetValue
 961              		.syntax unified
 962              		.thumb
 963              		.thumb_func
 964              		.fpu fpv4-sp-d16
 966              	HAL_DACEx_DualSetValue:
 967              	.LVL69:
 968              	.LFB366:
 652:Drivers/STM32G4xx_HAL_Driver/Src/stm32g4xx_hal_dac_ex.c **** 
 653:Drivers/STM32G4xx_HAL_Driver/Src/stm32g4xx_hal_dac_ex.c **** /**
 654:Drivers/STM32G4xx_HAL_Driver/Src/stm32g4xx_hal_dac_ex.c ****   * @brief  Set the specified data holding register value for dual DAC channel.
 655:Drivers/STM32G4xx_HAL_Driver/Src/stm32g4xx_hal_dac_ex.c ****   * @param  hdac pointer to a DAC_HandleTypeDef structure that contains
 656:Drivers/STM32G4xx_HAL_Driver/Src/stm32g4xx_hal_dac_ex.c ****   *               the configuration information for the specified DAC.
 657:Drivers/STM32G4xx_HAL_Driver/Src/stm32g4xx_hal_dac_ex.c ****   * @param  Alignment Specifies the data alignment for dual channel DAC.
 658:Drivers/STM32G4xx_HAL_Driver/Src/stm32g4xx_hal_dac_ex.c ****   *          This parameter can be one of the following values:
 659:Drivers/STM32G4xx_HAL_Driver/Src/stm32g4xx_hal_dac_ex.c ****   *            DAC_ALIGN_8B_R: 8bit right data alignment selected
 660:Drivers/STM32G4xx_HAL_Driver/Src/stm32g4xx_hal_dac_ex.c ****   *            DAC_ALIGN_12B_L: 12bit left data alignment selected
 661:Drivers/STM32G4xx_HAL_Driver/Src/stm32g4xx_hal_dac_ex.c ****   *            DAC_ALIGN_12B_R: 12bit right data alignment selected
 662:Drivers/STM32G4xx_HAL_Driver/Src/stm32g4xx_hal_dac_ex.c ****   * @param  Data1 Data for DAC Channel1 to be loaded in the selected data holding register.
 663:Drivers/STM32G4xx_HAL_Driver/Src/stm32g4xx_hal_dac_ex.c ****   * @param  Data2 Data for DAC Channel2 to be loaded in the selected data  holding register.
 664:Drivers/STM32G4xx_HAL_Driver/Src/stm32g4xx_hal_dac_ex.c ****   * @note   In dual mode, a unique register access is required to write in both
 665:Drivers/STM32G4xx_HAL_Driver/Src/stm32g4xx_hal_dac_ex.c ****   *          DAC channels at the same time.
 666:Drivers/STM32G4xx_HAL_Driver/Src/stm32g4xx_hal_dac_ex.c ****   * @retval HAL status
 667:Drivers/STM32G4xx_HAL_Driver/Src/stm32g4xx_hal_dac_ex.c ****   */
 668:Drivers/STM32G4xx_HAL_Driver/Src/stm32g4xx_hal_dac_ex.c **** HAL_StatusTypeDef HAL_DACEx_DualSetValue(DAC_HandleTypeDef *hdac, uint32_t Alignment, uint32_t Data
 669:Drivers/STM32G4xx_HAL_Driver/Src/stm32g4xx_hal_dac_ex.c **** {
 969              		.loc 1 669 1 is_stmt 1 view -0
 970              		.cfi_startproc
 971              		@ args = 0, pretend = 0, frame = 0
 972              		@ frame_needed = 0, uses_anonymous_args = 0
 973              		@ link register save eliminated.
 670:Drivers/STM32G4xx_HAL_Driver/Src/stm32g4xx_hal_dac_ex.c ****   uint32_t data;
 974              		.loc 1 670 3 view .LVU324
 671:Drivers/STM32G4xx_HAL_Driver/Src/stm32g4xx_hal_dac_ex.c ****   uint32_t tmp;
 975              		.loc 1 671 3 view .LVU325
ARM GAS  /tmp/ccrXORvc.s 			page 31


 672:Drivers/STM32G4xx_HAL_Driver/Src/stm32g4xx_hal_dac_ex.c **** 
 673:Drivers/STM32G4xx_HAL_Driver/Src/stm32g4xx_hal_dac_ex.c ****   /* Check the parameters */
 674:Drivers/STM32G4xx_HAL_Driver/Src/stm32g4xx_hal_dac_ex.c ****   assert_param(IS_DAC_ALIGN(Alignment));
 976              		.loc 1 674 3 view .LVU326
 675:Drivers/STM32G4xx_HAL_Driver/Src/stm32g4xx_hal_dac_ex.c ****   assert_param(IS_DAC_DATA(Data1));
 977              		.loc 1 675 3 view .LVU327
 676:Drivers/STM32G4xx_HAL_Driver/Src/stm32g4xx_hal_dac_ex.c ****   assert_param(IS_DAC_DATA(Data2));
 978              		.loc 1 676 3 view .LVU328
 677:Drivers/STM32G4xx_HAL_Driver/Src/stm32g4xx_hal_dac_ex.c **** 
 678:Drivers/STM32G4xx_HAL_Driver/Src/stm32g4xx_hal_dac_ex.c ****   /* Calculate and set dual DAC data holding register value */
 679:Drivers/STM32G4xx_HAL_Driver/Src/stm32g4xx_hal_dac_ex.c ****   if (Alignment == DAC_ALIGN_8B_R)
 979              		.loc 1 679 3 view .LVU329
 980              		.loc 1 679 6 is_stmt 0 view .LVU330
 981 0000 0829     		cmp	r1, #8
 680:Drivers/STM32G4xx_HAL_Driver/Src/stm32g4xx_hal_dac_ex.c ****   {
 681:Drivers/STM32G4xx_HAL_Driver/Src/stm32g4xx_hal_dac_ex.c ****     data = ((uint32_t)Data2 << 8U) | Data1;
 982              		.loc 1 681 5 is_stmt 1 view .LVU331
 983              		.loc 1 681 10 is_stmt 0 view .LVU332
 984 0002 0CBF     		ite	eq
 985 0004 42EA0323 		orreq	r3, r2, r3, lsl #8
 986              	.LVL70:
 682:Drivers/STM32G4xx_HAL_Driver/Src/stm32g4xx_hal_dac_ex.c ****   }
 683:Drivers/STM32G4xx_HAL_Driver/Src/stm32g4xx_hal_dac_ex.c ****   else
 684:Drivers/STM32G4xx_HAL_Driver/Src/stm32g4xx_hal_dac_ex.c ****   {
 685:Drivers/STM32G4xx_HAL_Driver/Src/stm32g4xx_hal_dac_ex.c ****     data = ((uint32_t)Data2 << 16U) | Data1;
 987              		.loc 1 685 5 is_stmt 1 view .LVU333
 988              		.loc 1 685 10 is_stmt 0 view .LVU334
 989 0008 42EA0343 		orrne	r3, r2, r3, lsl #16
 990              	.LVL71:
 686:Drivers/STM32G4xx_HAL_Driver/Src/stm32g4xx_hal_dac_ex.c ****   }
 687:Drivers/STM32G4xx_HAL_Driver/Src/stm32g4xx_hal_dac_ex.c **** 
 688:Drivers/STM32G4xx_HAL_Driver/Src/stm32g4xx_hal_dac_ex.c ****   tmp = (uint32_t)hdac->Instance;
 991              		.loc 1 688 3 is_stmt 1 view .LVU335
 689:Drivers/STM32G4xx_HAL_Driver/Src/stm32g4xx_hal_dac_ex.c ****   tmp += DAC_DHR12RD_ALIGNMENT(Alignment);
 992              		.loc 1 689 3 view .LVU336
 993 000c 0268     		ldr	r2, [r0]
 994              	.LVL72:
 995              		.loc 1 689 3 is_stmt 0 view .LVU337
 996 000e 2032     		adds	r2, r2, #32
 997              	.LVL73:
 690:Drivers/STM32G4xx_HAL_Driver/Src/stm32g4xx_hal_dac_ex.c **** 
 691:Drivers/STM32G4xx_HAL_Driver/Src/stm32g4xx_hal_dac_ex.c ****   /* Set the dual DAC selected data holding register */
 692:Drivers/STM32G4xx_HAL_Driver/Src/stm32g4xx_hal_dac_ex.c ****   *(__IO uint32_t *)tmp = data;
 998              		.loc 1 692 3 is_stmt 1 view .LVU338
 693:Drivers/STM32G4xx_HAL_Driver/Src/stm32g4xx_hal_dac_ex.c **** 
 694:Drivers/STM32G4xx_HAL_Driver/Src/stm32g4xx_hal_dac_ex.c ****   /* Return function status */
 695:Drivers/STM32G4xx_HAL_Driver/Src/stm32g4xx_hal_dac_ex.c ****   return HAL_OK;
 696:Drivers/STM32G4xx_HAL_Driver/Src/stm32g4xx_hal_dac_ex.c **** }
 999              		.loc 1 696 1 is_stmt 0 view .LVU339
 1000 0010 0020     		movs	r0, #0
 1001              	.LVL74:
 692:Drivers/STM32G4xx_HAL_Driver/Src/stm32g4xx_hal_dac_ex.c **** 
 1002              		.loc 1 692 25 view .LVU340
 1003 0012 8B50     		str	r3, [r1, r2]
 695:Drivers/STM32G4xx_HAL_Driver/Src/stm32g4xx_hal_dac_ex.c **** }
 1004              		.loc 1 695 3 is_stmt 1 view .LVU341
 1005              		.loc 1 696 1 is_stmt 0 view .LVU342
ARM GAS  /tmp/ccrXORvc.s 			page 32


 1006 0014 7047     		bx	lr
 1007              		.cfi_endproc
 1008              	.LFE366:
 1010              		.section	.text.HAL_DACEx_ConvCpltCallbackCh2,"ax",%progbits
 1011              		.align	1
 1012              		.weak	HAL_DACEx_ConvCpltCallbackCh2
 1013              		.syntax unified
 1014              		.thumb
 1015              		.thumb_func
 1016              		.fpu fpv4-sp-d16
 1018              	HAL_DACEx_ConvCpltCallbackCh2:
 1019              	.LVL75:
 1020              	.LFB367:
 697:Drivers/STM32G4xx_HAL_Driver/Src/stm32g4xx_hal_dac_ex.c **** 
 698:Drivers/STM32G4xx_HAL_Driver/Src/stm32g4xx_hal_dac_ex.c **** /**
 699:Drivers/STM32G4xx_HAL_Driver/Src/stm32g4xx_hal_dac_ex.c ****   * @brief  Conversion complete callback in non-blocking mode for Channel2.
 700:Drivers/STM32G4xx_HAL_Driver/Src/stm32g4xx_hal_dac_ex.c ****   * @param  hdac pointer to a DAC_HandleTypeDef structure that contains
 701:Drivers/STM32G4xx_HAL_Driver/Src/stm32g4xx_hal_dac_ex.c ****   *         the configuration information for the specified DAC.
 702:Drivers/STM32G4xx_HAL_Driver/Src/stm32g4xx_hal_dac_ex.c ****   * @retval None
 703:Drivers/STM32G4xx_HAL_Driver/Src/stm32g4xx_hal_dac_ex.c ****   */
 704:Drivers/STM32G4xx_HAL_Driver/Src/stm32g4xx_hal_dac_ex.c **** __weak void HAL_DACEx_ConvCpltCallbackCh2(DAC_HandleTypeDef *hdac)
 705:Drivers/STM32G4xx_HAL_Driver/Src/stm32g4xx_hal_dac_ex.c **** {
 1021              		.loc 1 705 1 is_stmt 1 view -0
 1022              		.cfi_startproc
 1023              		@ args = 0, pretend = 0, frame = 0
 1024              		@ frame_needed = 0, uses_anonymous_args = 0
 1025              		@ link register save eliminated.
 706:Drivers/STM32G4xx_HAL_Driver/Src/stm32g4xx_hal_dac_ex.c ****   /* Prevent unused argument(s) compilation warning */
 707:Drivers/STM32G4xx_HAL_Driver/Src/stm32g4xx_hal_dac_ex.c ****   UNUSED(hdac);
 1026              		.loc 1 707 3 view .LVU344
 708:Drivers/STM32G4xx_HAL_Driver/Src/stm32g4xx_hal_dac_ex.c **** 
 709:Drivers/STM32G4xx_HAL_Driver/Src/stm32g4xx_hal_dac_ex.c ****   /* NOTE : This function should not be modified, when the callback is needed,
 710:Drivers/STM32G4xx_HAL_Driver/Src/stm32g4xx_hal_dac_ex.c ****             the HAL_DACEx_ConvCpltCallbackCh2 could be implemented in the user file
 711:Drivers/STM32G4xx_HAL_Driver/Src/stm32g4xx_hal_dac_ex.c ****    */
 712:Drivers/STM32G4xx_HAL_Driver/Src/stm32g4xx_hal_dac_ex.c **** }
 1027              		.loc 1 712 1 is_stmt 0 view .LVU345
 1028 0000 7047     		bx	lr
 1029              		.cfi_endproc
 1030              	.LFE367:
 1032              		.section	.text.DAC_DMAConvCpltCh2,"ax",%progbits
 1033              		.align	1
 1034              		.global	DAC_DMAConvCpltCh2
 1035              		.syntax unified
 1036              		.thumb
 1037              		.thumb_func
 1038              		.fpu fpv4-sp-d16
 1040              	DAC_DMAConvCpltCh2:
 1041              	.LVL76:
 1042              	.LFB375:
 713:Drivers/STM32G4xx_HAL_Driver/Src/stm32g4xx_hal_dac_ex.c **** 
 714:Drivers/STM32G4xx_HAL_Driver/Src/stm32g4xx_hal_dac_ex.c **** /**
 715:Drivers/STM32G4xx_HAL_Driver/Src/stm32g4xx_hal_dac_ex.c ****   * @brief  Conversion half DMA transfer callback in non-blocking mode for Channel2.
 716:Drivers/STM32G4xx_HAL_Driver/Src/stm32g4xx_hal_dac_ex.c ****   * @param  hdac pointer to a DAC_HandleTypeDef structure that contains
 717:Drivers/STM32G4xx_HAL_Driver/Src/stm32g4xx_hal_dac_ex.c ****   *         the configuration information for the specified DAC.
 718:Drivers/STM32G4xx_HAL_Driver/Src/stm32g4xx_hal_dac_ex.c ****   * @retval None
 719:Drivers/STM32G4xx_HAL_Driver/Src/stm32g4xx_hal_dac_ex.c ****   */
 720:Drivers/STM32G4xx_HAL_Driver/Src/stm32g4xx_hal_dac_ex.c **** __weak void HAL_DACEx_ConvHalfCpltCallbackCh2(DAC_HandleTypeDef *hdac)
ARM GAS  /tmp/ccrXORvc.s 			page 33


 721:Drivers/STM32G4xx_HAL_Driver/Src/stm32g4xx_hal_dac_ex.c **** {
 722:Drivers/STM32G4xx_HAL_Driver/Src/stm32g4xx_hal_dac_ex.c ****   /* Prevent unused argument(s) compilation warning */
 723:Drivers/STM32G4xx_HAL_Driver/Src/stm32g4xx_hal_dac_ex.c ****   UNUSED(hdac);
 724:Drivers/STM32G4xx_HAL_Driver/Src/stm32g4xx_hal_dac_ex.c **** 
 725:Drivers/STM32G4xx_HAL_Driver/Src/stm32g4xx_hal_dac_ex.c ****   /* NOTE : This function should not be modified, when the callback is needed,
 726:Drivers/STM32G4xx_HAL_Driver/Src/stm32g4xx_hal_dac_ex.c ****             the HAL_DACEx_ConvHalfCpltCallbackCh2 could be implemented in the user file
 727:Drivers/STM32G4xx_HAL_Driver/Src/stm32g4xx_hal_dac_ex.c ****    */
 728:Drivers/STM32G4xx_HAL_Driver/Src/stm32g4xx_hal_dac_ex.c **** }
 729:Drivers/STM32G4xx_HAL_Driver/Src/stm32g4xx_hal_dac_ex.c **** 
 730:Drivers/STM32G4xx_HAL_Driver/Src/stm32g4xx_hal_dac_ex.c **** /**
 731:Drivers/STM32G4xx_HAL_Driver/Src/stm32g4xx_hal_dac_ex.c ****   * @brief  Error DAC callback for Channel2.
 732:Drivers/STM32G4xx_HAL_Driver/Src/stm32g4xx_hal_dac_ex.c ****   * @param  hdac pointer to a DAC_HandleTypeDef structure that contains
 733:Drivers/STM32G4xx_HAL_Driver/Src/stm32g4xx_hal_dac_ex.c ****   *         the configuration information for the specified DAC.
 734:Drivers/STM32G4xx_HAL_Driver/Src/stm32g4xx_hal_dac_ex.c ****   * @retval None
 735:Drivers/STM32G4xx_HAL_Driver/Src/stm32g4xx_hal_dac_ex.c ****   */
 736:Drivers/STM32G4xx_HAL_Driver/Src/stm32g4xx_hal_dac_ex.c **** __weak void HAL_DACEx_ErrorCallbackCh2(DAC_HandleTypeDef *hdac)
 737:Drivers/STM32G4xx_HAL_Driver/Src/stm32g4xx_hal_dac_ex.c **** {
 738:Drivers/STM32G4xx_HAL_Driver/Src/stm32g4xx_hal_dac_ex.c ****   /* Prevent unused argument(s) compilation warning */
 739:Drivers/STM32G4xx_HAL_Driver/Src/stm32g4xx_hal_dac_ex.c ****   UNUSED(hdac);
 740:Drivers/STM32G4xx_HAL_Driver/Src/stm32g4xx_hal_dac_ex.c **** 
 741:Drivers/STM32G4xx_HAL_Driver/Src/stm32g4xx_hal_dac_ex.c ****   /* NOTE : This function should not be modified, when the callback is needed,
 742:Drivers/STM32G4xx_HAL_Driver/Src/stm32g4xx_hal_dac_ex.c ****             the HAL_DACEx_ErrorCallbackCh2 could be implemented in the user file
 743:Drivers/STM32G4xx_HAL_Driver/Src/stm32g4xx_hal_dac_ex.c ****    */
 744:Drivers/STM32G4xx_HAL_Driver/Src/stm32g4xx_hal_dac_ex.c **** }
 745:Drivers/STM32G4xx_HAL_Driver/Src/stm32g4xx_hal_dac_ex.c **** 
 746:Drivers/STM32G4xx_HAL_Driver/Src/stm32g4xx_hal_dac_ex.c **** /**
 747:Drivers/STM32G4xx_HAL_Driver/Src/stm32g4xx_hal_dac_ex.c ****   * @brief  DMA underrun DAC callback for Channel2.
 748:Drivers/STM32G4xx_HAL_Driver/Src/stm32g4xx_hal_dac_ex.c ****   * @param  hdac pointer to a DAC_HandleTypeDef structure that contains
 749:Drivers/STM32G4xx_HAL_Driver/Src/stm32g4xx_hal_dac_ex.c ****   *         the configuration information for the specified DAC.
 750:Drivers/STM32G4xx_HAL_Driver/Src/stm32g4xx_hal_dac_ex.c ****   * @retval None
 751:Drivers/STM32G4xx_HAL_Driver/Src/stm32g4xx_hal_dac_ex.c ****   */
 752:Drivers/STM32G4xx_HAL_Driver/Src/stm32g4xx_hal_dac_ex.c **** __weak void HAL_DACEx_DMAUnderrunCallbackCh2(DAC_HandleTypeDef *hdac)
 753:Drivers/STM32G4xx_HAL_Driver/Src/stm32g4xx_hal_dac_ex.c **** {
 754:Drivers/STM32G4xx_HAL_Driver/Src/stm32g4xx_hal_dac_ex.c ****   /* Prevent unused argument(s) compilation warning */
 755:Drivers/STM32G4xx_HAL_Driver/Src/stm32g4xx_hal_dac_ex.c ****   UNUSED(hdac);
 756:Drivers/STM32G4xx_HAL_Driver/Src/stm32g4xx_hal_dac_ex.c **** 
 757:Drivers/STM32G4xx_HAL_Driver/Src/stm32g4xx_hal_dac_ex.c ****   /* NOTE : This function should not be modified, when the callback is needed,
 758:Drivers/STM32G4xx_HAL_Driver/Src/stm32g4xx_hal_dac_ex.c ****             the HAL_DACEx_DMAUnderrunCallbackCh2 could be implemented in the user file
 759:Drivers/STM32G4xx_HAL_Driver/Src/stm32g4xx_hal_dac_ex.c ****    */
 760:Drivers/STM32G4xx_HAL_Driver/Src/stm32g4xx_hal_dac_ex.c **** }
 761:Drivers/STM32G4xx_HAL_Driver/Src/stm32g4xx_hal_dac_ex.c **** 
 762:Drivers/STM32G4xx_HAL_Driver/Src/stm32g4xx_hal_dac_ex.c **** /**
 763:Drivers/STM32G4xx_HAL_Driver/Src/stm32g4xx_hal_dac_ex.c ****   * @brief  Run the self calibration of one DAC channel.
 764:Drivers/STM32G4xx_HAL_Driver/Src/stm32g4xx_hal_dac_ex.c ****   * @param  hdac pointer to a DAC_HandleTypeDef structure that contains
 765:Drivers/STM32G4xx_HAL_Driver/Src/stm32g4xx_hal_dac_ex.c ****   *         the configuration information for the specified DAC.
 766:Drivers/STM32G4xx_HAL_Driver/Src/stm32g4xx_hal_dac_ex.c ****   * @param  sConfig DAC channel configuration structure.
 767:Drivers/STM32G4xx_HAL_Driver/Src/stm32g4xx_hal_dac_ex.c ****   * @param  Channel The selected DAC channel.
 768:Drivers/STM32G4xx_HAL_Driver/Src/stm32g4xx_hal_dac_ex.c ****   *          This parameter can be one of the following values:
 769:Drivers/STM32G4xx_HAL_Driver/Src/stm32g4xx_hal_dac_ex.c ****   *            @arg DAC_CHANNEL_1: DAC Channel1 selected
 770:Drivers/STM32G4xx_HAL_Driver/Src/stm32g4xx_hal_dac_ex.c ****   *            @arg DAC_CHANNEL_2: DAC Channel2 selected (1)
 771:Drivers/STM32G4xx_HAL_Driver/Src/stm32g4xx_hal_dac_ex.c ****   *
 772:Drivers/STM32G4xx_HAL_Driver/Src/stm32g4xx_hal_dac_ex.c ****   *         (1) On this STM32 serie, parameter not available on all instances.
 773:Drivers/STM32G4xx_HAL_Driver/Src/stm32g4xx_hal_dac_ex.c ****   *             Refer to device datasheet for channels availability.
 774:Drivers/STM32G4xx_HAL_Driver/Src/stm32g4xx_hal_dac_ex.c ****   * @retval Updates DAC_TrimmingValue. , DAC_UserTrimming set to DAC_UserTrimming
 775:Drivers/STM32G4xx_HAL_Driver/Src/stm32g4xx_hal_dac_ex.c ****   * @retval HAL status
 776:Drivers/STM32G4xx_HAL_Driver/Src/stm32g4xx_hal_dac_ex.c ****   * @note   Calibration runs about 7 ms.
 777:Drivers/STM32G4xx_HAL_Driver/Src/stm32g4xx_hal_dac_ex.c ****   */
ARM GAS  /tmp/ccrXORvc.s 			page 34


 778:Drivers/STM32G4xx_HAL_Driver/Src/stm32g4xx_hal_dac_ex.c **** 
 779:Drivers/STM32G4xx_HAL_Driver/Src/stm32g4xx_hal_dac_ex.c **** HAL_StatusTypeDef HAL_DACEx_SelfCalibrate(DAC_HandleTypeDef *hdac, DAC_ChannelConfTypeDef *sConfig,
 780:Drivers/STM32G4xx_HAL_Driver/Src/stm32g4xx_hal_dac_ex.c **** {
 781:Drivers/STM32G4xx_HAL_Driver/Src/stm32g4xx_hal_dac_ex.c ****   HAL_StatusTypeDef status = HAL_OK;
 782:Drivers/STM32G4xx_HAL_Driver/Src/stm32g4xx_hal_dac_ex.c **** 
 783:Drivers/STM32G4xx_HAL_Driver/Src/stm32g4xx_hal_dac_ex.c ****   __IO uint32_t tmp;
 784:Drivers/STM32G4xx_HAL_Driver/Src/stm32g4xx_hal_dac_ex.c ****   uint32_t trimmingvalue;
 785:Drivers/STM32G4xx_HAL_Driver/Src/stm32g4xx_hal_dac_ex.c ****   uint32_t delta;
 786:Drivers/STM32G4xx_HAL_Driver/Src/stm32g4xx_hal_dac_ex.c **** 
 787:Drivers/STM32G4xx_HAL_Driver/Src/stm32g4xx_hal_dac_ex.c ****   /* store/restore channel configuration structure purpose */
 788:Drivers/STM32G4xx_HAL_Driver/Src/stm32g4xx_hal_dac_ex.c ****   uint32_t oldmodeconfiguration;
 789:Drivers/STM32G4xx_HAL_Driver/Src/stm32g4xx_hal_dac_ex.c **** 
 790:Drivers/STM32G4xx_HAL_Driver/Src/stm32g4xx_hal_dac_ex.c ****   /* Check the parameters */
 791:Drivers/STM32G4xx_HAL_Driver/Src/stm32g4xx_hal_dac_ex.c ****   assert_param(IS_DAC_CHANNEL(hdac->Instance, Channel));
 792:Drivers/STM32G4xx_HAL_Driver/Src/stm32g4xx_hal_dac_ex.c **** 
 793:Drivers/STM32G4xx_HAL_Driver/Src/stm32g4xx_hal_dac_ex.c ****   /* Check the DAC handle allocation */
 794:Drivers/STM32G4xx_HAL_Driver/Src/stm32g4xx_hal_dac_ex.c ****   /* Check if DAC running */
 795:Drivers/STM32G4xx_HAL_Driver/Src/stm32g4xx_hal_dac_ex.c ****   if (hdac == NULL)
 796:Drivers/STM32G4xx_HAL_Driver/Src/stm32g4xx_hal_dac_ex.c ****   {
 797:Drivers/STM32G4xx_HAL_Driver/Src/stm32g4xx_hal_dac_ex.c ****     status = HAL_ERROR;
 798:Drivers/STM32G4xx_HAL_Driver/Src/stm32g4xx_hal_dac_ex.c ****   }
 799:Drivers/STM32G4xx_HAL_Driver/Src/stm32g4xx_hal_dac_ex.c ****   else if (hdac->State == HAL_DAC_STATE_BUSY)
 800:Drivers/STM32G4xx_HAL_Driver/Src/stm32g4xx_hal_dac_ex.c ****   {
 801:Drivers/STM32G4xx_HAL_Driver/Src/stm32g4xx_hal_dac_ex.c ****     status = HAL_ERROR;
 802:Drivers/STM32G4xx_HAL_Driver/Src/stm32g4xx_hal_dac_ex.c ****   }
 803:Drivers/STM32G4xx_HAL_Driver/Src/stm32g4xx_hal_dac_ex.c ****   else
 804:Drivers/STM32G4xx_HAL_Driver/Src/stm32g4xx_hal_dac_ex.c ****   {
 805:Drivers/STM32G4xx_HAL_Driver/Src/stm32g4xx_hal_dac_ex.c ****     /* Process locked */
 806:Drivers/STM32G4xx_HAL_Driver/Src/stm32g4xx_hal_dac_ex.c ****     __HAL_LOCK(hdac);
 807:Drivers/STM32G4xx_HAL_Driver/Src/stm32g4xx_hal_dac_ex.c **** 
 808:Drivers/STM32G4xx_HAL_Driver/Src/stm32g4xx_hal_dac_ex.c ****     /* Store configuration */
 809:Drivers/STM32G4xx_HAL_Driver/Src/stm32g4xx_hal_dac_ex.c ****     oldmodeconfiguration = (hdac->Instance->MCR & (DAC_MCR_MODE1 << (Channel & 0x10UL)));
 810:Drivers/STM32G4xx_HAL_Driver/Src/stm32g4xx_hal_dac_ex.c **** 
 811:Drivers/STM32G4xx_HAL_Driver/Src/stm32g4xx_hal_dac_ex.c ****     /* Disable the selected DAC channel */
 812:Drivers/STM32G4xx_HAL_Driver/Src/stm32g4xx_hal_dac_ex.c ****     CLEAR_BIT((hdac->Instance->CR), (DAC_CR_EN1 << (Channel & 0x10UL)));
 813:Drivers/STM32G4xx_HAL_Driver/Src/stm32g4xx_hal_dac_ex.c ****     /* Wait for ready bit to be de-asserted */
 814:Drivers/STM32G4xx_HAL_Driver/Src/stm32g4xx_hal_dac_ex.c ****     HAL_Delay(1);
 815:Drivers/STM32G4xx_HAL_Driver/Src/stm32g4xx_hal_dac_ex.c **** 
 816:Drivers/STM32G4xx_HAL_Driver/Src/stm32g4xx_hal_dac_ex.c ****     /* Set mode in MCR  for calibration */
 817:Drivers/STM32G4xx_HAL_Driver/Src/stm32g4xx_hal_dac_ex.c ****     MODIFY_REG(hdac->Instance->MCR, (DAC_MCR_MODE1 << (Channel & 0x10UL)), 0U);
 818:Drivers/STM32G4xx_HAL_Driver/Src/stm32g4xx_hal_dac_ex.c **** 
 819:Drivers/STM32G4xx_HAL_Driver/Src/stm32g4xx_hal_dac_ex.c ****     /* Set DAC Channel1 DHR register to the middle value */
 820:Drivers/STM32G4xx_HAL_Driver/Src/stm32g4xx_hal_dac_ex.c ****     tmp = (uint32_t)hdac->Instance;
 821:Drivers/STM32G4xx_HAL_Driver/Src/stm32g4xx_hal_dac_ex.c **** 
 822:Drivers/STM32G4xx_HAL_Driver/Src/stm32g4xx_hal_dac_ex.c ****     if (Channel == DAC_CHANNEL_1)
 823:Drivers/STM32G4xx_HAL_Driver/Src/stm32g4xx_hal_dac_ex.c ****     {
 824:Drivers/STM32G4xx_HAL_Driver/Src/stm32g4xx_hal_dac_ex.c ****       tmp += DAC_DHR12R1_ALIGNMENT(DAC_ALIGN_12B_R);
 825:Drivers/STM32G4xx_HAL_Driver/Src/stm32g4xx_hal_dac_ex.c ****     }
 826:Drivers/STM32G4xx_HAL_Driver/Src/stm32g4xx_hal_dac_ex.c ****     else
 827:Drivers/STM32G4xx_HAL_Driver/Src/stm32g4xx_hal_dac_ex.c ****     {
 828:Drivers/STM32G4xx_HAL_Driver/Src/stm32g4xx_hal_dac_ex.c ****       tmp += DAC_DHR12R2_ALIGNMENT(DAC_ALIGN_12B_R);
 829:Drivers/STM32G4xx_HAL_Driver/Src/stm32g4xx_hal_dac_ex.c ****     }
 830:Drivers/STM32G4xx_HAL_Driver/Src/stm32g4xx_hal_dac_ex.c **** 
 831:Drivers/STM32G4xx_HAL_Driver/Src/stm32g4xx_hal_dac_ex.c ****     *(__IO uint32_t *) tmp = 0x0800U;
 832:Drivers/STM32G4xx_HAL_Driver/Src/stm32g4xx_hal_dac_ex.c **** 
 833:Drivers/STM32G4xx_HAL_Driver/Src/stm32g4xx_hal_dac_ex.c ****     /* Enable the selected DAC channel calibration */
 834:Drivers/STM32G4xx_HAL_Driver/Src/stm32g4xx_hal_dac_ex.c ****     /* i.e. set DAC_CR_CENx bit */
ARM GAS  /tmp/ccrXORvc.s 			page 35


 835:Drivers/STM32G4xx_HAL_Driver/Src/stm32g4xx_hal_dac_ex.c ****     SET_BIT((hdac->Instance->CR), (DAC_CR_CEN1 << (Channel & 0x10UL)));
 836:Drivers/STM32G4xx_HAL_Driver/Src/stm32g4xx_hal_dac_ex.c **** 
 837:Drivers/STM32G4xx_HAL_Driver/Src/stm32g4xx_hal_dac_ex.c ****     /* Init trimming counter */
 838:Drivers/STM32G4xx_HAL_Driver/Src/stm32g4xx_hal_dac_ex.c ****     /* Medium value */
 839:Drivers/STM32G4xx_HAL_Driver/Src/stm32g4xx_hal_dac_ex.c ****     trimmingvalue = 16U;
 840:Drivers/STM32G4xx_HAL_Driver/Src/stm32g4xx_hal_dac_ex.c ****     delta = 8U;
 841:Drivers/STM32G4xx_HAL_Driver/Src/stm32g4xx_hal_dac_ex.c ****     while (delta != 0U)
 842:Drivers/STM32G4xx_HAL_Driver/Src/stm32g4xx_hal_dac_ex.c ****     {
 843:Drivers/STM32G4xx_HAL_Driver/Src/stm32g4xx_hal_dac_ex.c ****       /* Set candidate trimming */
 844:Drivers/STM32G4xx_HAL_Driver/Src/stm32g4xx_hal_dac_ex.c ****       MODIFY_REG(hdac->Instance->CCR, (DAC_CCR_OTRIM1 << (Channel & 0x10UL)), (trimmingvalue << (Ch
 845:Drivers/STM32G4xx_HAL_Driver/Src/stm32g4xx_hal_dac_ex.c **** 
 846:Drivers/STM32G4xx_HAL_Driver/Src/stm32g4xx_hal_dac_ex.c ****       /* tOFFTRIMmax delay x ms as per datasheet (electrical characteristics */
 847:Drivers/STM32G4xx_HAL_Driver/Src/stm32g4xx_hal_dac_ex.c ****       /* i.e. minimum time needed between two calibration steps */
 848:Drivers/STM32G4xx_HAL_Driver/Src/stm32g4xx_hal_dac_ex.c ****       HAL_Delay(1);
 849:Drivers/STM32G4xx_HAL_Driver/Src/stm32g4xx_hal_dac_ex.c **** 
 850:Drivers/STM32G4xx_HAL_Driver/Src/stm32g4xx_hal_dac_ex.c ****       if ((hdac->Instance->SR & (DAC_SR_CAL_FLAG1 << (Channel & 0x10UL))) == (DAC_SR_CAL_FLAG1 << (
 851:Drivers/STM32G4xx_HAL_Driver/Src/stm32g4xx_hal_dac_ex.c ****       {
 852:Drivers/STM32G4xx_HAL_Driver/Src/stm32g4xx_hal_dac_ex.c ****         /* DAC_SR_CAL_FLAGx is HIGH try higher trimming */
 853:Drivers/STM32G4xx_HAL_Driver/Src/stm32g4xx_hal_dac_ex.c ****         trimmingvalue -= delta;
 854:Drivers/STM32G4xx_HAL_Driver/Src/stm32g4xx_hal_dac_ex.c ****       }
 855:Drivers/STM32G4xx_HAL_Driver/Src/stm32g4xx_hal_dac_ex.c ****       else
 856:Drivers/STM32G4xx_HAL_Driver/Src/stm32g4xx_hal_dac_ex.c ****       {
 857:Drivers/STM32G4xx_HAL_Driver/Src/stm32g4xx_hal_dac_ex.c ****         /* DAC_SR_CAL_FLAGx is LOW try lower trimming */
 858:Drivers/STM32G4xx_HAL_Driver/Src/stm32g4xx_hal_dac_ex.c ****         trimmingvalue += delta;
 859:Drivers/STM32G4xx_HAL_Driver/Src/stm32g4xx_hal_dac_ex.c ****       }
 860:Drivers/STM32G4xx_HAL_Driver/Src/stm32g4xx_hal_dac_ex.c ****       delta >>= 1U;
 861:Drivers/STM32G4xx_HAL_Driver/Src/stm32g4xx_hal_dac_ex.c ****     }
 862:Drivers/STM32G4xx_HAL_Driver/Src/stm32g4xx_hal_dac_ex.c **** 
 863:Drivers/STM32G4xx_HAL_Driver/Src/stm32g4xx_hal_dac_ex.c ****     /* Still need to check if right calibration is current value or one step below */
 864:Drivers/STM32G4xx_HAL_Driver/Src/stm32g4xx_hal_dac_ex.c ****     /* Indeed the first value that causes the DAC_SR_CAL_FLAGx bit to change from 0 to 1  */
 865:Drivers/STM32G4xx_HAL_Driver/Src/stm32g4xx_hal_dac_ex.c ****     /* Set candidate trimming */
 866:Drivers/STM32G4xx_HAL_Driver/Src/stm32g4xx_hal_dac_ex.c ****     MODIFY_REG(hdac->Instance->CCR, (DAC_CCR_OTRIM1 << (Channel & 0x10UL)), (trimmingvalue << (Chan
 867:Drivers/STM32G4xx_HAL_Driver/Src/stm32g4xx_hal_dac_ex.c **** 
 868:Drivers/STM32G4xx_HAL_Driver/Src/stm32g4xx_hal_dac_ex.c ****     /* tOFFTRIMmax delay x ms as per datasheet (electrical characteristics */
 869:Drivers/STM32G4xx_HAL_Driver/Src/stm32g4xx_hal_dac_ex.c ****     /* i.e. minimum time needed between two calibration steps */
 870:Drivers/STM32G4xx_HAL_Driver/Src/stm32g4xx_hal_dac_ex.c ****     HAL_Delay(1U);
 871:Drivers/STM32G4xx_HAL_Driver/Src/stm32g4xx_hal_dac_ex.c **** 
 872:Drivers/STM32G4xx_HAL_Driver/Src/stm32g4xx_hal_dac_ex.c ****     if ((hdac->Instance->SR & (DAC_SR_CAL_FLAG1 << (Channel & 0x10UL))) == 0UL)
 873:Drivers/STM32G4xx_HAL_Driver/Src/stm32g4xx_hal_dac_ex.c ****     {
 874:Drivers/STM32G4xx_HAL_Driver/Src/stm32g4xx_hal_dac_ex.c ****       /* OPAMP_CSR_OUTCAL is actually one value more */
 875:Drivers/STM32G4xx_HAL_Driver/Src/stm32g4xx_hal_dac_ex.c ****       trimmingvalue++;
 876:Drivers/STM32G4xx_HAL_Driver/Src/stm32g4xx_hal_dac_ex.c ****       /* Set right trimming */
 877:Drivers/STM32G4xx_HAL_Driver/Src/stm32g4xx_hal_dac_ex.c ****       MODIFY_REG(hdac->Instance->CCR, (DAC_CCR_OTRIM1 << (Channel & 0x10UL)), (trimmingvalue << (Ch
 878:Drivers/STM32G4xx_HAL_Driver/Src/stm32g4xx_hal_dac_ex.c ****     }
 879:Drivers/STM32G4xx_HAL_Driver/Src/stm32g4xx_hal_dac_ex.c **** 
 880:Drivers/STM32G4xx_HAL_Driver/Src/stm32g4xx_hal_dac_ex.c ****     /* Disable the selected DAC channel calibration */
 881:Drivers/STM32G4xx_HAL_Driver/Src/stm32g4xx_hal_dac_ex.c ****     /* i.e. clear DAC_CR_CENx bit */
 882:Drivers/STM32G4xx_HAL_Driver/Src/stm32g4xx_hal_dac_ex.c ****     CLEAR_BIT((hdac->Instance->CR), (DAC_CR_CEN1 << (Channel & 0x10UL)));
 883:Drivers/STM32G4xx_HAL_Driver/Src/stm32g4xx_hal_dac_ex.c **** 
 884:Drivers/STM32G4xx_HAL_Driver/Src/stm32g4xx_hal_dac_ex.c ****     sConfig->DAC_TrimmingValue = trimmingvalue;
 885:Drivers/STM32G4xx_HAL_Driver/Src/stm32g4xx_hal_dac_ex.c ****     sConfig->DAC_UserTrimming = DAC_TRIMMING_USER;
 886:Drivers/STM32G4xx_HAL_Driver/Src/stm32g4xx_hal_dac_ex.c **** 
 887:Drivers/STM32G4xx_HAL_Driver/Src/stm32g4xx_hal_dac_ex.c ****     /* Restore configuration */
 888:Drivers/STM32G4xx_HAL_Driver/Src/stm32g4xx_hal_dac_ex.c ****     MODIFY_REG(hdac->Instance->MCR, (DAC_MCR_MODE1 << (Channel & 0x10UL)), oldmodeconfiguration);
 889:Drivers/STM32G4xx_HAL_Driver/Src/stm32g4xx_hal_dac_ex.c **** 
 890:Drivers/STM32G4xx_HAL_Driver/Src/stm32g4xx_hal_dac_ex.c ****     /* Process unlocked */
 891:Drivers/STM32G4xx_HAL_Driver/Src/stm32g4xx_hal_dac_ex.c ****     __HAL_UNLOCK(hdac);
ARM GAS  /tmp/ccrXORvc.s 			page 36


 892:Drivers/STM32G4xx_HAL_Driver/Src/stm32g4xx_hal_dac_ex.c ****   }
 893:Drivers/STM32G4xx_HAL_Driver/Src/stm32g4xx_hal_dac_ex.c **** 
 894:Drivers/STM32G4xx_HAL_Driver/Src/stm32g4xx_hal_dac_ex.c ****   return status;
 895:Drivers/STM32G4xx_HAL_Driver/Src/stm32g4xx_hal_dac_ex.c **** }
 896:Drivers/STM32G4xx_HAL_Driver/Src/stm32g4xx_hal_dac_ex.c **** 
 897:Drivers/STM32G4xx_HAL_Driver/Src/stm32g4xx_hal_dac_ex.c **** /**
 898:Drivers/STM32G4xx_HAL_Driver/Src/stm32g4xx_hal_dac_ex.c ****   * @brief  Set the trimming mode and trimming value (user trimming mode applied).
 899:Drivers/STM32G4xx_HAL_Driver/Src/stm32g4xx_hal_dac_ex.c ****   * @param  hdac pointer to a DAC_HandleTypeDef structure that contains
 900:Drivers/STM32G4xx_HAL_Driver/Src/stm32g4xx_hal_dac_ex.c ****   *         the configuration information for the specified DAC.
 901:Drivers/STM32G4xx_HAL_Driver/Src/stm32g4xx_hal_dac_ex.c ****   * @param  sConfig DAC configuration structure updated with new DAC trimming value.
 902:Drivers/STM32G4xx_HAL_Driver/Src/stm32g4xx_hal_dac_ex.c ****   * @param  Channel The selected DAC channel.
 903:Drivers/STM32G4xx_HAL_Driver/Src/stm32g4xx_hal_dac_ex.c ****   *          This parameter can be one of the following values:
 904:Drivers/STM32G4xx_HAL_Driver/Src/stm32g4xx_hal_dac_ex.c ****   *            @arg DAC_CHANNEL_1: DAC Channel1 selected
 905:Drivers/STM32G4xx_HAL_Driver/Src/stm32g4xx_hal_dac_ex.c ****   *            @arg DAC_CHANNEL_2: DAC Channel2 selected (1)
 906:Drivers/STM32G4xx_HAL_Driver/Src/stm32g4xx_hal_dac_ex.c ****   *
 907:Drivers/STM32G4xx_HAL_Driver/Src/stm32g4xx_hal_dac_ex.c ****   *         (1) On this STM32 serie, parameter not available on all instances.
 908:Drivers/STM32G4xx_HAL_Driver/Src/stm32g4xx_hal_dac_ex.c ****   *             Refer to device datasheet for channels availability.
 909:Drivers/STM32G4xx_HAL_Driver/Src/stm32g4xx_hal_dac_ex.c ****   * @param  NewTrimmingValue DAC new trimming value
 910:Drivers/STM32G4xx_HAL_Driver/Src/stm32g4xx_hal_dac_ex.c ****   * @retval HAL status
 911:Drivers/STM32G4xx_HAL_Driver/Src/stm32g4xx_hal_dac_ex.c ****   */
 912:Drivers/STM32G4xx_HAL_Driver/Src/stm32g4xx_hal_dac_ex.c **** 
 913:Drivers/STM32G4xx_HAL_Driver/Src/stm32g4xx_hal_dac_ex.c **** HAL_StatusTypeDef HAL_DACEx_SetUserTrimming(DAC_HandleTypeDef *hdac, DAC_ChannelConfTypeDef *sConfi
 914:Drivers/STM32G4xx_HAL_Driver/Src/stm32g4xx_hal_dac_ex.c ****                                             uint32_t NewTrimmingValue)
 915:Drivers/STM32G4xx_HAL_Driver/Src/stm32g4xx_hal_dac_ex.c **** {
 916:Drivers/STM32G4xx_HAL_Driver/Src/stm32g4xx_hal_dac_ex.c ****   HAL_StatusTypeDef status = HAL_OK;
 917:Drivers/STM32G4xx_HAL_Driver/Src/stm32g4xx_hal_dac_ex.c **** 
 918:Drivers/STM32G4xx_HAL_Driver/Src/stm32g4xx_hal_dac_ex.c ****   /* Check the parameters */
 919:Drivers/STM32G4xx_HAL_Driver/Src/stm32g4xx_hal_dac_ex.c ****   assert_param(IS_DAC_CHANNEL(hdac->Instance, Channel));
 920:Drivers/STM32G4xx_HAL_Driver/Src/stm32g4xx_hal_dac_ex.c ****   assert_param(IS_DAC_NEWTRIMMINGVALUE(NewTrimmingValue));
 921:Drivers/STM32G4xx_HAL_Driver/Src/stm32g4xx_hal_dac_ex.c **** 
 922:Drivers/STM32G4xx_HAL_Driver/Src/stm32g4xx_hal_dac_ex.c ****   /* Check the DAC handle allocation */
 923:Drivers/STM32G4xx_HAL_Driver/Src/stm32g4xx_hal_dac_ex.c ****   if (hdac == NULL)
 924:Drivers/STM32G4xx_HAL_Driver/Src/stm32g4xx_hal_dac_ex.c ****   {
 925:Drivers/STM32G4xx_HAL_Driver/Src/stm32g4xx_hal_dac_ex.c ****     status = HAL_ERROR;
 926:Drivers/STM32G4xx_HAL_Driver/Src/stm32g4xx_hal_dac_ex.c ****   }
 927:Drivers/STM32G4xx_HAL_Driver/Src/stm32g4xx_hal_dac_ex.c ****   else
 928:Drivers/STM32G4xx_HAL_Driver/Src/stm32g4xx_hal_dac_ex.c ****   {
 929:Drivers/STM32G4xx_HAL_Driver/Src/stm32g4xx_hal_dac_ex.c ****     /* Process locked */
 930:Drivers/STM32G4xx_HAL_Driver/Src/stm32g4xx_hal_dac_ex.c ****     __HAL_LOCK(hdac);
 931:Drivers/STM32G4xx_HAL_Driver/Src/stm32g4xx_hal_dac_ex.c **** 
 932:Drivers/STM32G4xx_HAL_Driver/Src/stm32g4xx_hal_dac_ex.c ****     /* Set new trimming */
 933:Drivers/STM32G4xx_HAL_Driver/Src/stm32g4xx_hal_dac_ex.c ****     MODIFY_REG(hdac->Instance->CCR, (DAC_CCR_OTRIM1 << (Channel & 0x10UL)), (NewTrimmingValue << (C
 934:Drivers/STM32G4xx_HAL_Driver/Src/stm32g4xx_hal_dac_ex.c **** 
 935:Drivers/STM32G4xx_HAL_Driver/Src/stm32g4xx_hal_dac_ex.c ****     /* Update trimming mode */
 936:Drivers/STM32G4xx_HAL_Driver/Src/stm32g4xx_hal_dac_ex.c ****     sConfig->DAC_UserTrimming = DAC_TRIMMING_USER;
 937:Drivers/STM32G4xx_HAL_Driver/Src/stm32g4xx_hal_dac_ex.c ****     sConfig->DAC_TrimmingValue = NewTrimmingValue;
 938:Drivers/STM32G4xx_HAL_Driver/Src/stm32g4xx_hal_dac_ex.c **** 
 939:Drivers/STM32G4xx_HAL_Driver/Src/stm32g4xx_hal_dac_ex.c ****     /* Process unlocked */
 940:Drivers/STM32G4xx_HAL_Driver/Src/stm32g4xx_hal_dac_ex.c ****     __HAL_UNLOCK(hdac);
 941:Drivers/STM32G4xx_HAL_Driver/Src/stm32g4xx_hal_dac_ex.c ****   }
 942:Drivers/STM32G4xx_HAL_Driver/Src/stm32g4xx_hal_dac_ex.c ****   return status;
 943:Drivers/STM32G4xx_HAL_Driver/Src/stm32g4xx_hal_dac_ex.c **** }
 944:Drivers/STM32G4xx_HAL_Driver/Src/stm32g4xx_hal_dac_ex.c **** 
 945:Drivers/STM32G4xx_HAL_Driver/Src/stm32g4xx_hal_dac_ex.c **** /**
 946:Drivers/STM32G4xx_HAL_Driver/Src/stm32g4xx_hal_dac_ex.c ****   * @brief  Return the DAC trimming value.
 947:Drivers/STM32G4xx_HAL_Driver/Src/stm32g4xx_hal_dac_ex.c ****   * @param  hdac DAC handle
 948:Drivers/STM32G4xx_HAL_Driver/Src/stm32g4xx_hal_dac_ex.c ****   * @param  Channel The selected DAC channel.
ARM GAS  /tmp/ccrXORvc.s 			page 37


 949:Drivers/STM32G4xx_HAL_Driver/Src/stm32g4xx_hal_dac_ex.c ****   *          This parameter can be one of the following values:
 950:Drivers/STM32G4xx_HAL_Driver/Src/stm32g4xx_hal_dac_ex.c ****   *            @arg DAC_CHANNEL_1: DAC Channel1 selected
 951:Drivers/STM32G4xx_HAL_Driver/Src/stm32g4xx_hal_dac_ex.c ****   *            @arg DAC_CHANNEL_2: DAC Channel2 selected (1)
 952:Drivers/STM32G4xx_HAL_Driver/Src/stm32g4xx_hal_dac_ex.c ****   *
 953:Drivers/STM32G4xx_HAL_Driver/Src/stm32g4xx_hal_dac_ex.c ****   *         (1) On this STM32 serie, parameter not available on all instances.
 954:Drivers/STM32G4xx_HAL_Driver/Src/stm32g4xx_hal_dac_ex.c ****   *             Refer to device datasheet for channels availability.
 955:Drivers/STM32G4xx_HAL_Driver/Src/stm32g4xx_hal_dac_ex.c ****   * @retval Trimming value : range: 0->31
 956:Drivers/STM32G4xx_HAL_Driver/Src/stm32g4xx_hal_dac_ex.c ****   *
 957:Drivers/STM32G4xx_HAL_Driver/Src/stm32g4xx_hal_dac_ex.c ****  */
 958:Drivers/STM32G4xx_HAL_Driver/Src/stm32g4xx_hal_dac_ex.c **** 
 959:Drivers/STM32G4xx_HAL_Driver/Src/stm32g4xx_hal_dac_ex.c **** uint32_t HAL_DACEx_GetTrimOffset(DAC_HandleTypeDef *hdac, uint32_t Channel)
 960:Drivers/STM32G4xx_HAL_Driver/Src/stm32g4xx_hal_dac_ex.c **** {
 961:Drivers/STM32G4xx_HAL_Driver/Src/stm32g4xx_hal_dac_ex.c ****   /* Check the parameter */
 962:Drivers/STM32G4xx_HAL_Driver/Src/stm32g4xx_hal_dac_ex.c ****   assert_param(IS_DAC_CHANNEL(hdac->Instance, Channel));
 963:Drivers/STM32G4xx_HAL_Driver/Src/stm32g4xx_hal_dac_ex.c **** 
 964:Drivers/STM32G4xx_HAL_Driver/Src/stm32g4xx_hal_dac_ex.c ****   /* Retrieve trimming  */
 965:Drivers/STM32G4xx_HAL_Driver/Src/stm32g4xx_hal_dac_ex.c ****   return ((hdac->Instance->CCR & (DAC_CCR_OTRIM1 << (Channel & 0x10UL))) >> (Channel & 0x10UL));
 966:Drivers/STM32G4xx_HAL_Driver/Src/stm32g4xx_hal_dac_ex.c **** }
 967:Drivers/STM32G4xx_HAL_Driver/Src/stm32g4xx_hal_dac_ex.c **** 
 968:Drivers/STM32G4xx_HAL_Driver/Src/stm32g4xx_hal_dac_ex.c **** /**
 969:Drivers/STM32G4xx_HAL_Driver/Src/stm32g4xx_hal_dac_ex.c ****   * @}
 970:Drivers/STM32G4xx_HAL_Driver/Src/stm32g4xx_hal_dac_ex.c ****   */
 971:Drivers/STM32G4xx_HAL_Driver/Src/stm32g4xx_hal_dac_ex.c **** 
 972:Drivers/STM32G4xx_HAL_Driver/Src/stm32g4xx_hal_dac_ex.c **** /** @defgroup DACEx_Exported_Functions_Group3 Peripheral Control functions
 973:Drivers/STM32G4xx_HAL_Driver/Src/stm32g4xx_hal_dac_ex.c ****   *  @brief    Extended Peripheral Control functions
 974:Drivers/STM32G4xx_HAL_Driver/Src/stm32g4xx_hal_dac_ex.c ****   *
 975:Drivers/STM32G4xx_HAL_Driver/Src/stm32g4xx_hal_dac_ex.c **** @verbatim
 976:Drivers/STM32G4xx_HAL_Driver/Src/stm32g4xx_hal_dac_ex.c ****   ==============================================================================
 977:Drivers/STM32G4xx_HAL_Driver/Src/stm32g4xx_hal_dac_ex.c ****              ##### Peripheral Control functions #####
 978:Drivers/STM32G4xx_HAL_Driver/Src/stm32g4xx_hal_dac_ex.c ****   ==============================================================================
 979:Drivers/STM32G4xx_HAL_Driver/Src/stm32g4xx_hal_dac_ex.c ****     [..]  This section provides functions allowing to:
 980:Drivers/STM32G4xx_HAL_Driver/Src/stm32g4xx_hal_dac_ex.c ****       (+) Set the specified data holding register value for DAC channel.
 981:Drivers/STM32G4xx_HAL_Driver/Src/stm32g4xx_hal_dac_ex.c **** 
 982:Drivers/STM32G4xx_HAL_Driver/Src/stm32g4xx_hal_dac_ex.c **** @endverbatim
 983:Drivers/STM32G4xx_HAL_Driver/Src/stm32g4xx_hal_dac_ex.c ****   * @{
 984:Drivers/STM32G4xx_HAL_Driver/Src/stm32g4xx_hal_dac_ex.c ****   */
 985:Drivers/STM32G4xx_HAL_Driver/Src/stm32g4xx_hal_dac_ex.c **** 
 986:Drivers/STM32G4xx_HAL_Driver/Src/stm32g4xx_hal_dac_ex.c **** /**
 987:Drivers/STM32G4xx_HAL_Driver/Src/stm32g4xx_hal_dac_ex.c ****   * @brief  Return the last data output value of the selected DAC channel.
 988:Drivers/STM32G4xx_HAL_Driver/Src/stm32g4xx_hal_dac_ex.c ****   * @param  hdac pointer to a DAC_HandleTypeDef structure that contains
 989:Drivers/STM32G4xx_HAL_Driver/Src/stm32g4xx_hal_dac_ex.c ****   *         the configuration information for the specified DAC.
 990:Drivers/STM32G4xx_HAL_Driver/Src/stm32g4xx_hal_dac_ex.c ****   * @retval The selected DAC channel data output value.
 991:Drivers/STM32G4xx_HAL_Driver/Src/stm32g4xx_hal_dac_ex.c ****   */
 992:Drivers/STM32G4xx_HAL_Driver/Src/stm32g4xx_hal_dac_ex.c **** uint32_t HAL_DACEx_DualGetValue(DAC_HandleTypeDef *hdac)
 993:Drivers/STM32G4xx_HAL_Driver/Src/stm32g4xx_hal_dac_ex.c **** {
 994:Drivers/STM32G4xx_HAL_Driver/Src/stm32g4xx_hal_dac_ex.c ****   uint32_t tmp = 0U;
 995:Drivers/STM32G4xx_HAL_Driver/Src/stm32g4xx_hal_dac_ex.c **** 
 996:Drivers/STM32G4xx_HAL_Driver/Src/stm32g4xx_hal_dac_ex.c ****   tmp |= hdac->Instance->DOR1;
 997:Drivers/STM32G4xx_HAL_Driver/Src/stm32g4xx_hal_dac_ex.c **** 
 998:Drivers/STM32G4xx_HAL_Driver/Src/stm32g4xx_hal_dac_ex.c ****   tmp |= hdac->Instance->DOR2 << 16U;
 999:Drivers/STM32G4xx_HAL_Driver/Src/stm32g4xx_hal_dac_ex.c **** 
1000:Drivers/STM32G4xx_HAL_Driver/Src/stm32g4xx_hal_dac_ex.c ****   /* Returns the DAC channel data output register value */
1001:Drivers/STM32G4xx_HAL_Driver/Src/stm32g4xx_hal_dac_ex.c ****   return tmp;
1002:Drivers/STM32G4xx_HAL_Driver/Src/stm32g4xx_hal_dac_ex.c **** }
1003:Drivers/STM32G4xx_HAL_Driver/Src/stm32g4xx_hal_dac_ex.c **** 
1004:Drivers/STM32G4xx_HAL_Driver/Src/stm32g4xx_hal_dac_ex.c **** /**
1005:Drivers/STM32G4xx_HAL_Driver/Src/stm32g4xx_hal_dac_ex.c ****   * @}
ARM GAS  /tmp/ccrXORvc.s 			page 38


1006:Drivers/STM32G4xx_HAL_Driver/Src/stm32g4xx_hal_dac_ex.c ****   */
1007:Drivers/STM32G4xx_HAL_Driver/Src/stm32g4xx_hal_dac_ex.c **** 
1008:Drivers/STM32G4xx_HAL_Driver/Src/stm32g4xx_hal_dac_ex.c **** /**
1009:Drivers/STM32G4xx_HAL_Driver/Src/stm32g4xx_hal_dac_ex.c ****   * @}
1010:Drivers/STM32G4xx_HAL_Driver/Src/stm32g4xx_hal_dac_ex.c ****   */
1011:Drivers/STM32G4xx_HAL_Driver/Src/stm32g4xx_hal_dac_ex.c **** 
1012:Drivers/STM32G4xx_HAL_Driver/Src/stm32g4xx_hal_dac_ex.c **** /* Private functions ---------------------------------------------------------*/
1013:Drivers/STM32G4xx_HAL_Driver/Src/stm32g4xx_hal_dac_ex.c **** /** @defgroup DACEx_Private_Functions DACEx private functions
1014:Drivers/STM32G4xx_HAL_Driver/Src/stm32g4xx_hal_dac_ex.c ****   *  @brief    Extended private functions
1015:Drivers/STM32G4xx_HAL_Driver/Src/stm32g4xx_hal_dac_ex.c ****    * @{
1016:Drivers/STM32G4xx_HAL_Driver/Src/stm32g4xx_hal_dac_ex.c ****   */
1017:Drivers/STM32G4xx_HAL_Driver/Src/stm32g4xx_hal_dac_ex.c **** 
1018:Drivers/STM32G4xx_HAL_Driver/Src/stm32g4xx_hal_dac_ex.c **** /**
1019:Drivers/STM32G4xx_HAL_Driver/Src/stm32g4xx_hal_dac_ex.c ****   * @brief  DMA conversion complete callback.
1020:Drivers/STM32G4xx_HAL_Driver/Src/stm32g4xx_hal_dac_ex.c ****   * @param  hdma pointer to a DMA_HandleTypeDef structure that contains
1021:Drivers/STM32G4xx_HAL_Driver/Src/stm32g4xx_hal_dac_ex.c ****   *                the configuration information for the specified DMA module.
1022:Drivers/STM32G4xx_HAL_Driver/Src/stm32g4xx_hal_dac_ex.c ****   * @retval None
1023:Drivers/STM32G4xx_HAL_Driver/Src/stm32g4xx_hal_dac_ex.c ****   */
1024:Drivers/STM32G4xx_HAL_Driver/Src/stm32g4xx_hal_dac_ex.c **** void DAC_DMAConvCpltCh2(DMA_HandleTypeDef *hdma)
1025:Drivers/STM32G4xx_HAL_Driver/Src/stm32g4xx_hal_dac_ex.c **** {
 1043              		.loc 1 1025 1 is_stmt 1 view -0
 1044              		.cfi_startproc
 1045              		@ args = 0, pretend = 0, frame = 0
 1046              		@ frame_needed = 0, uses_anonymous_args = 0
1026:Drivers/STM32G4xx_HAL_Driver/Src/stm32g4xx_hal_dac_ex.c ****   DAC_HandleTypeDef *hdac = (DAC_HandleTypeDef *)((DMA_HandleTypeDef *)hdma)->Parent;
 1047              		.loc 1 1026 3 view .LVU347
1025:Drivers/STM32G4xx_HAL_Driver/Src/stm32g4xx_hal_dac_ex.c ****   DAC_HandleTypeDef *hdac = (DAC_HandleTypeDef *)((DMA_HandleTypeDef *)hdma)->Parent;
 1048              		.loc 1 1025 1 is_stmt 0 view .LVU348
 1049 0000 10B5     		push	{r4, lr}
 1050              	.LCFI9:
 1051              		.cfi_def_cfa_offset 8
 1052              		.cfi_offset 4, -8
 1053              		.cfi_offset 14, -4
 1054              		.loc 1 1026 22 view .LVU349
 1055 0002 846A     		ldr	r4, [r0, #40]
 1056              	.LVL77:
1027:Drivers/STM32G4xx_HAL_Driver/Src/stm32g4xx_hal_dac_ex.c **** 
1028:Drivers/STM32G4xx_HAL_Driver/Src/stm32g4xx_hal_dac_ex.c **** #if (USE_HAL_DAC_REGISTER_CALLBACKS == 1)
1029:Drivers/STM32G4xx_HAL_Driver/Src/stm32g4xx_hal_dac_ex.c ****   hdac->ConvCpltCallbackCh2(hdac);
1030:Drivers/STM32G4xx_HAL_Driver/Src/stm32g4xx_hal_dac_ex.c **** #else
1031:Drivers/STM32G4xx_HAL_Driver/Src/stm32g4xx_hal_dac_ex.c ****   HAL_DACEx_ConvCpltCallbackCh2(hdac);
 1057              		.loc 1 1031 3 is_stmt 1 view .LVU350
 1058 0004 2046     		mov	r0, r4
 1059              	.LVL78:
 1060              		.loc 1 1031 3 is_stmt 0 view .LVU351
 1061 0006 FFF7FEFF 		bl	HAL_DACEx_ConvCpltCallbackCh2
 1062              	.LVL79:
1032:Drivers/STM32G4xx_HAL_Driver/Src/stm32g4xx_hal_dac_ex.c **** #endif /* USE_HAL_DAC_REGISTER_CALLBACKS */
1033:Drivers/STM32G4xx_HAL_Driver/Src/stm32g4xx_hal_dac_ex.c **** 
1034:Drivers/STM32G4xx_HAL_Driver/Src/stm32g4xx_hal_dac_ex.c ****   hdac->State = HAL_DAC_STATE_READY;
 1063              		.loc 1 1034 3 is_stmt 1 view .LVU352
 1064              		.loc 1 1034 15 is_stmt 0 view .LVU353
 1065 000a 0123     		movs	r3, #1
 1066 000c 2371     		strb	r3, [r4, #4]
1035:Drivers/STM32G4xx_HAL_Driver/Src/stm32g4xx_hal_dac_ex.c **** }
 1067              		.loc 1 1035 1 view .LVU354
 1068 000e 10BD     		pop	{r4, pc}
ARM GAS  /tmp/ccrXORvc.s 			page 39


 1069              		.loc 1 1035 1 view .LVU355
 1070              		.cfi_endproc
 1071              	.LFE375:
 1073              		.section	.text.HAL_DACEx_ConvHalfCpltCallbackCh2,"ax",%progbits
 1074              		.align	1
 1075              		.weak	HAL_DACEx_ConvHalfCpltCallbackCh2
 1076              		.syntax unified
 1077              		.thumb
 1078              		.thumb_func
 1079              		.fpu fpv4-sp-d16
 1081              	HAL_DACEx_ConvHalfCpltCallbackCh2:
 1082              	.LFB379:
 1083              		.cfi_startproc
 1084              		@ args = 0, pretend = 0, frame = 0
 1085              		@ frame_needed = 0, uses_anonymous_args = 0
 1086              		@ link register save eliminated.
 1087 0000 7047     		bx	lr
 1088              		.cfi_endproc
 1089              	.LFE379:
 1091              		.section	.text.DAC_DMAHalfConvCpltCh2,"ax",%progbits
 1092              		.align	1
 1093              		.global	DAC_DMAHalfConvCpltCh2
 1094              		.syntax unified
 1095              		.thumb
 1096              		.thumb_func
 1097              		.fpu fpv4-sp-d16
 1099              	DAC_DMAHalfConvCpltCh2:
 1100              	.LVL80:
 1101              	.LFB376:
1036:Drivers/STM32G4xx_HAL_Driver/Src/stm32g4xx_hal_dac_ex.c **** 
1037:Drivers/STM32G4xx_HAL_Driver/Src/stm32g4xx_hal_dac_ex.c **** /**
1038:Drivers/STM32G4xx_HAL_Driver/Src/stm32g4xx_hal_dac_ex.c ****   * @brief  DMA half transfer complete callback.
1039:Drivers/STM32G4xx_HAL_Driver/Src/stm32g4xx_hal_dac_ex.c ****   * @param  hdma pointer to a DMA_HandleTypeDef structure that contains
1040:Drivers/STM32G4xx_HAL_Driver/Src/stm32g4xx_hal_dac_ex.c ****   *                the configuration information for the specified DMA module.
1041:Drivers/STM32G4xx_HAL_Driver/Src/stm32g4xx_hal_dac_ex.c ****   * @retval None
1042:Drivers/STM32G4xx_HAL_Driver/Src/stm32g4xx_hal_dac_ex.c ****   */
1043:Drivers/STM32G4xx_HAL_Driver/Src/stm32g4xx_hal_dac_ex.c **** void DAC_DMAHalfConvCpltCh2(DMA_HandleTypeDef *hdma)
1044:Drivers/STM32G4xx_HAL_Driver/Src/stm32g4xx_hal_dac_ex.c **** {
 1102              		.loc 1 1044 1 is_stmt 1 view -0
 1103              		.cfi_startproc
 1104              		@ args = 0, pretend = 0, frame = 0
 1105              		@ frame_needed = 0, uses_anonymous_args = 0
1045:Drivers/STM32G4xx_HAL_Driver/Src/stm32g4xx_hal_dac_ex.c ****   DAC_HandleTypeDef *hdac = (DAC_HandleTypeDef *)((DMA_HandleTypeDef *)hdma)->Parent;
 1106              		.loc 1 1045 3 view .LVU357
1046:Drivers/STM32G4xx_HAL_Driver/Src/stm32g4xx_hal_dac_ex.c ****   /* Conversion complete callback */
1047:Drivers/STM32G4xx_HAL_Driver/Src/stm32g4xx_hal_dac_ex.c **** #if (USE_HAL_DAC_REGISTER_CALLBACKS == 1)
1048:Drivers/STM32G4xx_HAL_Driver/Src/stm32g4xx_hal_dac_ex.c ****   hdac->ConvHalfCpltCallbackCh2(hdac);
1049:Drivers/STM32G4xx_HAL_Driver/Src/stm32g4xx_hal_dac_ex.c **** #else
1050:Drivers/STM32G4xx_HAL_Driver/Src/stm32g4xx_hal_dac_ex.c ****   HAL_DACEx_ConvHalfCpltCallbackCh2(hdac);
 1107              		.loc 1 1050 3 view .LVU358
1044:Drivers/STM32G4xx_HAL_Driver/Src/stm32g4xx_hal_dac_ex.c ****   DAC_HandleTypeDef *hdac = (DAC_HandleTypeDef *)((DMA_HandleTypeDef *)hdma)->Parent;
 1108              		.loc 1 1044 1 is_stmt 0 view .LVU359
 1109 0000 08B5     		push	{r3, lr}
 1110              	.LCFI10:
 1111              		.cfi_def_cfa_offset 8
 1112              		.cfi_offset 3, -8
 1113              		.cfi_offset 14, -4
ARM GAS  /tmp/ccrXORvc.s 			page 40


 1114              		.loc 1 1050 3 view .LVU360
 1115 0002 806A     		ldr	r0, [r0, #40]
 1116              	.LVL81:
 1117              		.loc 1 1050 3 view .LVU361
 1118 0004 FFF7FEFF 		bl	HAL_DACEx_ConvHalfCpltCallbackCh2
 1119              	.LVL82:
1051:Drivers/STM32G4xx_HAL_Driver/Src/stm32g4xx_hal_dac_ex.c **** #endif /* USE_HAL_DAC_REGISTER_CALLBACKS */
1052:Drivers/STM32G4xx_HAL_Driver/Src/stm32g4xx_hal_dac_ex.c **** }
 1120              		.loc 1 1052 1 view .LVU362
 1121 0008 08BD     		pop	{r3, pc}
 1122              		.cfi_endproc
 1123              	.LFE376:
 1125              		.section	.text.HAL_DACEx_ErrorCallbackCh2,"ax",%progbits
 1126              		.align	1
 1127              		.weak	HAL_DACEx_ErrorCallbackCh2
 1128              		.syntax unified
 1129              		.thumb
 1130              		.thumb_func
 1131              		.fpu fpv4-sp-d16
 1133              	HAL_DACEx_ErrorCallbackCh2:
 1134              	.LFB381:
 1135              		.cfi_startproc
 1136              		@ args = 0, pretend = 0, frame = 0
 1137              		@ frame_needed = 0, uses_anonymous_args = 0
 1138              		@ link register save eliminated.
 1139 0000 7047     		bx	lr
 1140              		.cfi_endproc
 1141              	.LFE381:
 1143              		.section	.text.DAC_DMAErrorCh2,"ax",%progbits
 1144              		.align	1
 1145              		.global	DAC_DMAErrorCh2
 1146              		.syntax unified
 1147              		.thumb
 1148              		.thumb_func
 1149              		.fpu fpv4-sp-d16
 1151              	DAC_DMAErrorCh2:
 1152              	.LVL83:
 1153              	.LFB377:
1053:Drivers/STM32G4xx_HAL_Driver/Src/stm32g4xx_hal_dac_ex.c **** 
1054:Drivers/STM32G4xx_HAL_Driver/Src/stm32g4xx_hal_dac_ex.c **** /**
1055:Drivers/STM32G4xx_HAL_Driver/Src/stm32g4xx_hal_dac_ex.c ****   * @brief  DMA error callback.
1056:Drivers/STM32G4xx_HAL_Driver/Src/stm32g4xx_hal_dac_ex.c ****   * @param  hdma pointer to a DMA_HandleTypeDef structure that contains
1057:Drivers/STM32G4xx_HAL_Driver/Src/stm32g4xx_hal_dac_ex.c ****   *                the configuration information for the specified DMA module.
1058:Drivers/STM32G4xx_HAL_Driver/Src/stm32g4xx_hal_dac_ex.c ****   * @retval None
1059:Drivers/STM32G4xx_HAL_Driver/Src/stm32g4xx_hal_dac_ex.c ****   */
1060:Drivers/STM32G4xx_HAL_Driver/Src/stm32g4xx_hal_dac_ex.c **** void DAC_DMAErrorCh2(DMA_HandleTypeDef *hdma)
1061:Drivers/STM32G4xx_HAL_Driver/Src/stm32g4xx_hal_dac_ex.c **** {
 1154              		.loc 1 1061 1 is_stmt 1 view -0
 1155              		.cfi_startproc
 1156              		@ args = 0, pretend = 0, frame = 0
 1157              		@ frame_needed = 0, uses_anonymous_args = 0
1062:Drivers/STM32G4xx_HAL_Driver/Src/stm32g4xx_hal_dac_ex.c ****   DAC_HandleTypeDef *hdac = (DAC_HandleTypeDef *)((DMA_HandleTypeDef *)hdma)->Parent;
 1158              		.loc 1 1062 3 view .LVU364
1061:Drivers/STM32G4xx_HAL_Driver/Src/stm32g4xx_hal_dac_ex.c ****   DAC_HandleTypeDef *hdac = (DAC_HandleTypeDef *)((DMA_HandleTypeDef *)hdma)->Parent;
 1159              		.loc 1 1061 1 is_stmt 0 view .LVU365
 1160 0000 10B5     		push	{r4, lr}
 1161              	.LCFI11:
ARM GAS  /tmp/ccrXORvc.s 			page 41


 1162              		.cfi_def_cfa_offset 8
 1163              		.cfi_offset 4, -8
 1164              		.cfi_offset 14, -4
 1165              		.loc 1 1062 22 view .LVU366
 1166 0002 846A     		ldr	r4, [r0, #40]
 1167              	.LVL84:
1063:Drivers/STM32G4xx_HAL_Driver/Src/stm32g4xx_hal_dac_ex.c **** 
1064:Drivers/STM32G4xx_HAL_Driver/Src/stm32g4xx_hal_dac_ex.c ****   /* Set DAC error code to DMA error */
1065:Drivers/STM32G4xx_HAL_Driver/Src/stm32g4xx_hal_dac_ex.c ****   hdac->ErrorCode |= HAL_DAC_ERROR_DMA;
 1168              		.loc 1 1065 3 is_stmt 1 view .LVU367
 1169              		.loc 1 1065 19 is_stmt 0 view .LVU368
 1170 0004 2369     		ldr	r3, [r4, #16]
 1171 0006 43F00403 		orr	r3, r3, #4
 1172 000a 2361     		str	r3, [r4, #16]
1066:Drivers/STM32G4xx_HAL_Driver/Src/stm32g4xx_hal_dac_ex.c **** 
1067:Drivers/STM32G4xx_HAL_Driver/Src/stm32g4xx_hal_dac_ex.c **** #if (USE_HAL_DAC_REGISTER_CALLBACKS == 1)
1068:Drivers/STM32G4xx_HAL_Driver/Src/stm32g4xx_hal_dac_ex.c ****   hdac->ErrorCallbackCh2(hdac);
1069:Drivers/STM32G4xx_HAL_Driver/Src/stm32g4xx_hal_dac_ex.c **** #else
1070:Drivers/STM32G4xx_HAL_Driver/Src/stm32g4xx_hal_dac_ex.c ****   HAL_DACEx_ErrorCallbackCh2(hdac);
 1173              		.loc 1 1070 3 is_stmt 1 view .LVU369
 1174 000c 2046     		mov	r0, r4
 1175              	.LVL85:
 1176              		.loc 1 1070 3 is_stmt 0 view .LVU370
 1177 000e FFF7FEFF 		bl	HAL_DACEx_ErrorCallbackCh2
 1178              	.LVL86:
1071:Drivers/STM32G4xx_HAL_Driver/Src/stm32g4xx_hal_dac_ex.c **** #endif /* USE_HAL_DAC_REGISTER_CALLBACKS */
1072:Drivers/STM32G4xx_HAL_Driver/Src/stm32g4xx_hal_dac_ex.c **** 
1073:Drivers/STM32G4xx_HAL_Driver/Src/stm32g4xx_hal_dac_ex.c ****   hdac->State = HAL_DAC_STATE_READY;
 1179              		.loc 1 1073 3 is_stmt 1 view .LVU371
 1180              		.loc 1 1073 15 is_stmt 0 view .LVU372
 1181 0012 0123     		movs	r3, #1
 1182 0014 2371     		strb	r3, [r4, #4]
1074:Drivers/STM32G4xx_HAL_Driver/Src/stm32g4xx_hal_dac_ex.c **** }
 1183              		.loc 1 1074 1 view .LVU373
 1184 0016 10BD     		pop	{r4, pc}
 1185              		.loc 1 1074 1 view .LVU374
 1186              		.cfi_endproc
 1187              	.LFE377:
 1189              		.section	.text.HAL_DACEx_DMAUnderrunCallbackCh2,"ax",%progbits
 1190              		.align	1
 1191              		.weak	HAL_DACEx_DMAUnderrunCallbackCh2
 1192              		.syntax unified
 1193              		.thumb
 1194              		.thumb_func
 1195              		.fpu fpv4-sp-d16
 1197              	HAL_DACEx_DMAUnderrunCallbackCh2:
 1198              	.LFB383:
 1199              		.cfi_startproc
 1200              		@ args = 0, pretend = 0, frame = 0
 1201              		@ frame_needed = 0, uses_anonymous_args = 0
 1202              		@ link register save eliminated.
 1203 0000 7047     		bx	lr
 1204              		.cfi_endproc
 1205              	.LFE383:
 1207              		.section	.text.HAL_DACEx_SelfCalibrate,"ax",%progbits
 1208              		.align	1
 1209              		.global	HAL_DACEx_SelfCalibrate
ARM GAS  /tmp/ccrXORvc.s 			page 42


 1210              		.syntax unified
 1211              		.thumb
 1212              		.thumb_func
 1213              		.fpu fpv4-sp-d16
 1215              	HAL_DACEx_SelfCalibrate:
 1216              	.LVL87:
 1217              	.LFB371:
 780:Drivers/STM32G4xx_HAL_Driver/Src/stm32g4xx_hal_dac_ex.c ****   HAL_StatusTypeDef status = HAL_OK;
 1218              		.loc 1 780 1 is_stmt 1 view -0
 1219              		.cfi_startproc
 1220              		@ args = 0, pretend = 0, frame = 16
 1221              		@ frame_needed = 0, uses_anonymous_args = 0
 781:Drivers/STM32G4xx_HAL_Driver/Src/stm32g4xx_hal_dac_ex.c **** 
 1222              		.loc 1 781 3 view .LVU376
 783:Drivers/STM32G4xx_HAL_Driver/Src/stm32g4xx_hal_dac_ex.c ****   uint32_t trimmingvalue;
 1223              		.loc 1 783 3 view .LVU377
 784:Drivers/STM32G4xx_HAL_Driver/Src/stm32g4xx_hal_dac_ex.c ****   uint32_t delta;
 1224              		.loc 1 784 3 view .LVU378
 785:Drivers/STM32G4xx_HAL_Driver/Src/stm32g4xx_hal_dac_ex.c **** 
 1225              		.loc 1 785 3 view .LVU379
 788:Drivers/STM32G4xx_HAL_Driver/Src/stm32g4xx_hal_dac_ex.c **** 
 1226              		.loc 1 788 3 view .LVU380
 791:Drivers/STM32G4xx_HAL_Driver/Src/stm32g4xx_hal_dac_ex.c **** 
 1227              		.loc 1 791 3 view .LVU381
 795:Drivers/STM32G4xx_HAL_Driver/Src/stm32g4xx_hal_dac_ex.c ****   {
 1228              		.loc 1 795 3 view .LVU382
 780:Drivers/STM32G4xx_HAL_Driver/Src/stm32g4xx_hal_dac_ex.c ****   HAL_StatusTypeDef status = HAL_OK;
 1229              		.loc 1 780 1 is_stmt 0 view .LVU383
 1230 0000 2DE9F04F 		push	{r4, r5, r6, r7, r8, r9, r10, fp, lr}
 1231              	.LCFI12:
 1232              		.cfi_def_cfa_offset 36
 1233              		.cfi_offset 4, -36
 1234              		.cfi_offset 5, -32
 1235              		.cfi_offset 6, -28
 1236              		.cfi_offset 7, -24
 1237              		.cfi_offset 8, -20
 1238              		.cfi_offset 9, -16
 1239              		.cfi_offset 10, -12
 1240              		.cfi_offset 11, -8
 1241              		.cfi_offset 14, -4
 1242 0004 8846     		mov	r8, r1
 1243 0006 85B0     		sub	sp, sp, #20
 1244              	.LCFI13:
 1245              		.cfi_def_cfa_offset 56
 780:Drivers/STM32G4xx_HAL_Driver/Src/stm32g4xx_hal_dac_ex.c ****   HAL_StatusTypeDef status = HAL_OK;
 1246              		.loc 1 780 1 view .LVU384
 1247 0008 1546     		mov	r5, r2
 795:Drivers/STM32G4xx_HAL_Driver/Src/stm32g4xx_hal_dac_ex.c ****   {
 1248              		.loc 1 795 6 view .LVU385
 1249 000a 0446     		mov	r4, r0
 1250 000c 0028     		cmp	r0, #0
 1251 000e 7CD0     		beq	.L90
 799:Drivers/STM32G4xx_HAL_Driver/Src/stm32g4xx_hal_dac_ex.c ****   {
 1252              		.loc 1 799 8 is_stmt 1 view .LVU386
 799:Drivers/STM32G4xx_HAL_Driver/Src/stm32g4xx_hal_dac_ex.c ****   {
 1253              		.loc 1 799 16 is_stmt 0 view .LVU387
 1254 0010 0379     		ldrb	r3, [r0, #4]	@ zero_extendqisi2
ARM GAS  /tmp/ccrXORvc.s 			page 43


 799:Drivers/STM32G4xx_HAL_Driver/Src/stm32g4xx_hal_dac_ex.c ****   {
 1255              		.loc 1 799 11 view .LVU388
 1256 0012 022B     		cmp	r3, #2
 1257 0014 79D0     		beq	.L90
 806:Drivers/STM32G4xx_HAL_Driver/Src/stm32g4xx_hal_dac_ex.c **** 
 1258              		.loc 1 806 5 is_stmt 1 view .LVU389
 806:Drivers/STM32G4xx_HAL_Driver/Src/stm32g4xx_hal_dac_ex.c **** 
 1259              		.loc 1 806 5 view .LVU390
 1260 0016 4379     		ldrb	r3, [r0, #5]	@ zero_extendqisi2
 1261 0018 012B     		cmp	r3, #1
 1262 001a 78D0     		beq	.L91
 806:Drivers/STM32G4xx_HAL_Driver/Src/stm32g4xx_hal_dac_ex.c **** 
 1263              		.loc 1 806 5 discriminator 2 view .LVU391
 809:Drivers/STM32G4xx_HAL_Driver/Src/stm32g4xx_hal_dac_ex.c **** 
 1264              		.loc 1 809 33 is_stmt 0 discriminator 2 view .LVU392
 1265 001c 2268     		ldr	r2, [r4]
 1266              	.LVL88:
 806:Drivers/STM32G4xx_HAL_Driver/Src/stm32g4xx_hal_dac_ex.c **** 
 1267              		.loc 1 806 5 discriminator 2 view .LVU393
 1268 001e 0120     		movs	r0, #1
 1269              	.LVL89:
 806:Drivers/STM32G4xx_HAL_Driver/Src/stm32g4xx_hal_dac_ex.c **** 
 1270              		.loc 1 806 5 discriminator 2 view .LVU394
 1271 0020 6071     		strb	r0, [r4, #5]
 806:Drivers/STM32G4xx_HAL_Driver/Src/stm32g4xx_hal_dac_ex.c **** 
 1272              		.loc 1 806 5 is_stmt 1 discriminator 2 view .LVU395
 809:Drivers/STM32G4xx_HAL_Driver/Src/stm32g4xx_hal_dac_ex.c **** 
 1273              		.loc 1 809 5 discriminator 2 view .LVU396
 809:Drivers/STM32G4xx_HAL_Driver/Src/stm32g4xx_hal_dac_ex.c **** 
 1274              		.loc 1 809 78 is_stmt 0 discriminator 2 view .LVU397
 1275 0022 05F0100B 		and	fp, r5, #16
 809:Drivers/STM32G4xx_HAL_Driver/Src/stm32g4xx_hal_dac_ex.c **** 
 1276              		.loc 1 809 66 discriminator 2 view .LVU398
 1277 0026 0723     		movs	r3, #7
 809:Drivers/STM32G4xx_HAL_Driver/Src/stm32g4xx_hal_dac_ex.c **** 
 1278              		.loc 1 809 43 discriminator 2 view .LVU399
 1279 0028 D66B     		ldr	r6, [r2, #60]
 809:Drivers/STM32G4xx_HAL_Driver/Src/stm32g4xx_hal_dac_ex.c **** 
 1280              		.loc 1 809 66 discriminator 2 view .LVU400
 1281 002a 03FA0BF7 		lsl	r7, r3, fp
 1282              	.LVL90:
 812:Drivers/STM32G4xx_HAL_Driver/Src/stm32g4xx_hal_dac_ex.c ****     /* Wait for ready bit to be de-asserted */
 1283              		.loc 1 812 5 is_stmt 1 discriminator 2 view .LVU401
 1284 002e 1368     		ldr	r3, [r2]
 1285 0030 00FA0BF1 		lsl	r1, r0, fp
 1286              	.LVL91:
 812:Drivers/STM32G4xx_HAL_Driver/Src/stm32g4xx_hal_dac_ex.c ****     /* Wait for ready bit to be de-asserted */
 1287              		.loc 1 812 5 is_stmt 0 discriminator 2 view .LVU402
 1288 0034 23EA0103 		bic	r3, r3, r1
 1289 0038 1360     		str	r3, [r2]
 814:Drivers/STM32G4xx_HAL_Driver/Src/stm32g4xx_hal_dac_ex.c **** 
 1290              		.loc 1 814 5 is_stmt 1 discriminator 2 view .LVU403
 1291 003a FFF7FEFF 		bl	HAL_Delay
 1292              	.LVL92:
 817:Drivers/STM32G4xx_HAL_Driver/Src/stm32g4xx_hal_dac_ex.c **** 
 1293              		.loc 1 817 5 discriminator 2 view .LVU404
 1294 003e 2368     		ldr	r3, [r4]
ARM GAS  /tmp/ccrXORvc.s 			page 44


 1295 0040 DA6B     		ldr	r2, [r3, #60]
 1296 0042 22EA0702 		bic	r2, r2, r7
 1297 0046 DA63     		str	r2, [r3, #60]
 820:Drivers/STM32G4xx_HAL_Driver/Src/stm32g4xx_hal_dac_ex.c **** 
 1298              		.loc 1 820 5 discriminator 2 view .LVU405
 820:Drivers/STM32G4xx_HAL_Driver/Src/stm32g4xx_hal_dac_ex.c **** 
 1299              		.loc 1 820 9 is_stmt 0 discriminator 2 view .LVU406
 1300 0048 0393     		str	r3, [sp, #12]
 822:Drivers/STM32G4xx_HAL_Driver/Src/stm32g4xx_hal_dac_ex.c ****     {
 1301              		.loc 1 822 5 is_stmt 1 discriminator 2 view .LVU407
 824:Drivers/STM32G4xx_HAL_Driver/Src/stm32g4xx_hal_dac_ex.c ****     }
 1302              		.loc 1 824 11 is_stmt 0 discriminator 2 view .LVU408
 1303 004a 039A     		ldr	r2, [sp, #12]
 822:Drivers/STM32G4xx_HAL_Driver/Src/stm32g4xx_hal_dac_ex.c ****     {
 1304              		.loc 1 822 8 discriminator 2 view .LVU409
 1305 004c 002D     		cmp	r5, #0
 1306 004e 5AD1     		bne	.L83
 824:Drivers/STM32G4xx_HAL_Driver/Src/stm32g4xx_hal_dac_ex.c ****     }
 1307              		.loc 1 824 7 is_stmt 1 view .LVU410
 824:Drivers/STM32G4xx_HAL_Driver/Src/stm32g4xx_hal_dac_ex.c ****     }
 1308              		.loc 1 824 11 is_stmt 0 view .LVU411
 1309 0050 0832     		adds	r2, r2, #8
 1310              	.L93:
 828:Drivers/STM32G4xx_HAL_Driver/Src/stm32g4xx_hal_dac_ex.c ****     }
 1311              		.loc 1 828 11 view .LVU412
 1312 0052 0392     		str	r2, [sp, #12]
 831:Drivers/STM32G4xx_HAL_Driver/Src/stm32g4xx_hal_dac_ex.c **** 
 1313              		.loc 1 831 5 is_stmt 1 view .LVU413
 831:Drivers/STM32G4xx_HAL_Driver/Src/stm32g4xx_hal_dac_ex.c **** 
 1314              		.loc 1 831 6 is_stmt 0 view .LVU414
 1315 0054 039A     		ldr	r2, [sp, #12]
 831:Drivers/STM32G4xx_HAL_Driver/Src/stm32g4xx_hal_dac_ex.c **** 
 1316              		.loc 1 831 28 view .LVU415
 1317 0056 4FF40061 		mov	r1, #2048
 1318 005a 1160     		str	r1, [r2]
 835:Drivers/STM32G4xx_HAL_Driver/Src/stm32g4xx_hal_dac_ex.c **** 
 1319              		.loc 1 835 5 is_stmt 1 view .LVU416
 1320 005c 1A68     		ldr	r2, [r3]
 1321 005e 4FF4804A 		mov	r10, #16384
 1322 0062 0AFA0BFA 		lsl	r10, r10, fp
 844:Drivers/STM32G4xx_HAL_Driver/Src/stm32g4xx_hal_dac_ex.c **** 
 1323              		.loc 1 844 7 is_stmt 0 view .LVU417
 1324 0066 1F25     		movs	r5, #31
 1325              	.LVL93:
 835:Drivers/STM32G4xx_HAL_Driver/Src/stm32g4xx_hal_dac_ex.c **** 
 1326              		.loc 1 835 5 view .LVU418
 1327 0068 42EA0A02 		orr	r2, r2, r10
 844:Drivers/STM32G4xx_HAL_Driver/Src/stm32g4xx_hal_dac_ex.c **** 
 1328              		.loc 1 844 7 view .LVU419
 1329 006c 05FA0BF5 		lsl	r5, r5, fp
 835:Drivers/STM32G4xx_HAL_Driver/Src/stm32g4xx_hal_dac_ex.c **** 
 1330              		.loc 1 835 5 view .LVU420
 1331 0070 1A60     		str	r2, [r3]
 839:Drivers/STM32G4xx_HAL_Driver/Src/stm32g4xx_hal_dac_ex.c ****     delta = 8U;
 1332              		.loc 1 839 5 is_stmt 1 view .LVU421
 1333              	.LVL94:
 840:Drivers/STM32G4xx_HAL_Driver/Src/stm32g4xx_hal_dac_ex.c ****     while (delta != 0U)
ARM GAS  /tmp/ccrXORvc.s 			page 45


 1334              		.loc 1 840 5 view .LVU422
 841:Drivers/STM32G4xx_HAL_Driver/Src/stm32g4xx_hal_dac_ex.c ****     {
 1335              		.loc 1 841 5 view .LVU423
 841:Drivers/STM32G4xx_HAL_Driver/Src/stm32g4xx_hal_dac_ex.c ****     {
 1336              		.loc 1 841 11 view .LVU424
 844:Drivers/STM32G4xx_HAL_Driver/Src/stm32g4xx_hal_dac_ex.c **** 
 1337              		.loc 1 844 7 is_stmt 0 view .LVU425
 1338 0072 ED43     		mvns	r5, r5
 1339 0074 0421     		movs	r1, #4
 840:Drivers/STM32G4xx_HAL_Driver/Src/stm32g4xx_hal_dac_ex.c ****     while (delta != 0U)
 1340              		.loc 1 840 11 view .LVU426
 1341 0076 0822     		movs	r2, #8
 839:Drivers/STM32G4xx_HAL_Driver/Src/stm32g4xx_hal_dac_ex.c ****     delta = 8U;
 1342              		.loc 1 839 19 view .LVU427
 1343 0078 4FF01009 		mov	r9, #16
 1344              	.LVL95:
 1345              	.L87:
 844:Drivers/STM32G4xx_HAL_Driver/Src/stm32g4xx_hal_dac_ex.c **** 
 1346              		.loc 1 844 7 view .LVU428
 1347 007c 2068     		ldr	r0, [r4]
 1348 007e 836B     		ldr	r3, [r0, #56]
 1349 0080 09FA0BFC 		lsl	ip, r9, fp
 1350 0084 2B40     		ands	r3, r3, r5
 1351 0086 43EA0C03 		orr	r3, r3, ip
 1352 008a 8363     		str	r3, [r0, #56]
 848:Drivers/STM32G4xx_HAL_Driver/Src/stm32g4xx_hal_dac_ex.c **** 
 1353              		.loc 1 848 7 view .LVU429
 1354 008c 0120     		movs	r0, #1
 1355 008e CDE90012 		strd	r1, r2, [sp]
 1356              	.LVL96:
 844:Drivers/STM32G4xx_HAL_Driver/Src/stm32g4xx_hal_dac_ex.c **** 
 1357              		.loc 1 844 7 is_stmt 1 view .LVU430
 848:Drivers/STM32G4xx_HAL_Driver/Src/stm32g4xx_hal_dac_ex.c **** 
 1358              		.loc 1 848 7 view .LVU431
 1359 0092 FFF7FEFF 		bl	HAL_Delay
 1360              	.LVL97:
 850:Drivers/STM32G4xx_HAL_Driver/Src/stm32g4xx_hal_dac_ex.c ****       {
 1361              		.loc 1 850 7 view .LVU432
 850:Drivers/STM32G4xx_HAL_Driver/Src/stm32g4xx_hal_dac_ex.c ****       {
 1362              		.loc 1 850 16 is_stmt 0 view .LVU433
 1363 0096 2068     		ldr	r0, [r4]
 850:Drivers/STM32G4xx_HAL_Driver/Src/stm32g4xx_hal_dac_ex.c ****       {
 1364              		.loc 1 850 10 view .LVU434
 1365 0098 DDE90012 		ldrd	r1, r2, [sp]
 853:Drivers/STM32G4xx_HAL_Driver/Src/stm32g4xx_hal_dac_ex.c ****       }
 1366              		.loc 1 853 9 is_stmt 1 view .LVU435
 850:Drivers/STM32G4xx_HAL_Driver/Src/stm32g4xx_hal_dac_ex.c ****       {
 1367              		.loc 1 850 26 is_stmt 0 view .LVU436
 1368 009c 436B     		ldr	r3, [r0, #52]
 850:Drivers/STM32G4xx_HAL_Driver/Src/stm32g4xx_hal_dac_ex.c ****       {
 1369              		.loc 1 850 10 view .LVU437
 1370 009e 3AEA0303 		bics	r3, r10, r3
 853:Drivers/STM32G4xx_HAL_Driver/Src/stm32g4xx_hal_dac_ex.c ****       }
 1371              		.loc 1 853 23 view .LVU438
 1372 00a2 0CBF     		ite	eq
 1373 00a4 A9EB0209 		subeq	r9, r9, r2
 1374              	.LVL98:
ARM GAS  /tmp/ccrXORvc.s 			page 46


 858:Drivers/STM32G4xx_HAL_Driver/Src/stm32g4xx_hal_dac_ex.c ****       }
 1375              		.loc 1 858 9 is_stmt 1 view .LVU439
 858:Drivers/STM32G4xx_HAL_Driver/Src/stm32g4xx_hal_dac_ex.c ****       }
 1376              		.loc 1 858 23 is_stmt 0 view .LVU440
 1377 00a8 9144     		addne	r9, r9, r2
 1378              	.LVL99:
 860:Drivers/STM32G4xx_HAL_Driver/Src/stm32g4xx_hal_dac_ex.c ****     }
 1379              		.loc 1 860 7 is_stmt 1 view .LVU441
 841:Drivers/STM32G4xx_HAL_Driver/Src/stm32g4xx_hal_dac_ex.c ****     {
 1380              		.loc 1 841 11 is_stmt 0 view .LVU442
 1381 00aa 0139     		subs	r1, r1, #1
 860:Drivers/STM32G4xx_HAL_Driver/Src/stm32g4xx_hal_dac_ex.c ****     }
 1382              		.loc 1 860 13 view .LVU443
 1383 00ac 4FEA5202 		lsr	r2, r2, #1
 1384              	.LVL100:
 841:Drivers/STM32G4xx_HAL_Driver/Src/stm32g4xx_hal_dac_ex.c ****     {
 1385              		.loc 1 841 11 is_stmt 1 view .LVU444
 1386 00b0 E4D1     		bne	.L87
 866:Drivers/STM32G4xx_HAL_Driver/Src/stm32g4xx_hal_dac_ex.c **** 
 1387              		.loc 1 866 5 view .LVU445
 1388 00b2 836B     		ldr	r3, [r0, #56]
 1389 00b4 09FA0BF2 		lsl	r2, r9, fp
 1390              	.LVL101:
 866:Drivers/STM32G4xx_HAL_Driver/Src/stm32g4xx_hal_dac_ex.c **** 
 1391              		.loc 1 866 5 is_stmt 0 view .LVU446
 1392 00b8 2B40     		ands	r3, r3, r5
 1393 00ba 1343     		orrs	r3, r3, r2
 1394 00bc 8363     		str	r3, [r0, #56]
 870:Drivers/STM32G4xx_HAL_Driver/Src/stm32g4xx_hal_dac_ex.c **** 
 1395              		.loc 1 870 5 is_stmt 1 view .LVU447
 1396 00be 0120     		movs	r0, #1
 1397 00c0 FFF7FEFF 		bl	HAL_Delay
 1398              	.LVL102:
 872:Drivers/STM32G4xx_HAL_Driver/Src/stm32g4xx_hal_dac_ex.c ****     {
 1399              		.loc 1 872 5 view .LVU448
 872:Drivers/STM32G4xx_HAL_Driver/Src/stm32g4xx_hal_dac_ex.c ****     {
 1400              		.loc 1 872 14 is_stmt 0 view .LVU449
 1401 00c4 2268     		ldr	r2, [r4]
 872:Drivers/STM32G4xx_HAL_Driver/Src/stm32g4xx_hal_dac_ex.c ****     {
 1402              		.loc 1 872 24 view .LVU450
 1403 00c6 536B     		ldr	r3, [r2, #52]
 872:Drivers/STM32G4xx_HAL_Driver/Src/stm32g4xx_hal_dac_ex.c ****     {
 1404              		.loc 1 872 8 view .LVU451
 1405 00c8 1AEA030F 		tst	r10, r3
 1406 00cc 07D1     		bne	.L88
 875:Drivers/STM32G4xx_HAL_Driver/Src/stm32g4xx_hal_dac_ex.c ****       /* Set right trimming */
 1407              		.loc 1 875 7 is_stmt 1 view .LVU452
 877:Drivers/STM32G4xx_HAL_Driver/Src/stm32g4xx_hal_dac_ex.c ****     }
 1408              		.loc 1 877 7 is_stmt 0 view .LVU453
 1409 00ce 936B     		ldr	r3, [r2, #56]
 875:Drivers/STM32G4xx_HAL_Driver/Src/stm32g4xx_hal_dac_ex.c ****       /* Set right trimming */
 1410              		.loc 1 875 20 view .LVU454
 1411 00d0 09F10109 		add	r9, r9, #1
 1412              	.LVL103:
 877:Drivers/STM32G4xx_HAL_Driver/Src/stm32g4xx_hal_dac_ex.c ****     }
 1413              		.loc 1 877 7 is_stmt 1 view .LVU455
 1414 00d4 1D40     		ands	r5, r5, r3
ARM GAS  /tmp/ccrXORvc.s 			page 47


 1415 00d6 09FA0BF3 		lsl	r3, r9, fp
 1416 00da 2B43     		orrs	r3, r3, r5
 1417 00dc 9363     		str	r3, [r2, #56]
 1418              	.L88:
 882:Drivers/STM32G4xx_HAL_Driver/Src/stm32g4xx_hal_dac_ex.c **** 
 1419              		.loc 1 882 5 view .LVU456
 1420 00de 1368     		ldr	r3, [r2]
 1421 00e0 23EA0A03 		bic	r3, r3, r10
 1422 00e4 1360     		str	r3, [r2]
 884:Drivers/STM32G4xx_HAL_Driver/Src/stm32g4xx_hal_dac_ex.c ****     sConfig->DAC_UserTrimming = DAC_TRIMMING_USER;
 1423              		.loc 1 884 5 view .LVU457
 888:Drivers/STM32G4xx_HAL_Driver/Src/stm32g4xx_hal_dac_ex.c **** 
 1424              		.loc 1 888 5 is_stmt 0 view .LVU458
 1425 00e6 D16B     		ldr	r1, [r2, #60]
 884:Drivers/STM32G4xx_HAL_Driver/Src/stm32g4xx_hal_dac_ex.c ****     sConfig->DAC_UserTrimming = DAC_TRIMMING_USER;
 1426              		.loc 1 884 32 view .LVU459
 1427 00e8 C8F82090 		str	r9, [r8, #32]
 885:Drivers/STM32G4xx_HAL_Driver/Src/stm32g4xx_hal_dac_ex.c **** 
 1428              		.loc 1 885 5 is_stmt 1 view .LVU460
 885:Drivers/STM32G4xx_HAL_Driver/Src/stm32g4xx_hal_dac_ex.c **** 
 1429              		.loc 1 885 31 is_stmt 0 view .LVU461
 1430 00ec 0123     		movs	r3, #1
 1431 00ee C8F81C30 		str	r3, [r8, #28]
 888:Drivers/STM32G4xx_HAL_Driver/Src/stm32g4xx_hal_dac_ex.c **** 
 1432              		.loc 1 888 5 is_stmt 1 view .LVU462
 1433 00f2 86EA0103 		eor	r3, r6, r1
 1434 00f6 3B40     		ands	r3, r3, r7
 1435 00f8 4B40     		eors	r3, r3, r1
 891:Drivers/STM32G4xx_HAL_Driver/Src/stm32g4xx_hal_dac_ex.c ****   }
 1436              		.loc 1 891 5 is_stmt 0 view .LVU463
 1437 00fa 0020     		movs	r0, #0
 888:Drivers/STM32G4xx_HAL_Driver/Src/stm32g4xx_hal_dac_ex.c **** 
 1438              		.loc 1 888 5 view .LVU464
 1439 00fc D363     		str	r3, [r2, #60]
 891:Drivers/STM32G4xx_HAL_Driver/Src/stm32g4xx_hal_dac_ex.c ****   }
 1440              		.loc 1 891 5 is_stmt 1 view .LVU465
 891:Drivers/STM32G4xx_HAL_Driver/Src/stm32g4xx_hal_dac_ex.c ****   }
 1441              		.loc 1 891 5 view .LVU466
 1442 00fe 6071     		strb	r0, [r4, #5]
 1443              	.LVL104:
 1444              	.L82:
 895:Drivers/STM32G4xx_HAL_Driver/Src/stm32g4xx_hal_dac_ex.c **** 
 1445              		.loc 1 895 1 is_stmt 0 view .LVU467
 1446 0100 05B0     		add	sp, sp, #20
 1447              	.LCFI14:
 1448              		.cfi_remember_state
 1449              		.cfi_def_cfa_offset 36
 1450              		@ sp needed
 1451 0102 BDE8F08F 		pop	{r4, r5, r6, r7, r8, r9, r10, fp, pc}
 1452              	.LVL105:
 1453              	.L83:
 1454              	.LCFI15:
 1455              		.cfi_restore_state
 828:Drivers/STM32G4xx_HAL_Driver/Src/stm32g4xx_hal_dac_ex.c ****     }
 1456              		.loc 1 828 7 is_stmt 1 view .LVU468
 828:Drivers/STM32G4xx_HAL_Driver/Src/stm32g4xx_hal_dac_ex.c ****     }
 1457              		.loc 1 828 11 is_stmt 0 view .LVU469
ARM GAS  /tmp/ccrXORvc.s 			page 48


 1458 0106 1432     		adds	r2, r2, #20
 1459 0108 A3E7     		b	.L93
 1460              	.LVL106:
 1461              	.L90:
 797:Drivers/STM32G4xx_HAL_Driver/Src/stm32g4xx_hal_dac_ex.c ****   }
 1462              		.loc 1 797 12 view .LVU470
 1463 010a 0120     		movs	r0, #1
 1464              	.LVL107:
 797:Drivers/STM32G4xx_HAL_Driver/Src/stm32g4xx_hal_dac_ex.c ****   }
 1465              		.loc 1 797 12 view .LVU471
 1466 010c F8E7     		b	.L82
 1467              	.LVL108:
 1468              	.L91:
 806:Drivers/STM32G4xx_HAL_Driver/Src/stm32g4xx_hal_dac_ex.c **** 
 1469              		.loc 1 806 5 view .LVU472
 1470 010e 0220     		movs	r0, #2
 1471              	.LVL109:
 806:Drivers/STM32G4xx_HAL_Driver/Src/stm32g4xx_hal_dac_ex.c **** 
 1472              		.loc 1 806 5 view .LVU473
 1473 0110 F6E7     		b	.L82
 1474              		.cfi_endproc
 1475              	.LFE371:
 1477              		.section	.text.HAL_DACEx_SetUserTrimming,"ax",%progbits
 1478              		.align	1
 1479              		.global	HAL_DACEx_SetUserTrimming
 1480              		.syntax unified
 1481              		.thumb
 1482              		.thumb_func
 1483              		.fpu fpv4-sp-d16
 1485              	HAL_DACEx_SetUserTrimming:
 1486              	.LVL110:
 1487              	.LFB372:
 915:Drivers/STM32G4xx_HAL_Driver/Src/stm32g4xx_hal_dac_ex.c ****   HAL_StatusTypeDef status = HAL_OK;
 1488              		.loc 1 915 1 is_stmt 1 view -0
 1489              		.cfi_startproc
 1490              		@ args = 0, pretend = 0, frame = 0
 1491              		@ frame_needed = 0, uses_anonymous_args = 0
 916:Drivers/STM32G4xx_HAL_Driver/Src/stm32g4xx_hal_dac_ex.c **** 
 1492              		.loc 1 916 3 view .LVU475
 919:Drivers/STM32G4xx_HAL_Driver/Src/stm32g4xx_hal_dac_ex.c ****   assert_param(IS_DAC_NEWTRIMMINGVALUE(NewTrimmingValue));
 1493              		.loc 1 919 3 view .LVU476
 920:Drivers/STM32G4xx_HAL_Driver/Src/stm32g4xx_hal_dac_ex.c **** 
 1494              		.loc 1 920 3 view .LVU477
 923:Drivers/STM32G4xx_HAL_Driver/Src/stm32g4xx_hal_dac_ex.c ****   {
 1495              		.loc 1 923 3 view .LVU478
 915:Drivers/STM32G4xx_HAL_Driver/Src/stm32g4xx_hal_dac_ex.c ****   HAL_StatusTypeDef status = HAL_OK;
 1496              		.loc 1 915 1 is_stmt 0 view .LVU479
 1497 0000 70B5     		push	{r4, r5, r6, lr}
 1498              	.LCFI16:
 1499              		.cfi_def_cfa_offset 16
 1500              		.cfi_offset 4, -16
 1501              		.cfi_offset 5, -12
 1502              		.cfi_offset 6, -8
 1503              		.cfi_offset 14, -4
 923:Drivers/STM32G4xx_HAL_Driver/Src/stm32g4xx_hal_dac_ex.c ****   {
 1504              		.loc 1 923 6 view .LVU480
 1505 0002 A8B1     		cbz	r0, .L96
ARM GAS  /tmp/ccrXORvc.s 			page 49


 930:Drivers/STM32G4xx_HAL_Driver/Src/stm32g4xx_hal_dac_ex.c **** 
 1506              		.loc 1 930 5 is_stmt 1 view .LVU481
 930:Drivers/STM32G4xx_HAL_Driver/Src/stm32g4xx_hal_dac_ex.c **** 
 1507              		.loc 1 930 5 view .LVU482
 1508 0004 4479     		ldrb	r4, [r0, #5]	@ zero_extendqisi2
 1509 0006 012C     		cmp	r4, #1
 1510 0008 14D0     		beq	.L97
 930:Drivers/STM32G4xx_HAL_Driver/Src/stm32g4xx_hal_dac_ex.c **** 
 1511              		.loc 1 930 5 discriminator 2 view .LVU483
 930:Drivers/STM32G4xx_HAL_Driver/Src/stm32g4xx_hal_dac_ex.c **** 
 1512              		.loc 1 930 5 discriminator 2 view .LVU484
 933:Drivers/STM32G4xx_HAL_Driver/Src/stm32g4xx_hal_dac_ex.c **** 
 1513              		.loc 1 933 5 discriminator 2 view .LVU485
 1514 000a 0668     		ldr	r6, [r0]
 1515 000c 02F01002 		and	r2, r2, #16
 1516              	.LVL111:
 933:Drivers/STM32G4xx_HAL_Driver/Src/stm32g4xx_hal_dac_ex.c **** 
 1517              		.loc 1 933 5 is_stmt 0 discriminator 2 view .LVU486
 1518 0010 B46B     		ldr	r4, [r6, #56]
 1519 0012 1F25     		movs	r5, #31
 1520 0014 9540     		lsls	r5, r5, r2
 1521 0016 24EA0504 		bic	r4, r4, r5
 1522 001a 03FA02F2 		lsl	r2, r3, r2
 1523 001e 2243     		orrs	r2, r2, r4
 1524 0020 B263     		str	r2, [r6, #56]
 936:Drivers/STM32G4xx_HAL_Driver/Src/stm32g4xx_hal_dac_ex.c ****     sConfig->DAC_TrimmingValue = NewTrimmingValue;
 1525              		.loc 1 936 5 is_stmt 1 discriminator 2 view .LVU487
 936:Drivers/STM32G4xx_HAL_Driver/Src/stm32g4xx_hal_dac_ex.c ****     sConfig->DAC_TrimmingValue = NewTrimmingValue;
 1526              		.loc 1 936 31 is_stmt 0 discriminator 2 view .LVU488
 1527 0022 0122     		movs	r2, #1
 937:Drivers/STM32G4xx_HAL_Driver/Src/stm32g4xx_hal_dac_ex.c **** 
 1528              		.loc 1 937 32 discriminator 2 view .LVU489
 1529 0024 C1E90723 		strd	r2, r3, [r1, #28]
 940:Drivers/STM32G4xx_HAL_Driver/Src/stm32g4xx_hal_dac_ex.c ****   }
 1530              		.loc 1 940 5 is_stmt 1 discriminator 2 view .LVU490
 940:Drivers/STM32G4xx_HAL_Driver/Src/stm32g4xx_hal_dac_ex.c ****   }
 1531              		.loc 1 940 5 discriminator 2 view .LVU491
 1532 0028 0023     		movs	r3, #0
 1533              	.LVL112:
 940:Drivers/STM32G4xx_HAL_Driver/Src/stm32g4xx_hal_dac_ex.c ****   }
 1534              		.loc 1 940 5 is_stmt 0 discriminator 2 view .LVU492
 1535 002a 4371     		strb	r3, [r0, #5]
 1536              	.LVL113:
 916:Drivers/STM32G4xx_HAL_Driver/Src/stm32g4xx_hal_dac_ex.c **** 
 1537              		.loc 1 916 21 discriminator 2 view .LVU493
 1538 002c 1846     		mov	r0, r3
 1539              	.LVL114:
 1540              	.L95:
 943:Drivers/STM32G4xx_HAL_Driver/Src/stm32g4xx_hal_dac_ex.c **** 
 1541              		.loc 1 943 1 view .LVU494
 1542 002e 70BD     		pop	{r4, r5, r6, pc}
 1543              	.LVL115:
 1544              	.L96:
 925:Drivers/STM32G4xx_HAL_Driver/Src/stm32g4xx_hal_dac_ex.c ****   }
 1545              		.loc 1 925 12 view .LVU495
 1546 0030 0120     		movs	r0, #1
 1547              	.LVL116:
ARM GAS  /tmp/ccrXORvc.s 			page 50


 925:Drivers/STM32G4xx_HAL_Driver/Src/stm32g4xx_hal_dac_ex.c ****   }
 1548              		.loc 1 925 12 view .LVU496
 1549 0032 FCE7     		b	.L95
 1550              	.LVL117:
 1551              	.L97:
 930:Drivers/STM32G4xx_HAL_Driver/Src/stm32g4xx_hal_dac_ex.c **** 
 1552              		.loc 1 930 5 view .LVU497
 1553 0034 0220     		movs	r0, #2
 1554              	.LVL118:
 930:Drivers/STM32G4xx_HAL_Driver/Src/stm32g4xx_hal_dac_ex.c **** 
 1555              		.loc 1 930 5 view .LVU498
 1556 0036 FAE7     		b	.L95
 1557              		.cfi_endproc
 1558              	.LFE372:
 1560              		.section	.text.HAL_DACEx_GetTrimOffset,"ax",%progbits
 1561              		.align	1
 1562              		.global	HAL_DACEx_GetTrimOffset
 1563              		.syntax unified
 1564              		.thumb
 1565              		.thumb_func
 1566              		.fpu fpv4-sp-d16
 1568              	HAL_DACEx_GetTrimOffset:
 1569              	.LVL119:
 1570              	.LFB373:
 960:Drivers/STM32G4xx_HAL_Driver/Src/stm32g4xx_hal_dac_ex.c ****   /* Check the parameter */
 1571              		.loc 1 960 1 is_stmt 1 view -0
 1572              		.cfi_startproc
 1573              		@ args = 0, pretend = 0, frame = 0
 1574              		@ frame_needed = 0, uses_anonymous_args = 0
 1575              		@ link register save eliminated.
 962:Drivers/STM32G4xx_HAL_Driver/Src/stm32g4xx_hal_dac_ex.c **** 
 1576              		.loc 1 962 3 view .LVU500
 965:Drivers/STM32G4xx_HAL_Driver/Src/stm32g4xx_hal_dac_ex.c **** }
 1577              		.loc 1 965 3 view .LVU501
 965:Drivers/STM32G4xx_HAL_Driver/Src/stm32g4xx_hal_dac_ex.c **** }
 1578              		.loc 1 965 16 is_stmt 0 view .LVU502
 1579 0000 0368     		ldr	r3, [r0]
 965:Drivers/STM32G4xx_HAL_Driver/Src/stm32g4xx_hal_dac_ex.c **** }
 1580              		.loc 1 965 62 view .LVU503
 1581 0002 01F01001 		and	r1, r1, #16
 1582              	.LVL120:
 965:Drivers/STM32G4xx_HAL_Driver/Src/stm32g4xx_hal_dac_ex.c **** }
 1583              		.loc 1 965 26 view .LVU504
 1584 0006 986B     		ldr	r0, [r3, #56]
 1585              	.LVL121:
 965:Drivers/STM32G4xx_HAL_Driver/Src/stm32g4xx_hal_dac_ex.c **** }
 1586              		.loc 1 965 50 view .LVU505
 1587 0008 1F23     		movs	r3, #31
 1588 000a 8B40     		lsls	r3, r3, r1
 965:Drivers/STM32G4xx_HAL_Driver/Src/stm32g4xx_hal_dac_ex.c **** }
 1589              		.loc 1 965 32 view .LVU506
 1590 000c 1840     		ands	r0, r0, r3
 966:Drivers/STM32G4xx_HAL_Driver/Src/stm32g4xx_hal_dac_ex.c **** 
 1591              		.loc 1 966 1 view .LVU507
 1592 000e C840     		lsrs	r0, r0, r1
 1593 0010 7047     		bx	lr
 1594              		.cfi_endproc
ARM GAS  /tmp/ccrXORvc.s 			page 51


 1595              	.LFE373:
 1597              		.section	.text.HAL_DACEx_DualGetValue,"ax",%progbits
 1598              		.align	1
 1599              		.global	HAL_DACEx_DualGetValue
 1600              		.syntax unified
 1601              		.thumb
 1602              		.thumb_func
 1603              		.fpu fpv4-sp-d16
 1605              	HAL_DACEx_DualGetValue:
 1606              	.LVL122:
 1607              	.LFB374:
 993:Drivers/STM32G4xx_HAL_Driver/Src/stm32g4xx_hal_dac_ex.c ****   uint32_t tmp = 0U;
 1608              		.loc 1 993 1 is_stmt 1 view -0
 1609              		.cfi_startproc
 1610              		@ args = 0, pretend = 0, frame = 0
 1611              		@ frame_needed = 0, uses_anonymous_args = 0
 1612              		@ link register save eliminated.
 994:Drivers/STM32G4xx_HAL_Driver/Src/stm32g4xx_hal_dac_ex.c **** 
 1613              		.loc 1 994 3 view .LVU509
 996:Drivers/STM32G4xx_HAL_Driver/Src/stm32g4xx_hal_dac_ex.c **** 
 1614              		.loc 1 996 3 view .LVU510
 996:Drivers/STM32G4xx_HAL_Driver/Src/stm32g4xx_hal_dac_ex.c **** 
 1615              		.loc 1 996 14 is_stmt 0 view .LVU511
 1616 0000 0368     		ldr	r3, [r0]
 996:Drivers/STM32G4xx_HAL_Driver/Src/stm32g4xx_hal_dac_ex.c **** 
 1617              		.loc 1 996 24 view .LVU512
 1618 0002 DA6A     		ldr	r2, [r3, #44]
 1619              	.LVL123:
 998:Drivers/STM32G4xx_HAL_Driver/Src/stm32g4xx_hal_dac_ex.c **** 
 1620              		.loc 1 998 3 is_stmt 1 view .LVU513
 998:Drivers/STM32G4xx_HAL_Driver/Src/stm32g4xx_hal_dac_ex.c **** 
 1621              		.loc 1 998 24 is_stmt 0 view .LVU514
 1622 0004 186B     		ldr	r0, [r3, #48]
 1623              	.LVL124:
1001:Drivers/STM32G4xx_HAL_Driver/Src/stm32g4xx_hal_dac_ex.c **** }
 1624              		.loc 1 1001 3 is_stmt 1 view .LVU515
1002:Drivers/STM32G4xx_HAL_Driver/Src/stm32g4xx_hal_dac_ex.c **** 
 1625              		.loc 1 1002 1 is_stmt 0 view .LVU516
 1626 0006 42EA0040 		orr	r0, r2, r0, lsl #16
 1627              	.LVL125:
1002:Drivers/STM32G4xx_HAL_Driver/Src/stm32g4xx_hal_dac_ex.c **** 
 1628              		.loc 1 1002 1 view .LVU517
 1629 000a 7047     		bx	lr
 1630              		.cfi_endproc
 1631              	.LFE374:
 1633              		.text
 1634              	.Letext0:
 1635              		.file 2 "/usr/lib/gcc/arm-none-eabi/9.2.1/include/stdint.h"
 1636              		.file 3 "Drivers/CMSIS/Include/core_cm4.h"
 1637              		.file 4 "Drivers/CMSIS/Device/ST/STM32G4xx/Include/system_stm32g4xx.h"
 1638              		.file 5 "Drivers/CMSIS/Device/ST/STM32G4xx/Include/stm32g474xx.h"
 1639              		.file 6 "Drivers/CMSIS/Device/ST/STM32G4xx/Include/stm32g4xx.h"
 1640              		.file 7 "Drivers/STM32G4xx_HAL_Driver/Inc/stm32g4xx_hal_def.h"
 1641              		.file 8 "Drivers/STM32G4xx_HAL_Driver/Inc/stm32g4xx_hal_dma.h"
 1642              		.file 9 "Drivers/STM32G4xx_HAL_Driver/Inc/stm32g4xx_hal_dac.h"
 1643              		.file 10 "Drivers/STM32G4xx_HAL_Driver/Inc/stm32g4xx_hal_flash.h"
 1644              		.file 11 "Drivers/STM32G4xx_HAL_Driver/Inc/stm32g4xx_hal.h"
ARM GAS  /tmp/ccrXORvc.s 			page 52


ARM GAS  /tmp/ccrXORvc.s 			page 53

