ARM GAS  /tmp/ccDOtdDj.s 			page 1


   1              		.cpu cortex-m4
   2              		.eabi_attribute 27, 1
   3              		.eabi_attribute 28, 1
   4              		.eabi_attribute 20, 1
   5              		.eabi_attribute 21, 1
   6              		.eabi_attribute 23, 3
   7              		.eabi_attribute 24, 1
   8              		.eabi_attribute 25, 1
   9              		.eabi_attribute 26, 1
  10              		.eabi_attribute 30, 4
  11              		.eabi_attribute 34, 1
  12              		.eabi_attribute 18, 4
  13              		.file	"stm32g4xx_hal_comp.c"
  14              		.text
  15              	.Ltext0:
  16              		.cfi_sections	.debug_frame
  17              		.section	.text.HAL_COMP_MspInit,"ax",%progbits
  18              		.align	1
  19              		.weak	HAL_COMP_MspInit
  20              		.arch armv7e-m
  21              		.syntax unified
  22              		.thumb
  23              		.thumb_func
  24              		.fpu fpv4-sp-d16
  26              	HAL_COMP_MspInit:
  27              	.LVL0:
  28              	.LFB359:
  29              		.file 1 "Drivers/STM32G4xx_HAL_Driver/Src/stm32g4xx_hal_comp.c"
   1:Drivers/STM32G4xx_HAL_Driver/Src/stm32g4xx_hal_comp.c **** /**
   2:Drivers/STM32G4xx_HAL_Driver/Src/stm32g4xx_hal_comp.c ****   ******************************************************************************
   3:Drivers/STM32G4xx_HAL_Driver/Src/stm32g4xx_hal_comp.c ****   * @file    stm32g4xx_hal_comp.c
   4:Drivers/STM32G4xx_HAL_Driver/Src/stm32g4xx_hal_comp.c ****   * @author  MCD Application Team
   5:Drivers/STM32G4xx_HAL_Driver/Src/stm32g4xx_hal_comp.c ****   * @brief   COMP HAL module driver.
   6:Drivers/STM32G4xx_HAL_Driver/Src/stm32g4xx_hal_comp.c ****   *          This file provides firmware functions to manage the following
   7:Drivers/STM32G4xx_HAL_Driver/Src/stm32g4xx_hal_comp.c ****   *          functionalities of the COMP peripheral:
   8:Drivers/STM32G4xx_HAL_Driver/Src/stm32g4xx_hal_comp.c ****   *           + Initialization and de-initialization functions
   9:Drivers/STM32G4xx_HAL_Driver/Src/stm32g4xx_hal_comp.c ****   *           + Start/Stop operation functions in polling mode
  10:Drivers/STM32G4xx_HAL_Driver/Src/stm32g4xx_hal_comp.c ****   *           + Start/Stop operation functions in interrupt mode (through EXTI interrupt)
  11:Drivers/STM32G4xx_HAL_Driver/Src/stm32g4xx_hal_comp.c ****   *           + Peripheral control functions
  12:Drivers/STM32G4xx_HAL_Driver/Src/stm32g4xx_hal_comp.c ****   *           + Peripheral state functions
  13:Drivers/STM32G4xx_HAL_Driver/Src/stm32g4xx_hal_comp.c ****   *
  14:Drivers/STM32G4xx_HAL_Driver/Src/stm32g4xx_hal_comp.c ****   @verbatim
  15:Drivers/STM32G4xx_HAL_Driver/Src/stm32g4xx_hal_comp.c **** ================================================================================
  16:Drivers/STM32G4xx_HAL_Driver/Src/stm32g4xx_hal_comp.c ****           ##### COMP Peripheral features #####
  17:Drivers/STM32G4xx_HAL_Driver/Src/stm32g4xx_hal_comp.c **** ================================================================================
  18:Drivers/STM32G4xx_HAL_Driver/Src/stm32g4xx_hal_comp.c **** 
  19:Drivers/STM32G4xx_HAL_Driver/Src/stm32g4xx_hal_comp.c ****   [..]
  20:Drivers/STM32G4xx_HAL_Driver/Src/stm32g4xx_hal_comp.c ****       The STM32G4xx device family integrates seven analog comparators instances:
  21:Drivers/STM32G4xx_HAL_Driver/Src/stm32g4xx_hal_comp.c ****       COMP1, COMP2, COMP3, COMP4, COMP5, COMP6 and COMP7.
  22:Drivers/STM32G4xx_HAL_Driver/Src/stm32g4xx_hal_comp.c ****       (#) Comparators input minus (inverting input) and input plus (non inverting input)
  23:Drivers/STM32G4xx_HAL_Driver/Src/stm32g4xx_hal_comp.c ****           can be set to internal references or to GPIO pins
  24:Drivers/STM32G4xx_HAL_Driver/Src/stm32g4xx_hal_comp.c ****           (refer to GPIO list in reference manual).
  25:Drivers/STM32G4xx_HAL_Driver/Src/stm32g4xx_hal_comp.c **** 
  26:Drivers/STM32G4xx_HAL_Driver/Src/stm32g4xx_hal_comp.c ****       (#) Comparators output level is available using HAL_COMP_GetOutputLevel()
  27:Drivers/STM32G4xx_HAL_Driver/Src/stm32g4xx_hal_comp.c ****           and can be redirected to other peripherals: GPIO pins (in mode
  28:Drivers/STM32G4xx_HAL_Driver/Src/stm32g4xx_hal_comp.c ****           alternate functions for comparator), timers.
  29:Drivers/STM32G4xx_HAL_Driver/Src/stm32g4xx_hal_comp.c ****           (refer to GPIO list in reference manual).
ARM GAS  /tmp/ccDOtdDj.s 			page 2


  30:Drivers/STM32G4xx_HAL_Driver/Src/stm32g4xx_hal_comp.c **** 
  31:Drivers/STM32G4xx_HAL_Driver/Src/stm32g4xx_hal_comp.c ****       (#) The comparators have interrupt capability through the EXTI controller
  32:Drivers/STM32G4xx_HAL_Driver/Src/stm32g4xx_hal_comp.c ****           with wake-up from sleep and stop modes.
  33:Drivers/STM32G4xx_HAL_Driver/Src/stm32g4xx_hal_comp.c **** 
  34:Drivers/STM32G4xx_HAL_Driver/Src/stm32g4xx_hal_comp.c ****           From the corresponding IRQ handler, the right interrupt source can be retrieved
  35:Drivers/STM32G4xx_HAL_Driver/Src/stm32g4xx_hal_comp.c ****           using macro __HAL_COMP_COMPx_EXTI_GET_FLAG().
  36:Drivers/STM32G4xx_HAL_Driver/Src/stm32g4xx_hal_comp.c **** 
  37:Drivers/STM32G4xx_HAL_Driver/Src/stm32g4xx_hal_comp.c ****             ##### How to use this driver #####
  38:Drivers/STM32G4xx_HAL_Driver/Src/stm32g4xx_hal_comp.c **** ================================================================================
  39:Drivers/STM32G4xx_HAL_Driver/Src/stm32g4xx_hal_comp.c ****   [..]
  40:Drivers/STM32G4xx_HAL_Driver/Src/stm32g4xx_hal_comp.c ****       This driver provides functions to configure and program the comparator instances
  41:Drivers/STM32G4xx_HAL_Driver/Src/stm32g4xx_hal_comp.c ****       of STM32G4xx devices.
  42:Drivers/STM32G4xx_HAL_Driver/Src/stm32g4xx_hal_comp.c **** 
  43:Drivers/STM32G4xx_HAL_Driver/Src/stm32g4xx_hal_comp.c ****       To use the comparator, perform the following steps:
  44:Drivers/STM32G4xx_HAL_Driver/Src/stm32g4xx_hal_comp.c **** 
  45:Drivers/STM32G4xx_HAL_Driver/Src/stm32g4xx_hal_comp.c ****       (#)  Initialize the COMP low level resources by implementing the HAL_COMP_MspInit():
  46:Drivers/STM32G4xx_HAL_Driver/Src/stm32g4xx_hal_comp.c ****       (++) Configure the GPIO connected to comparator inputs plus and minus in analog mode
  47:Drivers/STM32G4xx_HAL_Driver/Src/stm32g4xx_hal_comp.c ****            using HAL_GPIO_Init().
  48:Drivers/STM32G4xx_HAL_Driver/Src/stm32g4xx_hal_comp.c ****       (++) If needed, configure the GPIO connected to comparator output in alternate function mode
  49:Drivers/STM32G4xx_HAL_Driver/Src/stm32g4xx_hal_comp.c ****            using HAL_GPIO_Init().
  50:Drivers/STM32G4xx_HAL_Driver/Src/stm32g4xx_hal_comp.c ****       (++) If required enable the COMP interrupt by configuring and enabling EXTI line in Interrupt
  51:Drivers/STM32G4xx_HAL_Driver/Src/stm32g4xx_hal_comp.c ****            selecting the desired sensitivity level using HAL_GPIO_Init() function. After that enabl
  52:Drivers/STM32G4xx_HAL_Driver/Src/stm32g4xx_hal_comp.c ****            interrupt vector using HAL_NVIC_EnableIRQ() function.
  53:Drivers/STM32G4xx_HAL_Driver/Src/stm32g4xx_hal_comp.c **** 
  54:Drivers/STM32G4xx_HAL_Driver/Src/stm32g4xx_hal_comp.c ****       (#) Configure the comparator using HAL_COMP_Init() function:
  55:Drivers/STM32G4xx_HAL_Driver/Src/stm32g4xx_hal_comp.c ****       (++) Select the input minus (inverting input)
  56:Drivers/STM32G4xx_HAL_Driver/Src/stm32g4xx_hal_comp.c ****       (++) Select the input plus (non-inverting input)
  57:Drivers/STM32G4xx_HAL_Driver/Src/stm32g4xx_hal_comp.c ****       (++) Select the hysteresis
  58:Drivers/STM32G4xx_HAL_Driver/Src/stm32g4xx_hal_comp.c ****       (++) Select the blanking source
  59:Drivers/STM32G4xx_HAL_Driver/Src/stm32g4xx_hal_comp.c ****       (++) Select the output polarity
  60:Drivers/STM32G4xx_HAL_Driver/Src/stm32g4xx_hal_comp.c **** 
  61:Drivers/STM32G4xx_HAL_Driver/Src/stm32g4xx_hal_comp.c ****       -@@- HAL_COMP_Init() calls internally __HAL_RCC_SYSCFG_CLK_ENABLE()
  62:Drivers/STM32G4xx_HAL_Driver/Src/stm32g4xx_hal_comp.c ****           to enable internal control clock of the comparators.
  63:Drivers/STM32G4xx_HAL_Driver/Src/stm32g4xx_hal_comp.c ****           However, this is a legacy strategy. In future STM32 families,
  64:Drivers/STM32G4xx_HAL_Driver/Src/stm32g4xx_hal_comp.c ****           COMP clock enable must be implemented by user in "HAL_COMP_MspInit()".
  65:Drivers/STM32G4xx_HAL_Driver/Src/stm32g4xx_hal_comp.c ****           Therefore, for compatibility anticipation, it is recommended to
  66:Drivers/STM32G4xx_HAL_Driver/Src/stm32g4xx_hal_comp.c ****           implement __HAL_RCC_SYSCFG_CLK_ENABLE() in "HAL_COMP_MspInit()".
  67:Drivers/STM32G4xx_HAL_Driver/Src/stm32g4xx_hal_comp.c **** 
  68:Drivers/STM32G4xx_HAL_Driver/Src/stm32g4xx_hal_comp.c ****       (#) Reconfiguration on-the-fly of comparator can be done by calling again
  69:Drivers/STM32G4xx_HAL_Driver/Src/stm32g4xx_hal_comp.c ****           function HAL_COMP_Init() with new input structure parameters values.
  70:Drivers/STM32G4xx_HAL_Driver/Src/stm32g4xx_hal_comp.c **** 
  71:Drivers/STM32G4xx_HAL_Driver/Src/stm32g4xx_hal_comp.c ****       (#) Enable the comparator using HAL_COMP_Start() function.
  72:Drivers/STM32G4xx_HAL_Driver/Src/stm32g4xx_hal_comp.c **** 
  73:Drivers/STM32G4xx_HAL_Driver/Src/stm32g4xx_hal_comp.c ****       (#) Use HAL_COMP_TriggerCallback() or HAL_COMP_GetOutputLevel() functions
  74:Drivers/STM32G4xx_HAL_Driver/Src/stm32g4xx_hal_comp.c ****           to manage comparator outputs (events and output level).
  75:Drivers/STM32G4xx_HAL_Driver/Src/stm32g4xx_hal_comp.c **** 
  76:Drivers/STM32G4xx_HAL_Driver/Src/stm32g4xx_hal_comp.c ****       (#) Disable the comparator using HAL_COMP_Stop() function.
  77:Drivers/STM32G4xx_HAL_Driver/Src/stm32g4xx_hal_comp.c **** 
  78:Drivers/STM32G4xx_HAL_Driver/Src/stm32g4xx_hal_comp.c ****       (#) De-initialize the comparator using HAL_COMP_DeInit() function.
  79:Drivers/STM32G4xx_HAL_Driver/Src/stm32g4xx_hal_comp.c **** 
  80:Drivers/STM32G4xx_HAL_Driver/Src/stm32g4xx_hal_comp.c ****       (#) For safety purpose, comparator configuration can be locked using HAL_COMP_Lock() function
  81:Drivers/STM32G4xx_HAL_Driver/Src/stm32g4xx_hal_comp.c ****           The only way to unlock the comparator is a device hardware reset.
  82:Drivers/STM32G4xx_HAL_Driver/Src/stm32g4xx_hal_comp.c **** 
  83:Drivers/STM32G4xx_HAL_Driver/Src/stm32g4xx_hal_comp.c ****     *** Callback registration ***
  84:Drivers/STM32G4xx_HAL_Driver/Src/stm32g4xx_hal_comp.c ****     =============================================
  85:Drivers/STM32G4xx_HAL_Driver/Src/stm32g4xx_hal_comp.c ****     [..]
  86:Drivers/STM32G4xx_HAL_Driver/Src/stm32g4xx_hal_comp.c **** 
ARM GAS  /tmp/ccDOtdDj.s 			page 3


  87:Drivers/STM32G4xx_HAL_Driver/Src/stm32g4xx_hal_comp.c ****      The compilation flag USE_HAL_COMP_REGISTER_CALLBACKS, when set to 1,
  88:Drivers/STM32G4xx_HAL_Driver/Src/stm32g4xx_hal_comp.c ****      allows the user to configure dynamically the driver callbacks.
  89:Drivers/STM32G4xx_HAL_Driver/Src/stm32g4xx_hal_comp.c ****      Use Functions @ref HAL_COMP_RegisterCallback()
  90:Drivers/STM32G4xx_HAL_Driver/Src/stm32g4xx_hal_comp.c ****      to register an interrupt callback.
  91:Drivers/STM32G4xx_HAL_Driver/Src/stm32g4xx_hal_comp.c ****     [..]
  92:Drivers/STM32G4xx_HAL_Driver/Src/stm32g4xx_hal_comp.c **** 
  93:Drivers/STM32G4xx_HAL_Driver/Src/stm32g4xx_hal_comp.c ****      Function @ref HAL_COMP_RegisterCallback() allows to register following callbacks:
  94:Drivers/STM32G4xx_HAL_Driver/Src/stm32g4xx_hal_comp.c ****        (+) TriggerCallback       : callback for COMP trigger.
  95:Drivers/STM32G4xx_HAL_Driver/Src/stm32g4xx_hal_comp.c ****        (+) MspInitCallback       : callback for Msp Init.
  96:Drivers/STM32G4xx_HAL_Driver/Src/stm32g4xx_hal_comp.c ****        (+) MspDeInitCallback     : callback for Msp DeInit.
  97:Drivers/STM32G4xx_HAL_Driver/Src/stm32g4xx_hal_comp.c ****      This function takes as parameters the HAL peripheral handle, the Callback ID
  98:Drivers/STM32G4xx_HAL_Driver/Src/stm32g4xx_hal_comp.c ****      and a pointer to the user callback function.
  99:Drivers/STM32G4xx_HAL_Driver/Src/stm32g4xx_hal_comp.c ****     [..]
 100:Drivers/STM32G4xx_HAL_Driver/Src/stm32g4xx_hal_comp.c **** 
 101:Drivers/STM32G4xx_HAL_Driver/Src/stm32g4xx_hal_comp.c ****      Use function @ref HAL_COMP_UnRegisterCallback to reset a callback to the default
 102:Drivers/STM32G4xx_HAL_Driver/Src/stm32g4xx_hal_comp.c ****      weak function.
 103:Drivers/STM32G4xx_HAL_Driver/Src/stm32g4xx_hal_comp.c ****     [..]
 104:Drivers/STM32G4xx_HAL_Driver/Src/stm32g4xx_hal_comp.c **** 
 105:Drivers/STM32G4xx_HAL_Driver/Src/stm32g4xx_hal_comp.c ****      @ref HAL_COMP_UnRegisterCallback takes as parameters the HAL peripheral handle,
 106:Drivers/STM32G4xx_HAL_Driver/Src/stm32g4xx_hal_comp.c ****      and the Callback ID.
 107:Drivers/STM32G4xx_HAL_Driver/Src/stm32g4xx_hal_comp.c ****      This function allows to reset following callbacks:
 108:Drivers/STM32G4xx_HAL_Driver/Src/stm32g4xx_hal_comp.c ****        (+) TriggerCallback       : callback for COMP trigger.
 109:Drivers/STM32G4xx_HAL_Driver/Src/stm32g4xx_hal_comp.c ****        (+) MspInitCallback       : callback for Msp Init.
 110:Drivers/STM32G4xx_HAL_Driver/Src/stm32g4xx_hal_comp.c ****        (+) MspDeInitCallback     : callback for Msp DeInit.
 111:Drivers/STM32G4xx_HAL_Driver/Src/stm32g4xx_hal_comp.c ****      [..]
 112:Drivers/STM32G4xx_HAL_Driver/Src/stm32g4xx_hal_comp.c **** 
 113:Drivers/STM32G4xx_HAL_Driver/Src/stm32g4xx_hal_comp.c ****      By default, after the @ref HAL_COMP_Init() and when the state is @ref HAL_COMP_STATE_RESET
 114:Drivers/STM32G4xx_HAL_Driver/Src/stm32g4xx_hal_comp.c ****      all callbacks are set to the corresponding weak functions:
 115:Drivers/STM32G4xx_HAL_Driver/Src/stm32g4xx_hal_comp.c ****      example @ref HAL_COMP_TriggerCallback().
 116:Drivers/STM32G4xx_HAL_Driver/Src/stm32g4xx_hal_comp.c ****      Exception done for MspInit and MspDeInit functions that are
 117:Drivers/STM32G4xx_HAL_Driver/Src/stm32g4xx_hal_comp.c ****      reset to the legacy weak functions in the @ref HAL_COMP_Init()/ @ref HAL_COMP_DeInit() only wh
 118:Drivers/STM32G4xx_HAL_Driver/Src/stm32g4xx_hal_comp.c ****      these callbacks are null (not registered beforehand).
 119:Drivers/STM32G4xx_HAL_Driver/Src/stm32g4xx_hal_comp.c ****     [..]
 120:Drivers/STM32G4xx_HAL_Driver/Src/stm32g4xx_hal_comp.c **** 
 121:Drivers/STM32G4xx_HAL_Driver/Src/stm32g4xx_hal_comp.c ****      If MspInit or MspDeInit are not null, the @ref HAL_COMP_Init()/ @ref HAL_COMP_DeInit()
 122:Drivers/STM32G4xx_HAL_Driver/Src/stm32g4xx_hal_comp.c ****      keep and use the user MspInit/MspDeInit callbacks (registered beforehand) whatever the state.
 123:Drivers/STM32G4xx_HAL_Driver/Src/stm32g4xx_hal_comp.c ****      [..]
 124:Drivers/STM32G4xx_HAL_Driver/Src/stm32g4xx_hal_comp.c **** 
 125:Drivers/STM32G4xx_HAL_Driver/Src/stm32g4xx_hal_comp.c ****      Callbacks can be registered/unregistered in @ref HAL_COMP_STATE_READY state only.
 126:Drivers/STM32G4xx_HAL_Driver/Src/stm32g4xx_hal_comp.c ****      Exception done MspInit/MspDeInit functions that can be registered/unregistered
 127:Drivers/STM32G4xx_HAL_Driver/Src/stm32g4xx_hal_comp.c ****      in @ref HAL_COMP_STATE_READY or @ref HAL_COMP_STATE_RESET state,
 128:Drivers/STM32G4xx_HAL_Driver/Src/stm32g4xx_hal_comp.c ****      thus registered (user) MspInit/DeInit callbacks can be used during the Init/DeInit.
 129:Drivers/STM32G4xx_HAL_Driver/Src/stm32g4xx_hal_comp.c ****     [..]
 130:Drivers/STM32G4xx_HAL_Driver/Src/stm32g4xx_hal_comp.c **** 
 131:Drivers/STM32G4xx_HAL_Driver/Src/stm32g4xx_hal_comp.c ****      Then, the user first registers the MspInit/MspDeInit user callbacks
 132:Drivers/STM32G4xx_HAL_Driver/Src/stm32g4xx_hal_comp.c ****      using @ref HAL_COMP_RegisterCallback() before calling @ref HAL_COMP_DeInit()
 133:Drivers/STM32G4xx_HAL_Driver/Src/stm32g4xx_hal_comp.c ****      or @ref HAL_COMP_Init() function.
 134:Drivers/STM32G4xx_HAL_Driver/Src/stm32g4xx_hal_comp.c ****      [..]
 135:Drivers/STM32G4xx_HAL_Driver/Src/stm32g4xx_hal_comp.c **** 
 136:Drivers/STM32G4xx_HAL_Driver/Src/stm32g4xx_hal_comp.c ****      When the compilation flag USE_HAL_COMP_REGISTER_CALLBACKS is set to 0 or
 137:Drivers/STM32G4xx_HAL_Driver/Src/stm32g4xx_hal_comp.c ****      not defined, the callback registration feature is not available and all callbacks
 138:Drivers/STM32G4xx_HAL_Driver/Src/stm32g4xx_hal_comp.c ****      are set to the corresponding weak functions.
 139:Drivers/STM32G4xx_HAL_Driver/Src/stm32g4xx_hal_comp.c **** 
 140:Drivers/STM32G4xx_HAL_Driver/Src/stm32g4xx_hal_comp.c ****   @endverbatim
 141:Drivers/STM32G4xx_HAL_Driver/Src/stm32g4xx_hal_comp.c ****   ******************************************************************************
 142:Drivers/STM32G4xx_HAL_Driver/Src/stm32g4xx_hal_comp.c **** 
 143:Drivers/STM32G4xx_HAL_Driver/Src/stm32g4xx_hal_comp.c ****   ******************************************************************************
ARM GAS  /tmp/ccDOtdDj.s 			page 4


 144:Drivers/STM32G4xx_HAL_Driver/Src/stm32g4xx_hal_comp.c ****   * @attention
 145:Drivers/STM32G4xx_HAL_Driver/Src/stm32g4xx_hal_comp.c ****   *
 146:Drivers/STM32G4xx_HAL_Driver/Src/stm32g4xx_hal_comp.c ****   * <h2><center>&copy; Copyright (c) 2019 STMicroelectronics.
 147:Drivers/STM32G4xx_HAL_Driver/Src/stm32g4xx_hal_comp.c ****   * All rights reserved.</center></h2>
 148:Drivers/STM32G4xx_HAL_Driver/Src/stm32g4xx_hal_comp.c ****   *
 149:Drivers/STM32G4xx_HAL_Driver/Src/stm32g4xx_hal_comp.c ****   * This software component is licensed by ST under BSD 3-Clause license,
 150:Drivers/STM32G4xx_HAL_Driver/Src/stm32g4xx_hal_comp.c ****   * the "License"; You may not use this file except in compliance with the
 151:Drivers/STM32G4xx_HAL_Driver/Src/stm32g4xx_hal_comp.c ****   * License. You may obtain a copy of the License at:
 152:Drivers/STM32G4xx_HAL_Driver/Src/stm32g4xx_hal_comp.c ****   *                        opensource.org/licenses/BSD-3-Clause
 153:Drivers/STM32G4xx_HAL_Driver/Src/stm32g4xx_hal_comp.c ****   *
 154:Drivers/STM32G4xx_HAL_Driver/Src/stm32g4xx_hal_comp.c ****   ******************************************************************************
 155:Drivers/STM32G4xx_HAL_Driver/Src/stm32g4xx_hal_comp.c ****   */
 156:Drivers/STM32G4xx_HAL_Driver/Src/stm32g4xx_hal_comp.c **** 
 157:Drivers/STM32G4xx_HAL_Driver/Src/stm32g4xx_hal_comp.c **** /* Includes ------------------------------------------------------------------*/
 158:Drivers/STM32G4xx_HAL_Driver/Src/stm32g4xx_hal_comp.c **** #include "stm32g4xx_hal.h"
 159:Drivers/STM32G4xx_HAL_Driver/Src/stm32g4xx_hal_comp.c **** 
 160:Drivers/STM32G4xx_HAL_Driver/Src/stm32g4xx_hal_comp.c **** /** @addtogroup STM32G4xx_HAL_Driver
 161:Drivers/STM32G4xx_HAL_Driver/Src/stm32g4xx_hal_comp.c ****   * @{
 162:Drivers/STM32G4xx_HAL_Driver/Src/stm32g4xx_hal_comp.c ****   */
 163:Drivers/STM32G4xx_HAL_Driver/Src/stm32g4xx_hal_comp.c **** 
 164:Drivers/STM32G4xx_HAL_Driver/Src/stm32g4xx_hal_comp.c **** #ifdef HAL_COMP_MODULE_ENABLED
 165:Drivers/STM32G4xx_HAL_Driver/Src/stm32g4xx_hal_comp.c **** 
 166:Drivers/STM32G4xx_HAL_Driver/Src/stm32g4xx_hal_comp.c **** 
 167:Drivers/STM32G4xx_HAL_Driver/Src/stm32g4xx_hal_comp.c **** 
 168:Drivers/STM32G4xx_HAL_Driver/Src/stm32g4xx_hal_comp.c **** /** @defgroup COMP COMP
 169:Drivers/STM32G4xx_HAL_Driver/Src/stm32g4xx_hal_comp.c ****   * @brief COMP HAL module driver
 170:Drivers/STM32G4xx_HAL_Driver/Src/stm32g4xx_hal_comp.c ****   * @{
 171:Drivers/STM32G4xx_HAL_Driver/Src/stm32g4xx_hal_comp.c ****   */
 172:Drivers/STM32G4xx_HAL_Driver/Src/stm32g4xx_hal_comp.c **** 
 173:Drivers/STM32G4xx_HAL_Driver/Src/stm32g4xx_hal_comp.c **** /* Private typedef -----------------------------------------------------------*/
 174:Drivers/STM32G4xx_HAL_Driver/Src/stm32g4xx_hal_comp.c **** /* Private define ------------------------------------------------------------*/
 175:Drivers/STM32G4xx_HAL_Driver/Src/stm32g4xx_hal_comp.c **** /** @addtogroup COMP_Private_Constants
 176:Drivers/STM32G4xx_HAL_Driver/Src/stm32g4xx_hal_comp.c ****   * @{
 177:Drivers/STM32G4xx_HAL_Driver/Src/stm32g4xx_hal_comp.c ****   */
 178:Drivers/STM32G4xx_HAL_Driver/Src/stm32g4xx_hal_comp.c **** 
 179:Drivers/STM32G4xx_HAL_Driver/Src/stm32g4xx_hal_comp.c **** /* Delay for COMP startup time.                                               */
 180:Drivers/STM32G4xx_HAL_Driver/Src/stm32g4xx_hal_comp.c **** /* Note: Delay required to reach propagation delay specification.             */
 181:Drivers/STM32G4xx_HAL_Driver/Src/stm32g4xx_hal_comp.c **** /* Literal set to maximum value (refer to device datasheet,                   */
 182:Drivers/STM32G4xx_HAL_Driver/Src/stm32g4xx_hal_comp.c **** /* parameter "tSTART").                                                       */
 183:Drivers/STM32G4xx_HAL_Driver/Src/stm32g4xx_hal_comp.c **** /* Unit: us                                                                   */
 184:Drivers/STM32G4xx_HAL_Driver/Src/stm32g4xx_hal_comp.c **** #define COMP_DELAY_STARTUP_US           (5UL) /*!< Delay for COMP startup time */
 185:Drivers/STM32G4xx_HAL_Driver/Src/stm32g4xx_hal_comp.c **** 
 186:Drivers/STM32G4xx_HAL_Driver/Src/stm32g4xx_hal_comp.c **** /* Delay for COMP voltage scaler stabilization time.                          */
 187:Drivers/STM32G4xx_HAL_Driver/Src/stm32g4xx_hal_comp.c **** /* Literal set to maximum value (refer to device datasheet,                   */
 188:Drivers/STM32G4xx_HAL_Driver/Src/stm32g4xx_hal_comp.c **** /* parameter "tSTART_SCALER").                                                */
 189:Drivers/STM32G4xx_HAL_Driver/Src/stm32g4xx_hal_comp.c **** /* Unit: us                                                                   */
 190:Drivers/STM32G4xx_HAL_Driver/Src/stm32g4xx_hal_comp.c **** #define COMP_DELAY_VOLTAGE_SCALER_STAB_US (200UL)  /*!< Delay for COMP voltage scaler stabilization
 191:Drivers/STM32G4xx_HAL_Driver/Src/stm32g4xx_hal_comp.c **** 
 192:Drivers/STM32G4xx_HAL_Driver/Src/stm32g4xx_hal_comp.c **** #define COMP_OUTPUT_LEVEL_BITOFFSET_POS    (30UL)
 193:Drivers/STM32G4xx_HAL_Driver/Src/stm32g4xx_hal_comp.c **** 
 194:Drivers/STM32G4xx_HAL_Driver/Src/stm32g4xx_hal_comp.c **** /**
 195:Drivers/STM32G4xx_HAL_Driver/Src/stm32g4xx_hal_comp.c ****   * @}
 196:Drivers/STM32G4xx_HAL_Driver/Src/stm32g4xx_hal_comp.c ****   */
 197:Drivers/STM32G4xx_HAL_Driver/Src/stm32g4xx_hal_comp.c **** 
 198:Drivers/STM32G4xx_HAL_Driver/Src/stm32g4xx_hal_comp.c **** /* Private macro -------------------------------------------------------------*/
 199:Drivers/STM32G4xx_HAL_Driver/Src/stm32g4xx_hal_comp.c **** /* Private variables ---------------------------------------------------------*/
 200:Drivers/STM32G4xx_HAL_Driver/Src/stm32g4xx_hal_comp.c **** /* Private function prototypes -----------------------------------------------*/
ARM GAS  /tmp/ccDOtdDj.s 			page 5


 201:Drivers/STM32G4xx_HAL_Driver/Src/stm32g4xx_hal_comp.c **** /* Exported functions --------------------------------------------------------*/
 202:Drivers/STM32G4xx_HAL_Driver/Src/stm32g4xx_hal_comp.c **** 
 203:Drivers/STM32G4xx_HAL_Driver/Src/stm32g4xx_hal_comp.c **** /** @defgroup COMP_Exported_Functions COMP Exported Functions
 204:Drivers/STM32G4xx_HAL_Driver/Src/stm32g4xx_hal_comp.c ****   * @{
 205:Drivers/STM32G4xx_HAL_Driver/Src/stm32g4xx_hal_comp.c ****   */
 206:Drivers/STM32G4xx_HAL_Driver/Src/stm32g4xx_hal_comp.c **** 
 207:Drivers/STM32G4xx_HAL_Driver/Src/stm32g4xx_hal_comp.c **** /** @defgroup COMP_Exported_Functions_Group1 Initialization/de-initialization functions
 208:Drivers/STM32G4xx_HAL_Driver/Src/stm32g4xx_hal_comp.c ****   *  @brief    Initialization and de-initialization functions.
 209:Drivers/STM32G4xx_HAL_Driver/Src/stm32g4xx_hal_comp.c ****   *
 210:Drivers/STM32G4xx_HAL_Driver/Src/stm32g4xx_hal_comp.c **** @verbatim
 211:Drivers/STM32G4xx_HAL_Driver/Src/stm32g4xx_hal_comp.c ****  ===============================================================================
 212:Drivers/STM32G4xx_HAL_Driver/Src/stm32g4xx_hal_comp.c ****               ##### Initialization and de-initialization functions #####
 213:Drivers/STM32G4xx_HAL_Driver/Src/stm32g4xx_hal_comp.c ****  ===============================================================================
 214:Drivers/STM32G4xx_HAL_Driver/Src/stm32g4xx_hal_comp.c ****     [..]  This section provides functions to initialize and de-initialize comparators
 215:Drivers/STM32G4xx_HAL_Driver/Src/stm32g4xx_hal_comp.c **** 
 216:Drivers/STM32G4xx_HAL_Driver/Src/stm32g4xx_hal_comp.c **** @endverbatim
 217:Drivers/STM32G4xx_HAL_Driver/Src/stm32g4xx_hal_comp.c ****   * @{
 218:Drivers/STM32G4xx_HAL_Driver/Src/stm32g4xx_hal_comp.c ****   */
 219:Drivers/STM32G4xx_HAL_Driver/Src/stm32g4xx_hal_comp.c **** 
 220:Drivers/STM32G4xx_HAL_Driver/Src/stm32g4xx_hal_comp.c **** /**
 221:Drivers/STM32G4xx_HAL_Driver/Src/stm32g4xx_hal_comp.c ****   * @brief  Initialize the COMP according to the specified
 222:Drivers/STM32G4xx_HAL_Driver/Src/stm32g4xx_hal_comp.c ****   *         parameters in the COMP_InitTypeDef and initialize the associated handle.
 223:Drivers/STM32G4xx_HAL_Driver/Src/stm32g4xx_hal_comp.c ****   * @note   If the selected comparator is locked, initialization can't be performed.
 224:Drivers/STM32G4xx_HAL_Driver/Src/stm32g4xx_hal_comp.c ****   *         To unlock the configuration, perform a system reset.
 225:Drivers/STM32G4xx_HAL_Driver/Src/stm32g4xx_hal_comp.c ****   * @param  hcomp  COMP handle
 226:Drivers/STM32G4xx_HAL_Driver/Src/stm32g4xx_hal_comp.c ****   * @retval HAL status
 227:Drivers/STM32G4xx_HAL_Driver/Src/stm32g4xx_hal_comp.c ****   */
 228:Drivers/STM32G4xx_HAL_Driver/Src/stm32g4xx_hal_comp.c **** HAL_StatusTypeDef HAL_COMP_Init(COMP_HandleTypeDef *hcomp)
 229:Drivers/STM32G4xx_HAL_Driver/Src/stm32g4xx_hal_comp.c **** {
 230:Drivers/STM32G4xx_HAL_Driver/Src/stm32g4xx_hal_comp.c ****   uint32_t tmp_csr;
 231:Drivers/STM32G4xx_HAL_Driver/Src/stm32g4xx_hal_comp.c ****   uint32_t exti_line;
 232:Drivers/STM32G4xx_HAL_Driver/Src/stm32g4xx_hal_comp.c ****   uint32_t comp_voltage_scaler_initialized; /* Value "0" if comparator voltage scaler is not initia
 233:Drivers/STM32G4xx_HAL_Driver/Src/stm32g4xx_hal_comp.c ****   __IO uint32_t wait_loop_index = 0UL;
 234:Drivers/STM32G4xx_HAL_Driver/Src/stm32g4xx_hal_comp.c ****   HAL_StatusTypeDef status = HAL_OK;
 235:Drivers/STM32G4xx_HAL_Driver/Src/stm32g4xx_hal_comp.c **** 
 236:Drivers/STM32G4xx_HAL_Driver/Src/stm32g4xx_hal_comp.c ****   /* Check the COMP handle allocation and lock status */
 237:Drivers/STM32G4xx_HAL_Driver/Src/stm32g4xx_hal_comp.c ****   if(hcomp == NULL)
 238:Drivers/STM32G4xx_HAL_Driver/Src/stm32g4xx_hal_comp.c ****   {
 239:Drivers/STM32G4xx_HAL_Driver/Src/stm32g4xx_hal_comp.c ****     status = HAL_ERROR;
 240:Drivers/STM32G4xx_HAL_Driver/Src/stm32g4xx_hal_comp.c ****   }
 241:Drivers/STM32G4xx_HAL_Driver/Src/stm32g4xx_hal_comp.c ****   else if(__HAL_COMP_IS_LOCKED(hcomp))
 242:Drivers/STM32G4xx_HAL_Driver/Src/stm32g4xx_hal_comp.c ****   {
 243:Drivers/STM32G4xx_HAL_Driver/Src/stm32g4xx_hal_comp.c ****     status = HAL_ERROR;
 244:Drivers/STM32G4xx_HAL_Driver/Src/stm32g4xx_hal_comp.c ****   }
 245:Drivers/STM32G4xx_HAL_Driver/Src/stm32g4xx_hal_comp.c ****   else
 246:Drivers/STM32G4xx_HAL_Driver/Src/stm32g4xx_hal_comp.c ****   {
 247:Drivers/STM32G4xx_HAL_Driver/Src/stm32g4xx_hal_comp.c ****     /* Check the parameters */
 248:Drivers/STM32G4xx_HAL_Driver/Src/stm32g4xx_hal_comp.c ****     assert_param(IS_COMP_ALL_INSTANCE(hcomp->Instance));
 249:Drivers/STM32G4xx_HAL_Driver/Src/stm32g4xx_hal_comp.c ****     assert_param(IS_COMP_INPUT_PLUS(hcomp->Instance, hcomp->Init.InputPlus));
 250:Drivers/STM32G4xx_HAL_Driver/Src/stm32g4xx_hal_comp.c ****     assert_param(IS_COMP_INPUT_MINUS(hcomp->Instance, hcomp->Init.InputMinus));
 251:Drivers/STM32G4xx_HAL_Driver/Src/stm32g4xx_hal_comp.c ****     assert_param(IS_COMP_OUTPUTPOL(hcomp->Init.OutputPol));
 252:Drivers/STM32G4xx_HAL_Driver/Src/stm32g4xx_hal_comp.c ****     assert_param(IS_COMP_HYSTERESIS(hcomp->Init.Hysteresis));
 253:Drivers/STM32G4xx_HAL_Driver/Src/stm32g4xx_hal_comp.c ****     assert_param(IS_COMP_BLANKINGSRC_INSTANCE(hcomp->Instance, hcomp->Init.BlankingSrce));
 254:Drivers/STM32G4xx_HAL_Driver/Src/stm32g4xx_hal_comp.c ****     assert_param(IS_COMP_TRIGGERMODE(hcomp->Init.TriggerMode));
 255:Drivers/STM32G4xx_HAL_Driver/Src/stm32g4xx_hal_comp.c **** 
 256:Drivers/STM32G4xx_HAL_Driver/Src/stm32g4xx_hal_comp.c ****     if(hcomp->State == HAL_COMP_STATE_RESET)
 257:Drivers/STM32G4xx_HAL_Driver/Src/stm32g4xx_hal_comp.c ****     {
ARM GAS  /tmp/ccDOtdDj.s 			page 6


 258:Drivers/STM32G4xx_HAL_Driver/Src/stm32g4xx_hal_comp.c ****       /* Allocate lock resource and initialize it */
 259:Drivers/STM32G4xx_HAL_Driver/Src/stm32g4xx_hal_comp.c ****       hcomp->Lock = HAL_UNLOCKED;
 260:Drivers/STM32G4xx_HAL_Driver/Src/stm32g4xx_hal_comp.c **** 
 261:Drivers/STM32G4xx_HAL_Driver/Src/stm32g4xx_hal_comp.c ****       /* Set COMP error code to none */
 262:Drivers/STM32G4xx_HAL_Driver/Src/stm32g4xx_hal_comp.c ****       COMP_CLEAR_ERRORCODE(hcomp);
 263:Drivers/STM32G4xx_HAL_Driver/Src/stm32g4xx_hal_comp.c **** 
 264:Drivers/STM32G4xx_HAL_Driver/Src/stm32g4xx_hal_comp.c **** 
 265:Drivers/STM32G4xx_HAL_Driver/Src/stm32g4xx_hal_comp.c **** #if (USE_HAL_COMP_REGISTER_CALLBACKS == 1)
 266:Drivers/STM32G4xx_HAL_Driver/Src/stm32g4xx_hal_comp.c ****       /* Init the COMP Callback settings */
 267:Drivers/STM32G4xx_HAL_Driver/Src/stm32g4xx_hal_comp.c ****       hcomp->TriggerCallback = HAL_COMP_TriggerCallback; /* Legacy weak callback */
 268:Drivers/STM32G4xx_HAL_Driver/Src/stm32g4xx_hal_comp.c **** 
 269:Drivers/STM32G4xx_HAL_Driver/Src/stm32g4xx_hal_comp.c ****       if (hcomp->MspInitCallback == NULL)
 270:Drivers/STM32G4xx_HAL_Driver/Src/stm32g4xx_hal_comp.c ****       {
 271:Drivers/STM32G4xx_HAL_Driver/Src/stm32g4xx_hal_comp.c ****         hcomp->MspInitCallback = HAL_COMP_MspInit; /* Legacy weak MspInit  */
 272:Drivers/STM32G4xx_HAL_Driver/Src/stm32g4xx_hal_comp.c ****       }
 273:Drivers/STM32G4xx_HAL_Driver/Src/stm32g4xx_hal_comp.c **** 
 274:Drivers/STM32G4xx_HAL_Driver/Src/stm32g4xx_hal_comp.c ****       /* Init the low level hardware */
 275:Drivers/STM32G4xx_HAL_Driver/Src/stm32g4xx_hal_comp.c ****       /* Note: Internal control clock of the comparators must                 */
 276:Drivers/STM32G4xx_HAL_Driver/Src/stm32g4xx_hal_comp.c ****       /*       be enabled in "HAL_COMP_MspInit()"                             */
 277:Drivers/STM32G4xx_HAL_Driver/Src/stm32g4xx_hal_comp.c ****       /*       using "__HAL_RCC_SYSCFG_CLK_ENABLE()".                         */
 278:Drivers/STM32G4xx_HAL_Driver/Src/stm32g4xx_hal_comp.c ****       hcomp->MspInitCallback(hcomp);
 279:Drivers/STM32G4xx_HAL_Driver/Src/stm32g4xx_hal_comp.c **** #else
 280:Drivers/STM32G4xx_HAL_Driver/Src/stm32g4xx_hal_comp.c ****       /* Init the low level hardware */
 281:Drivers/STM32G4xx_HAL_Driver/Src/stm32g4xx_hal_comp.c ****       /* Note: Internal control clock of the comparators must                 */
 282:Drivers/STM32G4xx_HAL_Driver/Src/stm32g4xx_hal_comp.c ****       /*       be enabled in "HAL_COMP_MspInit()"                             */
 283:Drivers/STM32G4xx_HAL_Driver/Src/stm32g4xx_hal_comp.c ****       /*       using "__HAL_RCC_SYSCFG_CLK_ENABLE()".                         */
 284:Drivers/STM32G4xx_HAL_Driver/Src/stm32g4xx_hal_comp.c ****       HAL_COMP_MspInit(hcomp);
 285:Drivers/STM32G4xx_HAL_Driver/Src/stm32g4xx_hal_comp.c **** #endif /* USE_HAL_COMP_REGISTER_CALLBACKS */
 286:Drivers/STM32G4xx_HAL_Driver/Src/stm32g4xx_hal_comp.c ****     }
 287:Drivers/STM32G4xx_HAL_Driver/Src/stm32g4xx_hal_comp.c **** 
 288:Drivers/STM32G4xx_HAL_Driver/Src/stm32g4xx_hal_comp.c ****     /* Memorize voltage scaler state before initialization */
 289:Drivers/STM32G4xx_HAL_Driver/Src/stm32g4xx_hal_comp.c ****     comp_voltage_scaler_initialized = READ_BIT(hcomp->Instance->CSR, COMP_CSR_SCALEN);
 290:Drivers/STM32G4xx_HAL_Driver/Src/stm32g4xx_hal_comp.c **** 
 291:Drivers/STM32G4xx_HAL_Driver/Src/stm32g4xx_hal_comp.c ****     /* Set COMP parameters */
 292:Drivers/STM32G4xx_HAL_Driver/Src/stm32g4xx_hal_comp.c ****     tmp_csr = (  hcomp->Init.InputMinus
 293:Drivers/STM32G4xx_HAL_Driver/Src/stm32g4xx_hal_comp.c ****                | hcomp->Init.InputPlus
 294:Drivers/STM32G4xx_HAL_Driver/Src/stm32g4xx_hal_comp.c ****                | hcomp->Init.BlankingSrce
 295:Drivers/STM32G4xx_HAL_Driver/Src/stm32g4xx_hal_comp.c ****                | hcomp->Init.Hysteresis
 296:Drivers/STM32G4xx_HAL_Driver/Src/stm32g4xx_hal_comp.c ****                | hcomp->Init.OutputPol
 297:Drivers/STM32G4xx_HAL_Driver/Src/stm32g4xx_hal_comp.c ****               );
 298:Drivers/STM32G4xx_HAL_Driver/Src/stm32g4xx_hal_comp.c **** 
 299:Drivers/STM32G4xx_HAL_Driver/Src/stm32g4xx_hal_comp.c ****     /* Set parameters in COMP register */
 300:Drivers/STM32G4xx_HAL_Driver/Src/stm32g4xx_hal_comp.c ****     /* Note: Update all bits except read-only, lock and enable bits */
 301:Drivers/STM32G4xx_HAL_Driver/Src/stm32g4xx_hal_comp.c ****     MODIFY_REG(hcomp->Instance->CSR,
 302:Drivers/STM32G4xx_HAL_Driver/Src/stm32g4xx_hal_comp.c ****                COMP_CSR_INMSEL   | COMP_CSR_INPSEL |
 303:Drivers/STM32G4xx_HAL_Driver/Src/stm32g4xx_hal_comp.c ****                COMP_CSR_POLARITY | COMP_CSR_HYST   |
 304:Drivers/STM32G4xx_HAL_Driver/Src/stm32g4xx_hal_comp.c ****                COMP_CSR_BLANKING | COMP_CSR_BRGEN  | COMP_CSR_SCALEN,
 305:Drivers/STM32G4xx_HAL_Driver/Src/stm32g4xx_hal_comp.c ****                tmp_csr
 306:Drivers/STM32G4xx_HAL_Driver/Src/stm32g4xx_hal_comp.c ****               );
 307:Drivers/STM32G4xx_HAL_Driver/Src/stm32g4xx_hal_comp.c **** 
 308:Drivers/STM32G4xx_HAL_Driver/Src/stm32g4xx_hal_comp.c ****     /* Delay for COMP scaler bridge voltage stabilization */
 309:Drivers/STM32G4xx_HAL_Driver/Src/stm32g4xx_hal_comp.c ****     /* Apply the delay if voltage scaler bridge is required and not already enabled */
 310:Drivers/STM32G4xx_HAL_Driver/Src/stm32g4xx_hal_comp.c ****     if ((READ_BIT(hcomp->Instance->CSR, COMP_CSR_SCALEN) != 0UL) &&
 311:Drivers/STM32G4xx_HAL_Driver/Src/stm32g4xx_hal_comp.c ****         (comp_voltage_scaler_initialized == 0UL)               )
 312:Drivers/STM32G4xx_HAL_Driver/Src/stm32g4xx_hal_comp.c ****     {
 313:Drivers/STM32G4xx_HAL_Driver/Src/stm32g4xx_hal_comp.c ****       /* Wait loop initialization and execution */
 314:Drivers/STM32G4xx_HAL_Driver/Src/stm32g4xx_hal_comp.c ****       /* Note: Variable divided by 2 to compensate partially              */
ARM GAS  /tmp/ccDOtdDj.s 			page 7


 315:Drivers/STM32G4xx_HAL_Driver/Src/stm32g4xx_hal_comp.c ****       /*       CPU processing cycles, scaling in us split to not          */
 316:Drivers/STM32G4xx_HAL_Driver/Src/stm32g4xx_hal_comp.c ****       /*       exceed 32 bits register capacity and handle low frequency. */
 317:Drivers/STM32G4xx_HAL_Driver/Src/stm32g4xx_hal_comp.c ****       wait_loop_index = ((COMP_DELAY_VOLTAGE_SCALER_STAB_US / 10UL) * (SystemCoreClock / (100000UL 
 318:Drivers/STM32G4xx_HAL_Driver/Src/stm32g4xx_hal_comp.c ****       while(wait_loop_index != 0UL)
 319:Drivers/STM32G4xx_HAL_Driver/Src/stm32g4xx_hal_comp.c ****       {
 320:Drivers/STM32G4xx_HAL_Driver/Src/stm32g4xx_hal_comp.c ****         wait_loop_index--;
 321:Drivers/STM32G4xx_HAL_Driver/Src/stm32g4xx_hal_comp.c ****       }
 322:Drivers/STM32G4xx_HAL_Driver/Src/stm32g4xx_hal_comp.c ****     }
 323:Drivers/STM32G4xx_HAL_Driver/Src/stm32g4xx_hal_comp.c **** 
 324:Drivers/STM32G4xx_HAL_Driver/Src/stm32g4xx_hal_comp.c ****     /* Get the EXTI line corresponding to the selected COMP instance */
 325:Drivers/STM32G4xx_HAL_Driver/Src/stm32g4xx_hal_comp.c ****     exti_line = COMP_GET_EXTI_LINE(hcomp->Instance);
 326:Drivers/STM32G4xx_HAL_Driver/Src/stm32g4xx_hal_comp.c **** 
 327:Drivers/STM32G4xx_HAL_Driver/Src/stm32g4xx_hal_comp.c ****     /* Manage EXTI settings */
 328:Drivers/STM32G4xx_HAL_Driver/Src/stm32g4xx_hal_comp.c ****     if((hcomp->Init.TriggerMode & (COMP_EXTI_IT | COMP_EXTI_EVENT)) != 0UL)
 329:Drivers/STM32G4xx_HAL_Driver/Src/stm32g4xx_hal_comp.c ****     {
 330:Drivers/STM32G4xx_HAL_Driver/Src/stm32g4xx_hal_comp.c ****       /* Configure EXTI rising edge */
 331:Drivers/STM32G4xx_HAL_Driver/Src/stm32g4xx_hal_comp.c ****       if((hcomp->Init.TriggerMode & COMP_EXTI_RISING) != 0UL)
 332:Drivers/STM32G4xx_HAL_Driver/Src/stm32g4xx_hal_comp.c ****       {
 333:Drivers/STM32G4xx_HAL_Driver/Src/stm32g4xx_hal_comp.c **** #if defined(STM32G474xx) || defined(STM32G484xx) || defined(STM32G473xx) || defined(STM32G483xx)
 334:Drivers/STM32G4xx_HAL_Driver/Src/stm32g4xx_hal_comp.c ****         if((hcomp->Instance == COMP6) || (hcomp->Instance == COMP7))
 335:Drivers/STM32G4xx_HAL_Driver/Src/stm32g4xx_hal_comp.c ****         {
 336:Drivers/STM32G4xx_HAL_Driver/Src/stm32g4xx_hal_comp.c ****           LL_EXTI_EnableRisingTrig_32_63(exti_line);
 337:Drivers/STM32G4xx_HAL_Driver/Src/stm32g4xx_hal_comp.c ****         }
 338:Drivers/STM32G4xx_HAL_Driver/Src/stm32g4xx_hal_comp.c ****         else
 339:Drivers/STM32G4xx_HAL_Driver/Src/stm32g4xx_hal_comp.c ****         {
 340:Drivers/STM32G4xx_HAL_Driver/Src/stm32g4xx_hal_comp.c ****           LL_EXTI_EnableRisingTrig_0_31(exti_line);
 341:Drivers/STM32G4xx_HAL_Driver/Src/stm32g4xx_hal_comp.c ****         }
 342:Drivers/STM32G4xx_HAL_Driver/Src/stm32g4xx_hal_comp.c **** #else
 343:Drivers/STM32G4xx_HAL_Driver/Src/stm32g4xx_hal_comp.c ****         LL_EXTI_EnableRisingTrig_0_31(exti_line);
 344:Drivers/STM32G4xx_HAL_Driver/Src/stm32g4xx_hal_comp.c **** #endif
 345:Drivers/STM32G4xx_HAL_Driver/Src/stm32g4xx_hal_comp.c ****       }
 346:Drivers/STM32G4xx_HAL_Driver/Src/stm32g4xx_hal_comp.c ****       else
 347:Drivers/STM32G4xx_HAL_Driver/Src/stm32g4xx_hal_comp.c ****       {
 348:Drivers/STM32G4xx_HAL_Driver/Src/stm32g4xx_hal_comp.c **** #if defined(STM32G474xx) || defined(STM32G484xx) || defined(STM32G473xx) || defined(STM32G483xx)
 349:Drivers/STM32G4xx_HAL_Driver/Src/stm32g4xx_hal_comp.c ****         if((hcomp->Instance == COMP6) || (hcomp->Instance == COMP7))
 350:Drivers/STM32G4xx_HAL_Driver/Src/stm32g4xx_hal_comp.c ****         {
 351:Drivers/STM32G4xx_HAL_Driver/Src/stm32g4xx_hal_comp.c ****           LL_EXTI_DisableRisingTrig_32_63(exti_line);
 352:Drivers/STM32G4xx_HAL_Driver/Src/stm32g4xx_hal_comp.c ****         }
 353:Drivers/STM32G4xx_HAL_Driver/Src/stm32g4xx_hal_comp.c ****         else
 354:Drivers/STM32G4xx_HAL_Driver/Src/stm32g4xx_hal_comp.c ****         {
 355:Drivers/STM32G4xx_HAL_Driver/Src/stm32g4xx_hal_comp.c ****           LL_EXTI_DisableRisingTrig_0_31(exti_line);
 356:Drivers/STM32G4xx_HAL_Driver/Src/stm32g4xx_hal_comp.c ****         }
 357:Drivers/STM32G4xx_HAL_Driver/Src/stm32g4xx_hal_comp.c **** #else
 358:Drivers/STM32G4xx_HAL_Driver/Src/stm32g4xx_hal_comp.c ****         LL_EXTI_DisableRisingTrig_0_31(exti_line);
 359:Drivers/STM32G4xx_HAL_Driver/Src/stm32g4xx_hal_comp.c **** #endif
 360:Drivers/STM32G4xx_HAL_Driver/Src/stm32g4xx_hal_comp.c ****       }
 361:Drivers/STM32G4xx_HAL_Driver/Src/stm32g4xx_hal_comp.c **** 
 362:Drivers/STM32G4xx_HAL_Driver/Src/stm32g4xx_hal_comp.c ****       /* Configure EXTI falling edge */
 363:Drivers/STM32G4xx_HAL_Driver/Src/stm32g4xx_hal_comp.c ****       if((hcomp->Init.TriggerMode & COMP_EXTI_FALLING) != 0UL)
 364:Drivers/STM32G4xx_HAL_Driver/Src/stm32g4xx_hal_comp.c ****       {
 365:Drivers/STM32G4xx_HAL_Driver/Src/stm32g4xx_hal_comp.c **** #if defined(STM32G474xx) || defined(STM32G484xx) || defined(STM32G473xx) || defined(STM32G483xx)
 366:Drivers/STM32G4xx_HAL_Driver/Src/stm32g4xx_hal_comp.c ****         if((hcomp->Instance == COMP6) || (hcomp->Instance == COMP7))
 367:Drivers/STM32G4xx_HAL_Driver/Src/stm32g4xx_hal_comp.c ****         {
 368:Drivers/STM32G4xx_HAL_Driver/Src/stm32g4xx_hal_comp.c ****           LL_EXTI_EnableFallingTrig_32_63(exti_line);
 369:Drivers/STM32G4xx_HAL_Driver/Src/stm32g4xx_hal_comp.c ****         }
 370:Drivers/STM32G4xx_HAL_Driver/Src/stm32g4xx_hal_comp.c ****         else
 371:Drivers/STM32G4xx_HAL_Driver/Src/stm32g4xx_hal_comp.c ****         {
ARM GAS  /tmp/ccDOtdDj.s 			page 8


 372:Drivers/STM32G4xx_HAL_Driver/Src/stm32g4xx_hal_comp.c ****           LL_EXTI_EnableFallingTrig_0_31(exti_line);
 373:Drivers/STM32G4xx_HAL_Driver/Src/stm32g4xx_hal_comp.c ****         }
 374:Drivers/STM32G4xx_HAL_Driver/Src/stm32g4xx_hal_comp.c **** #else
 375:Drivers/STM32G4xx_HAL_Driver/Src/stm32g4xx_hal_comp.c ****         LL_EXTI_EnableFallingTrig_0_31(exti_line);
 376:Drivers/STM32G4xx_HAL_Driver/Src/stm32g4xx_hal_comp.c **** #endif
 377:Drivers/STM32G4xx_HAL_Driver/Src/stm32g4xx_hal_comp.c ****       }
 378:Drivers/STM32G4xx_HAL_Driver/Src/stm32g4xx_hal_comp.c ****       else
 379:Drivers/STM32G4xx_HAL_Driver/Src/stm32g4xx_hal_comp.c ****       {
 380:Drivers/STM32G4xx_HAL_Driver/Src/stm32g4xx_hal_comp.c **** #if defined(STM32G474xx) || defined(STM32G484xx) || defined(STM32G473xx) || defined(STM32G483xx)
 381:Drivers/STM32G4xx_HAL_Driver/Src/stm32g4xx_hal_comp.c ****         if((hcomp->Instance == COMP6) || (hcomp->Instance == COMP7))
 382:Drivers/STM32G4xx_HAL_Driver/Src/stm32g4xx_hal_comp.c ****         {
 383:Drivers/STM32G4xx_HAL_Driver/Src/stm32g4xx_hal_comp.c ****           LL_EXTI_DisableFallingTrig_32_63(exti_line);
 384:Drivers/STM32G4xx_HAL_Driver/Src/stm32g4xx_hal_comp.c ****         }
 385:Drivers/STM32G4xx_HAL_Driver/Src/stm32g4xx_hal_comp.c ****         else
 386:Drivers/STM32G4xx_HAL_Driver/Src/stm32g4xx_hal_comp.c ****         {
 387:Drivers/STM32G4xx_HAL_Driver/Src/stm32g4xx_hal_comp.c ****           LL_EXTI_DisableFallingTrig_0_31(exti_line);
 388:Drivers/STM32G4xx_HAL_Driver/Src/stm32g4xx_hal_comp.c ****         }
 389:Drivers/STM32G4xx_HAL_Driver/Src/stm32g4xx_hal_comp.c **** #else
 390:Drivers/STM32G4xx_HAL_Driver/Src/stm32g4xx_hal_comp.c ****         LL_EXTI_DisableFallingTrig_0_31(exti_line);
 391:Drivers/STM32G4xx_HAL_Driver/Src/stm32g4xx_hal_comp.c **** #endif
 392:Drivers/STM32G4xx_HAL_Driver/Src/stm32g4xx_hal_comp.c ****       }
 393:Drivers/STM32G4xx_HAL_Driver/Src/stm32g4xx_hal_comp.c **** 
 394:Drivers/STM32G4xx_HAL_Driver/Src/stm32g4xx_hal_comp.c ****       /* Clear COMP EXTI pending bit (if any) */
 395:Drivers/STM32G4xx_HAL_Driver/Src/stm32g4xx_hal_comp.c **** #if defined(STM32G474xx) || defined(STM32G484xx) || defined(STM32G473xx) || defined(STM32G483xx)
 396:Drivers/STM32G4xx_HAL_Driver/Src/stm32g4xx_hal_comp.c ****       if((hcomp->Instance == COMP6) || (hcomp->Instance == COMP7))
 397:Drivers/STM32G4xx_HAL_Driver/Src/stm32g4xx_hal_comp.c ****       {
 398:Drivers/STM32G4xx_HAL_Driver/Src/stm32g4xx_hal_comp.c ****         LL_EXTI_ClearFlag_32_63(exti_line);
 399:Drivers/STM32G4xx_HAL_Driver/Src/stm32g4xx_hal_comp.c ****       }
 400:Drivers/STM32G4xx_HAL_Driver/Src/stm32g4xx_hal_comp.c ****       else
 401:Drivers/STM32G4xx_HAL_Driver/Src/stm32g4xx_hal_comp.c ****       {
 402:Drivers/STM32G4xx_HAL_Driver/Src/stm32g4xx_hal_comp.c ****         LL_EXTI_ClearFlag_0_31(exti_line);
 403:Drivers/STM32G4xx_HAL_Driver/Src/stm32g4xx_hal_comp.c ****       }
 404:Drivers/STM32G4xx_HAL_Driver/Src/stm32g4xx_hal_comp.c **** #else
 405:Drivers/STM32G4xx_HAL_Driver/Src/stm32g4xx_hal_comp.c ****       LL_EXTI_ClearFlag_0_31(exti_line);
 406:Drivers/STM32G4xx_HAL_Driver/Src/stm32g4xx_hal_comp.c **** #endif
 407:Drivers/STM32G4xx_HAL_Driver/Src/stm32g4xx_hal_comp.c **** 
 408:Drivers/STM32G4xx_HAL_Driver/Src/stm32g4xx_hal_comp.c ****       /* Configure EXTI event mode */
 409:Drivers/STM32G4xx_HAL_Driver/Src/stm32g4xx_hal_comp.c ****       if((hcomp->Init.TriggerMode & COMP_EXTI_EVENT) != 0UL)
 410:Drivers/STM32G4xx_HAL_Driver/Src/stm32g4xx_hal_comp.c ****       {
 411:Drivers/STM32G4xx_HAL_Driver/Src/stm32g4xx_hal_comp.c **** #if defined(STM32G474xx) || defined(STM32G484xx) || defined(STM32G473xx) || defined(STM32G483xx)
 412:Drivers/STM32G4xx_HAL_Driver/Src/stm32g4xx_hal_comp.c ****         if((hcomp->Instance == COMP6) || (hcomp->Instance == COMP7))
 413:Drivers/STM32G4xx_HAL_Driver/Src/stm32g4xx_hal_comp.c ****         {
 414:Drivers/STM32G4xx_HAL_Driver/Src/stm32g4xx_hal_comp.c ****           LL_EXTI_EnableEvent_32_63(exti_line);
 415:Drivers/STM32G4xx_HAL_Driver/Src/stm32g4xx_hal_comp.c ****         }
 416:Drivers/STM32G4xx_HAL_Driver/Src/stm32g4xx_hal_comp.c ****         else
 417:Drivers/STM32G4xx_HAL_Driver/Src/stm32g4xx_hal_comp.c ****         {
 418:Drivers/STM32G4xx_HAL_Driver/Src/stm32g4xx_hal_comp.c ****           LL_EXTI_EnableEvent_0_31(exti_line);
 419:Drivers/STM32G4xx_HAL_Driver/Src/stm32g4xx_hal_comp.c ****         }
 420:Drivers/STM32G4xx_HAL_Driver/Src/stm32g4xx_hal_comp.c **** #else
 421:Drivers/STM32G4xx_HAL_Driver/Src/stm32g4xx_hal_comp.c ****         LL_EXTI_EnableEvent_0_31(exti_line);
 422:Drivers/STM32G4xx_HAL_Driver/Src/stm32g4xx_hal_comp.c **** #endif
 423:Drivers/STM32G4xx_HAL_Driver/Src/stm32g4xx_hal_comp.c ****       }
 424:Drivers/STM32G4xx_HAL_Driver/Src/stm32g4xx_hal_comp.c ****       else
 425:Drivers/STM32G4xx_HAL_Driver/Src/stm32g4xx_hal_comp.c ****       {
 426:Drivers/STM32G4xx_HAL_Driver/Src/stm32g4xx_hal_comp.c **** #if defined(STM32G474xx) || defined(STM32G484xx) || defined(STM32G473xx) || defined(STM32G483xx)
 427:Drivers/STM32G4xx_HAL_Driver/Src/stm32g4xx_hal_comp.c ****         if((hcomp->Instance == COMP6) || (hcomp->Instance == COMP7))
 428:Drivers/STM32G4xx_HAL_Driver/Src/stm32g4xx_hal_comp.c ****         {
ARM GAS  /tmp/ccDOtdDj.s 			page 9


 429:Drivers/STM32G4xx_HAL_Driver/Src/stm32g4xx_hal_comp.c ****           LL_EXTI_DisableEvent_32_63(exti_line);
 430:Drivers/STM32G4xx_HAL_Driver/Src/stm32g4xx_hal_comp.c ****         }
 431:Drivers/STM32G4xx_HAL_Driver/Src/stm32g4xx_hal_comp.c ****         else
 432:Drivers/STM32G4xx_HAL_Driver/Src/stm32g4xx_hal_comp.c ****         {
 433:Drivers/STM32G4xx_HAL_Driver/Src/stm32g4xx_hal_comp.c ****           LL_EXTI_DisableEvent_0_31(exti_line);
 434:Drivers/STM32G4xx_HAL_Driver/Src/stm32g4xx_hal_comp.c ****         }
 435:Drivers/STM32G4xx_HAL_Driver/Src/stm32g4xx_hal_comp.c **** #else
 436:Drivers/STM32G4xx_HAL_Driver/Src/stm32g4xx_hal_comp.c ****         LL_EXTI_DisableEvent_0_31(exti_line);
 437:Drivers/STM32G4xx_HAL_Driver/Src/stm32g4xx_hal_comp.c **** #endif
 438:Drivers/STM32G4xx_HAL_Driver/Src/stm32g4xx_hal_comp.c ****       }
 439:Drivers/STM32G4xx_HAL_Driver/Src/stm32g4xx_hal_comp.c **** 
 440:Drivers/STM32G4xx_HAL_Driver/Src/stm32g4xx_hal_comp.c ****       /* Configure EXTI interrupt mode */
 441:Drivers/STM32G4xx_HAL_Driver/Src/stm32g4xx_hal_comp.c ****       if((hcomp->Init.TriggerMode & COMP_EXTI_IT) != 0UL)
 442:Drivers/STM32G4xx_HAL_Driver/Src/stm32g4xx_hal_comp.c ****       {
 443:Drivers/STM32G4xx_HAL_Driver/Src/stm32g4xx_hal_comp.c **** #if defined(STM32G474xx) || defined(STM32G484xx) || defined(STM32G473xx) || defined(STM32G483xx)
 444:Drivers/STM32G4xx_HAL_Driver/Src/stm32g4xx_hal_comp.c ****         if((hcomp->Instance == COMP6) || (hcomp->Instance == COMP7))
 445:Drivers/STM32G4xx_HAL_Driver/Src/stm32g4xx_hal_comp.c ****         {
 446:Drivers/STM32G4xx_HAL_Driver/Src/stm32g4xx_hal_comp.c ****           LL_EXTI_EnableIT_32_63(exti_line);
 447:Drivers/STM32G4xx_HAL_Driver/Src/stm32g4xx_hal_comp.c ****         }
 448:Drivers/STM32G4xx_HAL_Driver/Src/stm32g4xx_hal_comp.c ****         else
 449:Drivers/STM32G4xx_HAL_Driver/Src/stm32g4xx_hal_comp.c ****         {
 450:Drivers/STM32G4xx_HAL_Driver/Src/stm32g4xx_hal_comp.c ****           LL_EXTI_EnableIT_0_31(exti_line);
 451:Drivers/STM32G4xx_HAL_Driver/Src/stm32g4xx_hal_comp.c ****         }
 452:Drivers/STM32G4xx_HAL_Driver/Src/stm32g4xx_hal_comp.c **** #else
 453:Drivers/STM32G4xx_HAL_Driver/Src/stm32g4xx_hal_comp.c ****         LL_EXTI_EnableIT_0_31(exti_line);
 454:Drivers/STM32G4xx_HAL_Driver/Src/stm32g4xx_hal_comp.c **** #endif
 455:Drivers/STM32G4xx_HAL_Driver/Src/stm32g4xx_hal_comp.c ****       }
 456:Drivers/STM32G4xx_HAL_Driver/Src/stm32g4xx_hal_comp.c ****       else
 457:Drivers/STM32G4xx_HAL_Driver/Src/stm32g4xx_hal_comp.c ****       {
 458:Drivers/STM32G4xx_HAL_Driver/Src/stm32g4xx_hal_comp.c **** #if defined(STM32G474xx) || defined(STM32G484xx) || defined(STM32G473xx) || defined(STM32G483xx)
 459:Drivers/STM32G4xx_HAL_Driver/Src/stm32g4xx_hal_comp.c ****         if((hcomp->Instance == COMP6) || (hcomp->Instance == COMP7))
 460:Drivers/STM32G4xx_HAL_Driver/Src/stm32g4xx_hal_comp.c ****         {
 461:Drivers/STM32G4xx_HAL_Driver/Src/stm32g4xx_hal_comp.c ****           LL_EXTI_DisableIT_32_63(exti_line);
 462:Drivers/STM32G4xx_HAL_Driver/Src/stm32g4xx_hal_comp.c ****         }
 463:Drivers/STM32G4xx_HAL_Driver/Src/stm32g4xx_hal_comp.c ****         else
 464:Drivers/STM32G4xx_HAL_Driver/Src/stm32g4xx_hal_comp.c ****         {
 465:Drivers/STM32G4xx_HAL_Driver/Src/stm32g4xx_hal_comp.c ****           LL_EXTI_DisableIT_0_31(exti_line);
 466:Drivers/STM32G4xx_HAL_Driver/Src/stm32g4xx_hal_comp.c ****         }
 467:Drivers/STM32G4xx_HAL_Driver/Src/stm32g4xx_hal_comp.c **** #else
 468:Drivers/STM32G4xx_HAL_Driver/Src/stm32g4xx_hal_comp.c ****         LL_EXTI_DisableIT_0_31(exti_line);
 469:Drivers/STM32G4xx_HAL_Driver/Src/stm32g4xx_hal_comp.c **** #endif
 470:Drivers/STM32G4xx_HAL_Driver/Src/stm32g4xx_hal_comp.c ****       }
 471:Drivers/STM32G4xx_HAL_Driver/Src/stm32g4xx_hal_comp.c ****     }
 472:Drivers/STM32G4xx_HAL_Driver/Src/stm32g4xx_hal_comp.c ****     else
 473:Drivers/STM32G4xx_HAL_Driver/Src/stm32g4xx_hal_comp.c ****     {
 474:Drivers/STM32G4xx_HAL_Driver/Src/stm32g4xx_hal_comp.c ****       /* Disable EXTI event mode */
 475:Drivers/STM32G4xx_HAL_Driver/Src/stm32g4xx_hal_comp.c **** #if defined(STM32G474xx) || defined(STM32G484xx) || defined(STM32G473xx) || defined(STM32G483xx)
 476:Drivers/STM32G4xx_HAL_Driver/Src/stm32g4xx_hal_comp.c ****       if((hcomp->Instance == COMP6) || (hcomp->Instance == COMP7))
 477:Drivers/STM32G4xx_HAL_Driver/Src/stm32g4xx_hal_comp.c ****       {
 478:Drivers/STM32G4xx_HAL_Driver/Src/stm32g4xx_hal_comp.c ****         LL_EXTI_DisableEvent_32_63(exti_line);
 479:Drivers/STM32G4xx_HAL_Driver/Src/stm32g4xx_hal_comp.c ****       }
 480:Drivers/STM32G4xx_HAL_Driver/Src/stm32g4xx_hal_comp.c ****       else
 481:Drivers/STM32G4xx_HAL_Driver/Src/stm32g4xx_hal_comp.c ****       {
 482:Drivers/STM32G4xx_HAL_Driver/Src/stm32g4xx_hal_comp.c ****         LL_EXTI_DisableEvent_0_31(exti_line);
 483:Drivers/STM32G4xx_HAL_Driver/Src/stm32g4xx_hal_comp.c ****       }
 484:Drivers/STM32G4xx_HAL_Driver/Src/stm32g4xx_hal_comp.c **** #else
 485:Drivers/STM32G4xx_HAL_Driver/Src/stm32g4xx_hal_comp.c ****       LL_EXTI_DisableEvent_0_31(exti_line);
ARM GAS  /tmp/ccDOtdDj.s 			page 10


 486:Drivers/STM32G4xx_HAL_Driver/Src/stm32g4xx_hal_comp.c **** #endif
 487:Drivers/STM32G4xx_HAL_Driver/Src/stm32g4xx_hal_comp.c **** 
 488:Drivers/STM32G4xx_HAL_Driver/Src/stm32g4xx_hal_comp.c ****       /* Disable EXTI interrupt mode */
 489:Drivers/STM32G4xx_HAL_Driver/Src/stm32g4xx_hal_comp.c **** #if defined(STM32G474xx) || defined(STM32G484xx) || defined(STM32G473xx) || defined(STM32G483xx)
 490:Drivers/STM32G4xx_HAL_Driver/Src/stm32g4xx_hal_comp.c ****       if((hcomp->Instance == COMP6) || (hcomp->Instance == COMP7))
 491:Drivers/STM32G4xx_HAL_Driver/Src/stm32g4xx_hal_comp.c ****       {
 492:Drivers/STM32G4xx_HAL_Driver/Src/stm32g4xx_hal_comp.c ****         LL_EXTI_DisableIT_32_63(exti_line);
 493:Drivers/STM32G4xx_HAL_Driver/Src/stm32g4xx_hal_comp.c ****       }
 494:Drivers/STM32G4xx_HAL_Driver/Src/stm32g4xx_hal_comp.c ****       else
 495:Drivers/STM32G4xx_HAL_Driver/Src/stm32g4xx_hal_comp.c ****       {
 496:Drivers/STM32G4xx_HAL_Driver/Src/stm32g4xx_hal_comp.c ****         LL_EXTI_DisableIT_0_31(exti_line);
 497:Drivers/STM32G4xx_HAL_Driver/Src/stm32g4xx_hal_comp.c ****       }
 498:Drivers/STM32G4xx_HAL_Driver/Src/stm32g4xx_hal_comp.c **** #else
 499:Drivers/STM32G4xx_HAL_Driver/Src/stm32g4xx_hal_comp.c ****       LL_EXTI_DisableIT_0_31(exti_line);
 500:Drivers/STM32G4xx_HAL_Driver/Src/stm32g4xx_hal_comp.c **** #endif
 501:Drivers/STM32G4xx_HAL_Driver/Src/stm32g4xx_hal_comp.c ****     }
 502:Drivers/STM32G4xx_HAL_Driver/Src/stm32g4xx_hal_comp.c **** 
 503:Drivers/STM32G4xx_HAL_Driver/Src/stm32g4xx_hal_comp.c ****     /* Set HAL COMP handle state */
 504:Drivers/STM32G4xx_HAL_Driver/Src/stm32g4xx_hal_comp.c ****     /* Note: Transition from state reset to state ready,                      */
 505:Drivers/STM32G4xx_HAL_Driver/Src/stm32g4xx_hal_comp.c ****     /*       otherwise (coming from state ready or busy) no state update.     */
 506:Drivers/STM32G4xx_HAL_Driver/Src/stm32g4xx_hal_comp.c ****     if (hcomp->State == HAL_COMP_STATE_RESET)
 507:Drivers/STM32G4xx_HAL_Driver/Src/stm32g4xx_hal_comp.c ****     {
 508:Drivers/STM32G4xx_HAL_Driver/Src/stm32g4xx_hal_comp.c ****       hcomp->State = HAL_COMP_STATE_READY;
 509:Drivers/STM32G4xx_HAL_Driver/Src/stm32g4xx_hal_comp.c ****     }
 510:Drivers/STM32G4xx_HAL_Driver/Src/stm32g4xx_hal_comp.c ****   }
 511:Drivers/STM32G4xx_HAL_Driver/Src/stm32g4xx_hal_comp.c **** 
 512:Drivers/STM32G4xx_HAL_Driver/Src/stm32g4xx_hal_comp.c ****   return status;
 513:Drivers/STM32G4xx_HAL_Driver/Src/stm32g4xx_hal_comp.c **** }
 514:Drivers/STM32G4xx_HAL_Driver/Src/stm32g4xx_hal_comp.c **** 
 515:Drivers/STM32G4xx_HAL_Driver/Src/stm32g4xx_hal_comp.c **** /**
 516:Drivers/STM32G4xx_HAL_Driver/Src/stm32g4xx_hal_comp.c ****   * @brief  DeInitialize the COMP peripheral.
 517:Drivers/STM32G4xx_HAL_Driver/Src/stm32g4xx_hal_comp.c ****   * @note   Deinitialization cannot be performed if the COMP configuration is locked.
 518:Drivers/STM32G4xx_HAL_Driver/Src/stm32g4xx_hal_comp.c ****   *         To unlock the configuration, perform a system reset.
 519:Drivers/STM32G4xx_HAL_Driver/Src/stm32g4xx_hal_comp.c ****   * @param  hcomp  COMP handle
 520:Drivers/STM32G4xx_HAL_Driver/Src/stm32g4xx_hal_comp.c ****   * @retval HAL status
 521:Drivers/STM32G4xx_HAL_Driver/Src/stm32g4xx_hal_comp.c ****   */
 522:Drivers/STM32G4xx_HAL_Driver/Src/stm32g4xx_hal_comp.c **** HAL_StatusTypeDef HAL_COMP_DeInit(COMP_HandleTypeDef *hcomp)
 523:Drivers/STM32G4xx_HAL_Driver/Src/stm32g4xx_hal_comp.c **** {
 524:Drivers/STM32G4xx_HAL_Driver/Src/stm32g4xx_hal_comp.c ****   HAL_StatusTypeDef status = HAL_OK;
 525:Drivers/STM32G4xx_HAL_Driver/Src/stm32g4xx_hal_comp.c **** 
 526:Drivers/STM32G4xx_HAL_Driver/Src/stm32g4xx_hal_comp.c ****   /* Check the COMP handle allocation and lock status */
 527:Drivers/STM32G4xx_HAL_Driver/Src/stm32g4xx_hal_comp.c ****   if(hcomp == NULL)
 528:Drivers/STM32G4xx_HAL_Driver/Src/stm32g4xx_hal_comp.c ****   {
 529:Drivers/STM32G4xx_HAL_Driver/Src/stm32g4xx_hal_comp.c ****     status = HAL_ERROR;
 530:Drivers/STM32G4xx_HAL_Driver/Src/stm32g4xx_hal_comp.c ****   }
 531:Drivers/STM32G4xx_HAL_Driver/Src/stm32g4xx_hal_comp.c ****   else if(__HAL_COMP_IS_LOCKED(hcomp))
 532:Drivers/STM32G4xx_HAL_Driver/Src/stm32g4xx_hal_comp.c ****   {
 533:Drivers/STM32G4xx_HAL_Driver/Src/stm32g4xx_hal_comp.c ****     status = HAL_ERROR;
 534:Drivers/STM32G4xx_HAL_Driver/Src/stm32g4xx_hal_comp.c ****   }
 535:Drivers/STM32G4xx_HAL_Driver/Src/stm32g4xx_hal_comp.c ****   else
 536:Drivers/STM32G4xx_HAL_Driver/Src/stm32g4xx_hal_comp.c ****   {
 537:Drivers/STM32G4xx_HAL_Driver/Src/stm32g4xx_hal_comp.c ****     /* Check the parameter */
 538:Drivers/STM32G4xx_HAL_Driver/Src/stm32g4xx_hal_comp.c ****     assert_param(IS_COMP_ALL_INSTANCE(hcomp->Instance));
 539:Drivers/STM32G4xx_HAL_Driver/Src/stm32g4xx_hal_comp.c **** 
 540:Drivers/STM32G4xx_HAL_Driver/Src/stm32g4xx_hal_comp.c ****     /* Set COMP_CSR register to reset value */
 541:Drivers/STM32G4xx_HAL_Driver/Src/stm32g4xx_hal_comp.c ****     WRITE_REG(hcomp->Instance->CSR, 0x00000000UL);
 542:Drivers/STM32G4xx_HAL_Driver/Src/stm32g4xx_hal_comp.c **** 
ARM GAS  /tmp/ccDOtdDj.s 			page 11


 543:Drivers/STM32G4xx_HAL_Driver/Src/stm32g4xx_hal_comp.c **** #if (USE_HAL_COMP_REGISTER_CALLBACKS == 1)
 544:Drivers/STM32G4xx_HAL_Driver/Src/stm32g4xx_hal_comp.c ****     if (hcomp->MspDeInitCallback == NULL)
 545:Drivers/STM32G4xx_HAL_Driver/Src/stm32g4xx_hal_comp.c ****     {
 546:Drivers/STM32G4xx_HAL_Driver/Src/stm32g4xx_hal_comp.c ****       hcomp->MspDeInitCallback = HAL_COMP_MspDeInit; /* Legacy weak MspDeInit  */
 547:Drivers/STM32G4xx_HAL_Driver/Src/stm32g4xx_hal_comp.c ****     }
 548:Drivers/STM32G4xx_HAL_Driver/Src/stm32g4xx_hal_comp.c **** 
 549:Drivers/STM32G4xx_HAL_Driver/Src/stm32g4xx_hal_comp.c ****     /* DeInit the low level hardware: GPIO, RCC clock, NVIC */
 550:Drivers/STM32G4xx_HAL_Driver/Src/stm32g4xx_hal_comp.c ****     hcomp->MspDeInitCallback(hcomp);
 551:Drivers/STM32G4xx_HAL_Driver/Src/stm32g4xx_hal_comp.c **** #else
 552:Drivers/STM32G4xx_HAL_Driver/Src/stm32g4xx_hal_comp.c ****     /* DeInit the low level hardware: GPIO, RCC clock, NVIC */
 553:Drivers/STM32G4xx_HAL_Driver/Src/stm32g4xx_hal_comp.c ****     HAL_COMP_MspDeInit(hcomp);
 554:Drivers/STM32G4xx_HAL_Driver/Src/stm32g4xx_hal_comp.c **** #endif /* USE_HAL_COMP_REGISTER_CALLBACKS */
 555:Drivers/STM32G4xx_HAL_Driver/Src/stm32g4xx_hal_comp.c **** 
 556:Drivers/STM32G4xx_HAL_Driver/Src/stm32g4xx_hal_comp.c ****     /* Set HAL COMP handle state */
 557:Drivers/STM32G4xx_HAL_Driver/Src/stm32g4xx_hal_comp.c ****     hcomp->State = HAL_COMP_STATE_RESET;
 558:Drivers/STM32G4xx_HAL_Driver/Src/stm32g4xx_hal_comp.c **** 
 559:Drivers/STM32G4xx_HAL_Driver/Src/stm32g4xx_hal_comp.c ****     /* Release Lock */
 560:Drivers/STM32G4xx_HAL_Driver/Src/stm32g4xx_hal_comp.c ****     __HAL_UNLOCK(hcomp);
 561:Drivers/STM32G4xx_HAL_Driver/Src/stm32g4xx_hal_comp.c ****   }
 562:Drivers/STM32G4xx_HAL_Driver/Src/stm32g4xx_hal_comp.c **** 
 563:Drivers/STM32G4xx_HAL_Driver/Src/stm32g4xx_hal_comp.c ****   return status;
 564:Drivers/STM32G4xx_HAL_Driver/Src/stm32g4xx_hal_comp.c **** }
 565:Drivers/STM32G4xx_HAL_Driver/Src/stm32g4xx_hal_comp.c **** 
 566:Drivers/STM32G4xx_HAL_Driver/Src/stm32g4xx_hal_comp.c **** /**
 567:Drivers/STM32G4xx_HAL_Driver/Src/stm32g4xx_hal_comp.c ****   * @brief  Initialize the COMP MSP.
 568:Drivers/STM32G4xx_HAL_Driver/Src/stm32g4xx_hal_comp.c ****   * @param  hcomp  COMP handle
 569:Drivers/STM32G4xx_HAL_Driver/Src/stm32g4xx_hal_comp.c ****   * @retval None
 570:Drivers/STM32G4xx_HAL_Driver/Src/stm32g4xx_hal_comp.c ****   */
 571:Drivers/STM32G4xx_HAL_Driver/Src/stm32g4xx_hal_comp.c **** __weak void HAL_COMP_MspInit(COMP_HandleTypeDef *hcomp)
 572:Drivers/STM32G4xx_HAL_Driver/Src/stm32g4xx_hal_comp.c **** {
  30              		.loc 1 572 1 view -0
  31              		.cfi_startproc
  32              		@ args = 0, pretend = 0, frame = 0
  33              		@ frame_needed = 0, uses_anonymous_args = 0
  34              		@ link register save eliminated.
 573:Drivers/STM32G4xx_HAL_Driver/Src/stm32g4xx_hal_comp.c ****   /* Prevent unused argument(s) compilation warning */
 574:Drivers/STM32G4xx_HAL_Driver/Src/stm32g4xx_hal_comp.c ****   UNUSED(hcomp);
  35              		.loc 1 574 3 view .LVU1
 575:Drivers/STM32G4xx_HAL_Driver/Src/stm32g4xx_hal_comp.c **** 
 576:Drivers/STM32G4xx_HAL_Driver/Src/stm32g4xx_hal_comp.c ****   /* NOTE : This function should not be modified, when the callback is needed,
 577:Drivers/STM32G4xx_HAL_Driver/Src/stm32g4xx_hal_comp.c ****             the HAL_COMP_MspInit could be implemented in the user file
 578:Drivers/STM32G4xx_HAL_Driver/Src/stm32g4xx_hal_comp.c ****    */
 579:Drivers/STM32G4xx_HAL_Driver/Src/stm32g4xx_hal_comp.c **** }
  36              		.loc 1 579 1 is_stmt 0 view .LVU2
  37 0000 7047     		bx	lr
  38              		.cfi_endproc
  39              	.LFE359:
  41              		.section	.text.HAL_COMP_Init,"ax",%progbits
  42              		.align	1
  43              		.global	HAL_COMP_Init
  44              		.syntax unified
  45              		.thumb
  46              		.thumb_func
  47              		.fpu fpv4-sp-d16
  49              	HAL_COMP_Init:
  50              	.LVL1:
  51              	.LFB357:
ARM GAS  /tmp/ccDOtdDj.s 			page 12


 229:Drivers/STM32G4xx_HAL_Driver/Src/stm32g4xx_hal_comp.c ****   uint32_t tmp_csr;
  52              		.loc 1 229 1 is_stmt 1 view -0
  53              		.cfi_startproc
  54              		@ args = 0, pretend = 0, frame = 8
  55              		@ frame_needed = 0, uses_anonymous_args = 0
 230:Drivers/STM32G4xx_HAL_Driver/Src/stm32g4xx_hal_comp.c ****   uint32_t exti_line;
  56              		.loc 1 230 3 view .LVU4
 231:Drivers/STM32G4xx_HAL_Driver/Src/stm32g4xx_hal_comp.c ****   uint32_t comp_voltage_scaler_initialized; /* Value "0" if comparator voltage scaler is not initia
  57              		.loc 1 231 3 view .LVU5
 232:Drivers/STM32G4xx_HAL_Driver/Src/stm32g4xx_hal_comp.c ****   __IO uint32_t wait_loop_index = 0UL;
  58              		.loc 1 232 3 view .LVU6
 233:Drivers/STM32G4xx_HAL_Driver/Src/stm32g4xx_hal_comp.c ****   HAL_StatusTypeDef status = HAL_OK;
  59              		.loc 1 233 3 view .LVU7
 229:Drivers/STM32G4xx_HAL_Driver/Src/stm32g4xx_hal_comp.c ****   uint32_t tmp_csr;
  60              		.loc 1 229 1 is_stmt 0 view .LVU8
  61 0000 F7B5     		push	{r0, r1, r2, r4, r5, r6, r7, lr}
  62              	.LCFI0:
  63              		.cfi_def_cfa_offset 32
  64              		.cfi_offset 4, -20
  65              		.cfi_offset 5, -16
  66              		.cfi_offset 6, -12
  67              		.cfi_offset 7, -8
  68              		.cfi_offset 14, -4
 233:Drivers/STM32G4xx_HAL_Driver/Src/stm32g4xx_hal_comp.c ****   HAL_StatusTypeDef status = HAL_OK;
  69              		.loc 1 233 17 view .LVU9
  70 0002 0023     		movs	r3, #0
  71 0004 0193     		str	r3, [sp, #4]
 234:Drivers/STM32G4xx_HAL_Driver/Src/stm32g4xx_hal_comp.c **** 
  72              		.loc 1 234 3 is_stmt 1 view .LVU10
  73              	.LVL2:
 237:Drivers/STM32G4xx_HAL_Driver/Src/stm32g4xx_hal_comp.c ****   {
  74              		.loc 1 237 3 view .LVU11
 237:Drivers/STM32G4xx_HAL_Driver/Src/stm32g4xx_hal_comp.c ****   {
  75              		.loc 1 237 5 is_stmt 0 view .LVU12
  76 0006 0446     		mov	r4, r0
  77 0008 0028     		cmp	r0, #0
  78 000a 00F0EF80 		beq	.L45
 241:Drivers/STM32G4xx_HAL_Driver/Src/stm32g4xx_hal_comp.c ****   {
  79              		.loc 1 241 8 is_stmt 1 view .LVU13
 241:Drivers/STM32G4xx_HAL_Driver/Src/stm32g4xx_hal_comp.c ****   {
  80              		.loc 1 241 11 is_stmt 0 view .LVU14
  81 000e 0368     		ldr	r3, [r0]
  82 0010 1B68     		ldr	r3, [r3]
 241:Drivers/STM32G4xx_HAL_Driver/Src/stm32g4xx_hal_comp.c ****   {
  83              		.loc 1 241 10 view .LVU15
  84 0012 002B     		cmp	r3, #0
  85 0014 C0F2EA80 		blt	.L45
 248:Drivers/STM32G4xx_HAL_Driver/Src/stm32g4xx_hal_comp.c ****     assert_param(IS_COMP_INPUT_PLUS(hcomp->Instance, hcomp->Init.InputPlus));
  86              		.loc 1 248 5 is_stmt 1 view .LVU16
 249:Drivers/STM32G4xx_HAL_Driver/Src/stm32g4xx_hal_comp.c ****     assert_param(IS_COMP_INPUT_MINUS(hcomp->Instance, hcomp->Init.InputMinus));
  87              		.loc 1 249 5 view .LVU17
 250:Drivers/STM32G4xx_HAL_Driver/Src/stm32g4xx_hal_comp.c ****     assert_param(IS_COMP_OUTPUTPOL(hcomp->Init.OutputPol));
  88              		.loc 1 250 5 view .LVU18
 251:Drivers/STM32G4xx_HAL_Driver/Src/stm32g4xx_hal_comp.c ****     assert_param(IS_COMP_HYSTERESIS(hcomp->Init.Hysteresis));
  89              		.loc 1 251 5 view .LVU19
 252:Drivers/STM32G4xx_HAL_Driver/Src/stm32g4xx_hal_comp.c ****     assert_param(IS_COMP_BLANKINGSRC_INSTANCE(hcomp->Instance, hcomp->Init.BlankingSrce));
  90              		.loc 1 252 5 view .LVU20
ARM GAS  /tmp/ccDOtdDj.s 			page 13


 253:Drivers/STM32G4xx_HAL_Driver/Src/stm32g4xx_hal_comp.c ****     assert_param(IS_COMP_TRIGGERMODE(hcomp->Init.TriggerMode));
  91              		.loc 1 253 5 view .LVU21
 254:Drivers/STM32G4xx_HAL_Driver/Src/stm32g4xx_hal_comp.c **** 
  92              		.loc 1 254 5 view .LVU22
 256:Drivers/STM32G4xx_HAL_Driver/Src/stm32g4xx_hal_comp.c ****     {
  93              		.loc 1 256 5 view .LVU23
 256:Drivers/STM32G4xx_HAL_Driver/Src/stm32g4xx_hal_comp.c ****     {
  94              		.loc 1 256 13 is_stmt 0 view .LVU24
  95 0018 427F     		ldrb	r2, [r0, #29]	@ zero_extendqisi2
 256:Drivers/STM32G4xx_HAL_Driver/Src/stm32g4xx_hal_comp.c ****     {
  96              		.loc 1 256 7 view .LVU25
  97 001a 02F0FF03 		and	r3, r2, #255
  98 001e 1AB9     		cbnz	r2, .L4
 259:Drivers/STM32G4xx_HAL_Driver/Src/stm32g4xx_hal_comp.c **** 
  99              		.loc 1 259 7 is_stmt 1 view .LVU26
 259:Drivers/STM32G4xx_HAL_Driver/Src/stm32g4xx_hal_comp.c **** 
 100              		.loc 1 259 19 is_stmt 0 view .LVU27
 101 0020 0377     		strb	r3, [r0, #28]
 262:Drivers/STM32G4xx_HAL_Driver/Src/stm32g4xx_hal_comp.c **** 
 102              		.loc 1 262 7 is_stmt 1 view .LVU28
 103 0022 0362     		str	r3, [r0, #32]
 284:Drivers/STM32G4xx_HAL_Driver/Src/stm32g4xx_hal_comp.c **** #endif /* USE_HAL_COMP_REGISTER_CALLBACKS */
 104              		.loc 1 284 7 view .LVU29
 105 0024 FFF7FEFF 		bl	HAL_COMP_MspInit
 106              	.LVL3:
 107              	.L4:
 289:Drivers/STM32G4xx_HAL_Driver/Src/stm32g4xx_hal_comp.c **** 
 108              		.loc 1 289 5 view .LVU30
 293:Drivers/STM32G4xx_HAL_Driver/Src/stm32g4xx_hal_comp.c ****                | hcomp->Init.BlankingSrce
 109              		.loc 1 293 16 is_stmt 0 view .LVU31
 110 0028 D4E90123 		ldrd	r2, r3, [r4, #4]
 111 002c 1343     		orrs	r3, r3, r2
 294:Drivers/STM32G4xx_HAL_Driver/Src/stm32g4xx_hal_comp.c ****                | hcomp->Init.Hysteresis
 112              		.loc 1 294 16 view .LVU32
 113 002e 6269     		ldr	r2, [r4, #20]
 289:Drivers/STM32G4xx_HAL_Driver/Src/stm32g4xx_hal_comp.c **** 
 114              		.loc 1 289 39 view .LVU33
 115 0030 2168     		ldr	r1, [r4]
 294:Drivers/STM32G4xx_HAL_Driver/Src/stm32g4xx_hal_comp.c ****                | hcomp->Init.Hysteresis
 116              		.loc 1 294 16 view .LVU34
 117 0032 1343     		orrs	r3, r3, r2
 295:Drivers/STM32G4xx_HAL_Driver/Src/stm32g4xx_hal_comp.c ****                | hcomp->Init.OutputPol
 118              		.loc 1 295 16 view .LVU35
 119 0034 E268     		ldr	r2, [r4, #12]
 289:Drivers/STM32G4xx_HAL_Driver/Src/stm32g4xx_hal_comp.c **** 
 120              		.loc 1 289 39 view .LVU36
 121 0036 0868     		ldr	r0, [r1]
 122              	.LVL4:
 292:Drivers/STM32G4xx_HAL_Driver/Src/stm32g4xx_hal_comp.c ****                | hcomp->Init.InputPlus
 123              		.loc 1 292 5 is_stmt 1 view .LVU37
 301:Drivers/STM32G4xx_HAL_Driver/Src/stm32g4xx_hal_comp.c ****                COMP_CSR_INMSEL   | COMP_CSR_INPSEL |
 124              		.loc 1 301 5 view .LVU38
 125 0038 0D68     		ldr	r5, [r1]
 295:Drivers/STM32G4xx_HAL_Driver/Src/stm32g4xx_hal_comp.c ****                | hcomp->Init.OutputPol
 126              		.loc 1 295 16 is_stmt 0 view .LVU39
 127 003a 1343     		orrs	r3, r3, r2
 292:Drivers/STM32G4xx_HAL_Driver/Src/stm32g4xx_hal_comp.c ****                | hcomp->Init.InputPlus
ARM GAS  /tmp/ccDOtdDj.s 			page 14


 128              		.loc 1 292 13 view .LVU40
 129 003c 2269     		ldr	r2, [r4, #16]
 130              	.LVL5:
 292:Drivers/STM32G4xx_HAL_Driver/Src/stm32g4xx_hal_comp.c ****                | hcomp->Init.InputPlus
 131              		.loc 1 292 13 view .LVU41
 132 003e 1343     		orrs	r3, r3, r2
 301:Drivers/STM32G4xx_HAL_Driver/Src/stm32g4xx_hal_comp.c ****                COMP_CSR_INMSEL   | COMP_CSR_INPSEL |
 133              		.loc 1 301 5 view .LVU42
 134 0040 6C4A     		ldr	r2, .L63
 135 0042 2A40     		ands	r2, r2, r5
 136 0044 1343     		orrs	r3, r3, r2
 137 0046 0B60     		str	r3, [r1]
 310:Drivers/STM32G4xx_HAL_Driver/Src/stm32g4xx_hal_comp.c ****         (comp_voltage_scaler_initialized == 0UL)               )
 138              		.loc 1 310 5 is_stmt 1 view .LVU43
 310:Drivers/STM32G4xx_HAL_Driver/Src/stm32g4xx_hal_comp.c ****         (comp_voltage_scaler_initialized == 0UL)               )
 139              		.loc 1 310 10 is_stmt 0 view .LVU44
 140 0048 0B68     		ldr	r3, [r1]
 310:Drivers/STM32G4xx_HAL_Driver/Src/stm32g4xx_hal_comp.c ****         (comp_voltage_scaler_initialized == 0UL)               )
 141              		.loc 1 310 8 view .LVU45
 142 004a 1A02     		lsls	r2, r3, #8
 143 004c 3AD4     		bmi	.L5
 144              	.L8:
 325:Drivers/STM32G4xx_HAL_Driver/Src/stm32g4xx_hal_comp.c **** 
 145              		.loc 1 325 5 is_stmt 1 view .LVU46
 325:Drivers/STM32G4xx_HAL_Driver/Src/stm32g4xx_hal_comp.c **** 
 146              		.loc 1 325 17 is_stmt 0 view .LVU47
 147 004e 6A4B     		ldr	r3, .L63+4
 148 0050 6A48     		ldr	r0, .L63+8
 149              	.LVL6:
 325:Drivers/STM32G4xx_HAL_Driver/Src/stm32g4xx_hal_comp.c **** 
 150              		.loc 1 325 17 view .LVU48
 151 0052 9942     		cmp	r1, r3
 152 0054 46D1     		bne	.L6
 153 0056 4FF40012 		mov	r2, #2097152
 154              	.L7:
 155              	.LVL7:
 328:Drivers/STM32G4xx_HAL_Driver/Src/stm32g4xx_hal_comp.c ****     {
 156              		.loc 1 328 5 is_stmt 1 discriminator 24 view .LVU49
 328:Drivers/STM32G4xx_HAL_Driver/Src/stm32g4xx_hal_comp.c ****     {
 157              		.loc 1 328 20 is_stmt 0 discriminator 24 view .LVU50
 158 005a A669     		ldr	r6, [r4, #24]
 159 005c 684B     		ldr	r3, .L63+12
 328:Drivers/STM32G4xx_HAL_Driver/Src/stm32g4xx_hal_comp.c ****     {
 160              		.loc 1 328 7 discriminator 24 view .LVU51
 161 005e 16F0030F 		tst	r6, #3
 162 0062 00F0A980 		beq	.L11
 331:Drivers/STM32G4xx_HAL_Driver/Src/stm32g4xx_hal_comp.c ****       {
 163              		.loc 1 331 7 is_stmt 1 view .LVU52
 331:Drivers/STM32G4xx_HAL_Driver/Src/stm32g4xx_hal_comp.c ****       {
 164              		.loc 1 331 9 is_stmt 0 view .LVU53
 165 0066 F706     		lsls	r7, r6, #27
 166 0068 5DD5     		bpl	.L12
 334:Drivers/STM32G4xx_HAL_Driver/Src/stm32g4xx_hal_comp.c ****         {
 167              		.loc 1 334 9 is_stmt 1 view .LVU54
 334:Drivers/STM32G4xx_HAL_Driver/Src/stm32g4xx_hal_comp.c ****         {
 168              		.loc 1 334 11 is_stmt 0 view .LVU55
 169 006a 8142     		cmp	r1, r0
ARM GAS  /tmp/ccDOtdDj.s 			page 15


 170 006c 02D0     		beq	.L13
 334:Drivers/STM32G4xx_HAL_Driver/Src/stm32g4xx_hal_comp.c ****         {
 171              		.loc 1 334 39 discriminator 1 view .LVU56
 172 006e 654D     		ldr	r5, .L63+16
 173 0070 A942     		cmp	r1, r5
 174 0072 54D1     		bne	.L14
 175              	.L13:
 336:Drivers/STM32G4xx_HAL_Driver/Src/stm32g4xx_hal_comp.c ****         }
 176              		.loc 1 336 11 is_stmt 1 view .LVU57
 177              	.LVL8:
 178              	.LBB54:
 179              	.LBI54:
 180              		.file 2 "Drivers/STM32G4xx_HAL_Driver/Inc/stm32g4xx_ll_exti.h"
   1:Drivers/STM32G4xx_HAL_Driver/Inc/stm32g4xx_ll_exti.h **** /**
   2:Drivers/STM32G4xx_HAL_Driver/Inc/stm32g4xx_ll_exti.h ****   ******************************************************************************
   3:Drivers/STM32G4xx_HAL_Driver/Inc/stm32g4xx_ll_exti.h ****   * @file    stm32g4xx_ll_exti.h
   4:Drivers/STM32G4xx_HAL_Driver/Inc/stm32g4xx_ll_exti.h ****   * @author  MCD Application Team
   5:Drivers/STM32G4xx_HAL_Driver/Inc/stm32g4xx_ll_exti.h ****   * @brief   Header file of EXTI LL module.
   6:Drivers/STM32G4xx_HAL_Driver/Inc/stm32g4xx_ll_exti.h ****   ******************************************************************************
   7:Drivers/STM32G4xx_HAL_Driver/Inc/stm32g4xx_ll_exti.h ****   * @attention
   8:Drivers/STM32G4xx_HAL_Driver/Inc/stm32g4xx_ll_exti.h ****   *
   9:Drivers/STM32G4xx_HAL_Driver/Inc/stm32g4xx_ll_exti.h ****   * <h2><center>&copy; Copyright (c) 2019 STMicroelectronics.
  10:Drivers/STM32G4xx_HAL_Driver/Inc/stm32g4xx_ll_exti.h ****   * All rights reserved.</center></h2>
  11:Drivers/STM32G4xx_HAL_Driver/Inc/stm32g4xx_ll_exti.h ****   *
  12:Drivers/STM32G4xx_HAL_Driver/Inc/stm32g4xx_ll_exti.h ****   * This software component is licensed by ST under BSD 3-Clause license,
  13:Drivers/STM32G4xx_HAL_Driver/Inc/stm32g4xx_ll_exti.h ****   * the "License"; You may not use this file except in compliance with the
  14:Drivers/STM32G4xx_HAL_Driver/Inc/stm32g4xx_ll_exti.h ****   * License. You may obtain a copy of the License at:
  15:Drivers/STM32G4xx_HAL_Driver/Inc/stm32g4xx_ll_exti.h ****   *                        opensource.org/licenses/BSD-3-Clause
  16:Drivers/STM32G4xx_HAL_Driver/Inc/stm32g4xx_ll_exti.h ****   *
  17:Drivers/STM32G4xx_HAL_Driver/Inc/stm32g4xx_ll_exti.h ****   ******************************************************************************
  18:Drivers/STM32G4xx_HAL_Driver/Inc/stm32g4xx_ll_exti.h ****   */
  19:Drivers/STM32G4xx_HAL_Driver/Inc/stm32g4xx_ll_exti.h **** 
  20:Drivers/STM32G4xx_HAL_Driver/Inc/stm32g4xx_ll_exti.h **** /* Define to prevent recursive inclusion -------------------------------------*/
  21:Drivers/STM32G4xx_HAL_Driver/Inc/stm32g4xx_ll_exti.h **** #ifndef __STM32G4xx_LL_EXTI_H
  22:Drivers/STM32G4xx_HAL_Driver/Inc/stm32g4xx_ll_exti.h **** #define __STM32G4xx_LL_EXTI_H
  23:Drivers/STM32G4xx_HAL_Driver/Inc/stm32g4xx_ll_exti.h **** 
  24:Drivers/STM32G4xx_HAL_Driver/Inc/stm32g4xx_ll_exti.h **** #ifdef __cplusplus
  25:Drivers/STM32G4xx_HAL_Driver/Inc/stm32g4xx_ll_exti.h **** extern "C" {
  26:Drivers/STM32G4xx_HAL_Driver/Inc/stm32g4xx_ll_exti.h **** #endif
  27:Drivers/STM32G4xx_HAL_Driver/Inc/stm32g4xx_ll_exti.h **** 
  28:Drivers/STM32G4xx_HAL_Driver/Inc/stm32g4xx_ll_exti.h **** /* Includes ------------------------------------------------------------------*/
  29:Drivers/STM32G4xx_HAL_Driver/Inc/stm32g4xx_ll_exti.h **** #include "stm32g4xx.h"
  30:Drivers/STM32G4xx_HAL_Driver/Inc/stm32g4xx_ll_exti.h **** 
  31:Drivers/STM32G4xx_HAL_Driver/Inc/stm32g4xx_ll_exti.h **** /** @addtogroup STM32G4xx_LL_Driver
  32:Drivers/STM32G4xx_HAL_Driver/Inc/stm32g4xx_ll_exti.h ****   * @{
  33:Drivers/STM32G4xx_HAL_Driver/Inc/stm32g4xx_ll_exti.h ****   */
  34:Drivers/STM32G4xx_HAL_Driver/Inc/stm32g4xx_ll_exti.h **** 
  35:Drivers/STM32G4xx_HAL_Driver/Inc/stm32g4xx_ll_exti.h **** #if defined (EXTI)
  36:Drivers/STM32G4xx_HAL_Driver/Inc/stm32g4xx_ll_exti.h **** 
  37:Drivers/STM32G4xx_HAL_Driver/Inc/stm32g4xx_ll_exti.h **** /** @defgroup EXTI_LL EXTI
  38:Drivers/STM32G4xx_HAL_Driver/Inc/stm32g4xx_ll_exti.h ****   * @{
  39:Drivers/STM32G4xx_HAL_Driver/Inc/stm32g4xx_ll_exti.h ****   */
  40:Drivers/STM32G4xx_HAL_Driver/Inc/stm32g4xx_ll_exti.h **** 
  41:Drivers/STM32G4xx_HAL_Driver/Inc/stm32g4xx_ll_exti.h **** /* Private types -------------------------------------------------------------*/
  42:Drivers/STM32G4xx_HAL_Driver/Inc/stm32g4xx_ll_exti.h **** /* Private variables ---------------------------------------------------------*/
  43:Drivers/STM32G4xx_HAL_Driver/Inc/stm32g4xx_ll_exti.h **** /* Private constants ---------------------------------------------------------*/
  44:Drivers/STM32G4xx_HAL_Driver/Inc/stm32g4xx_ll_exti.h **** /* Private Macros ------------------------------------------------------------*/
ARM GAS  /tmp/ccDOtdDj.s 			page 16


  45:Drivers/STM32G4xx_HAL_Driver/Inc/stm32g4xx_ll_exti.h **** #if defined(USE_FULL_LL_DRIVER)
  46:Drivers/STM32G4xx_HAL_Driver/Inc/stm32g4xx_ll_exti.h **** /** @defgroup EXTI_LL_Private_Macros EXTI Private Macros
  47:Drivers/STM32G4xx_HAL_Driver/Inc/stm32g4xx_ll_exti.h ****   * @{
  48:Drivers/STM32G4xx_HAL_Driver/Inc/stm32g4xx_ll_exti.h ****   */
  49:Drivers/STM32G4xx_HAL_Driver/Inc/stm32g4xx_ll_exti.h **** /**
  50:Drivers/STM32G4xx_HAL_Driver/Inc/stm32g4xx_ll_exti.h ****   * @}
  51:Drivers/STM32G4xx_HAL_Driver/Inc/stm32g4xx_ll_exti.h ****   */
  52:Drivers/STM32G4xx_HAL_Driver/Inc/stm32g4xx_ll_exti.h **** #endif /*USE_FULL_LL_DRIVER*/
  53:Drivers/STM32G4xx_HAL_Driver/Inc/stm32g4xx_ll_exti.h **** /* Exported types ------------------------------------------------------------*/
  54:Drivers/STM32G4xx_HAL_Driver/Inc/stm32g4xx_ll_exti.h **** #if defined(USE_FULL_LL_DRIVER)
  55:Drivers/STM32G4xx_HAL_Driver/Inc/stm32g4xx_ll_exti.h **** /** @defgroup EXTI_LL_ES_INIT EXTI Exported Init structure
  56:Drivers/STM32G4xx_HAL_Driver/Inc/stm32g4xx_ll_exti.h ****   * @{
  57:Drivers/STM32G4xx_HAL_Driver/Inc/stm32g4xx_ll_exti.h ****   */
  58:Drivers/STM32G4xx_HAL_Driver/Inc/stm32g4xx_ll_exti.h **** typedef struct
  59:Drivers/STM32G4xx_HAL_Driver/Inc/stm32g4xx_ll_exti.h **** {
  60:Drivers/STM32G4xx_HAL_Driver/Inc/stm32g4xx_ll_exti.h **** 
  61:Drivers/STM32G4xx_HAL_Driver/Inc/stm32g4xx_ll_exti.h ****   uint32_t Line_0_31;           /*!< Specifies the EXTI lines to be enabled or disabled for Lines i
  62:Drivers/STM32G4xx_HAL_Driver/Inc/stm32g4xx_ll_exti.h ****                                      This parameter can be any combination of @ref EXTI_LL_EC_LINE 
  63:Drivers/STM32G4xx_HAL_Driver/Inc/stm32g4xx_ll_exti.h **** 
  64:Drivers/STM32G4xx_HAL_Driver/Inc/stm32g4xx_ll_exti.h ****   uint32_t Line_32_63;          /*!< Specifies the EXTI lines to be enabled or disabled for Lines i
  65:Drivers/STM32G4xx_HAL_Driver/Inc/stm32g4xx_ll_exti.h ****                                      This parameter can be any combination of @ref EXTI_LL_EC_LINE 
  66:Drivers/STM32G4xx_HAL_Driver/Inc/stm32g4xx_ll_exti.h **** 
  67:Drivers/STM32G4xx_HAL_Driver/Inc/stm32g4xx_ll_exti.h ****   FunctionalState LineCommand;  /*!< Specifies the new state of the selected EXTI lines.
  68:Drivers/STM32G4xx_HAL_Driver/Inc/stm32g4xx_ll_exti.h ****                                      This parameter can be set either to ENABLE or DISABLE */
  69:Drivers/STM32G4xx_HAL_Driver/Inc/stm32g4xx_ll_exti.h **** 
  70:Drivers/STM32G4xx_HAL_Driver/Inc/stm32g4xx_ll_exti.h ****   uint8_t Mode;                 /*!< Specifies the mode for the EXTI lines.
  71:Drivers/STM32G4xx_HAL_Driver/Inc/stm32g4xx_ll_exti.h ****                                      This parameter can be a value of @ref EXTI_LL_EC_MODE. */
  72:Drivers/STM32G4xx_HAL_Driver/Inc/stm32g4xx_ll_exti.h **** 
  73:Drivers/STM32G4xx_HAL_Driver/Inc/stm32g4xx_ll_exti.h ****   uint8_t Trigger;              /*!< Specifies the trigger signal active edge for the EXTI lines.
  74:Drivers/STM32G4xx_HAL_Driver/Inc/stm32g4xx_ll_exti.h ****                                      This parameter can be a value of @ref EXTI_LL_EC_TRIGGER. */
  75:Drivers/STM32G4xx_HAL_Driver/Inc/stm32g4xx_ll_exti.h **** } LL_EXTI_InitTypeDef;
  76:Drivers/STM32G4xx_HAL_Driver/Inc/stm32g4xx_ll_exti.h **** 
  77:Drivers/STM32G4xx_HAL_Driver/Inc/stm32g4xx_ll_exti.h **** /**
  78:Drivers/STM32G4xx_HAL_Driver/Inc/stm32g4xx_ll_exti.h ****   * @}
  79:Drivers/STM32G4xx_HAL_Driver/Inc/stm32g4xx_ll_exti.h ****   */
  80:Drivers/STM32G4xx_HAL_Driver/Inc/stm32g4xx_ll_exti.h **** #endif /*USE_FULL_LL_DRIVER*/
  81:Drivers/STM32G4xx_HAL_Driver/Inc/stm32g4xx_ll_exti.h **** 
  82:Drivers/STM32G4xx_HAL_Driver/Inc/stm32g4xx_ll_exti.h **** /* Exported constants --------------------------------------------------------*/
  83:Drivers/STM32G4xx_HAL_Driver/Inc/stm32g4xx_ll_exti.h **** /** @defgroup EXTI_LL_Exported_Constants EXTI Exported Constants
  84:Drivers/STM32G4xx_HAL_Driver/Inc/stm32g4xx_ll_exti.h ****   * @{
  85:Drivers/STM32G4xx_HAL_Driver/Inc/stm32g4xx_ll_exti.h ****   */
  86:Drivers/STM32G4xx_HAL_Driver/Inc/stm32g4xx_ll_exti.h **** 
  87:Drivers/STM32G4xx_HAL_Driver/Inc/stm32g4xx_ll_exti.h **** /** @defgroup EXTI_LL_EC_LINE LINE
  88:Drivers/STM32G4xx_HAL_Driver/Inc/stm32g4xx_ll_exti.h ****   * @{
  89:Drivers/STM32G4xx_HAL_Driver/Inc/stm32g4xx_ll_exti.h ****   */
  90:Drivers/STM32G4xx_HAL_Driver/Inc/stm32g4xx_ll_exti.h **** #define LL_EXTI_LINE_0                 EXTI_IMR1_IM0           /*!< Extended line 0 */
  91:Drivers/STM32G4xx_HAL_Driver/Inc/stm32g4xx_ll_exti.h **** #define LL_EXTI_LINE_1                 EXTI_IMR1_IM1           /*!< Extended line 1 */
  92:Drivers/STM32G4xx_HAL_Driver/Inc/stm32g4xx_ll_exti.h **** #define LL_EXTI_LINE_2                 EXTI_IMR1_IM2           /*!< Extended line 2 */
  93:Drivers/STM32G4xx_HAL_Driver/Inc/stm32g4xx_ll_exti.h **** #define LL_EXTI_LINE_3                 EXTI_IMR1_IM3           /*!< Extended line 3 */
  94:Drivers/STM32G4xx_HAL_Driver/Inc/stm32g4xx_ll_exti.h **** #define LL_EXTI_LINE_4                 EXTI_IMR1_IM4           /*!< Extended line 4 */
  95:Drivers/STM32G4xx_HAL_Driver/Inc/stm32g4xx_ll_exti.h **** #define LL_EXTI_LINE_5                 EXTI_IMR1_IM5           /*!< Extended line 5 */
  96:Drivers/STM32G4xx_HAL_Driver/Inc/stm32g4xx_ll_exti.h **** #define LL_EXTI_LINE_6                 EXTI_IMR1_IM6           /*!< Extended line 6 */
  97:Drivers/STM32G4xx_HAL_Driver/Inc/stm32g4xx_ll_exti.h **** #define LL_EXTI_LINE_7                 EXTI_IMR1_IM7           /*!< Extended line 7 */
  98:Drivers/STM32G4xx_HAL_Driver/Inc/stm32g4xx_ll_exti.h **** #define LL_EXTI_LINE_8                 EXTI_IMR1_IM8           /*!< Extended line 8 */
  99:Drivers/STM32G4xx_HAL_Driver/Inc/stm32g4xx_ll_exti.h **** #define LL_EXTI_LINE_9                 EXTI_IMR1_IM9           /*!< Extended line 9 */
 100:Drivers/STM32G4xx_HAL_Driver/Inc/stm32g4xx_ll_exti.h **** #define LL_EXTI_LINE_10                EXTI_IMR1_IM10          /*!< Extended line 10 */
 101:Drivers/STM32G4xx_HAL_Driver/Inc/stm32g4xx_ll_exti.h **** #define LL_EXTI_LINE_11                EXTI_IMR1_IM11          /*!< Extended line 11 */
ARM GAS  /tmp/ccDOtdDj.s 			page 17


 102:Drivers/STM32G4xx_HAL_Driver/Inc/stm32g4xx_ll_exti.h **** #define LL_EXTI_LINE_12                EXTI_IMR1_IM12          /*!< Extended line 12 */
 103:Drivers/STM32G4xx_HAL_Driver/Inc/stm32g4xx_ll_exti.h **** #define LL_EXTI_LINE_13                EXTI_IMR1_IM13          /*!< Extended line 13 */
 104:Drivers/STM32G4xx_HAL_Driver/Inc/stm32g4xx_ll_exti.h **** #define LL_EXTI_LINE_14                EXTI_IMR1_IM14          /*!< Extended line 14 */
 105:Drivers/STM32G4xx_HAL_Driver/Inc/stm32g4xx_ll_exti.h **** #define LL_EXTI_LINE_15                EXTI_IMR1_IM15          /*!< Extended line 15 */
 106:Drivers/STM32G4xx_HAL_Driver/Inc/stm32g4xx_ll_exti.h **** #if defined(EXTI_IMR1_IM16)
 107:Drivers/STM32G4xx_HAL_Driver/Inc/stm32g4xx_ll_exti.h **** #define LL_EXTI_LINE_16                EXTI_IMR1_IM16          /*!< Extended line 16 */
 108:Drivers/STM32G4xx_HAL_Driver/Inc/stm32g4xx_ll_exti.h **** #endif /* EXTI_IMR1_IM16 */
 109:Drivers/STM32G4xx_HAL_Driver/Inc/stm32g4xx_ll_exti.h **** #define LL_EXTI_LINE_17                EXTI_IMR1_IM17          /*!< Extended line 17 */
 110:Drivers/STM32G4xx_HAL_Driver/Inc/stm32g4xx_ll_exti.h **** #if defined(EXTI_IMR1_IM18)
 111:Drivers/STM32G4xx_HAL_Driver/Inc/stm32g4xx_ll_exti.h **** #define LL_EXTI_LINE_18                EXTI_IMR1_IM18          /*!< Extended line 18 */
 112:Drivers/STM32G4xx_HAL_Driver/Inc/stm32g4xx_ll_exti.h **** #endif /* EXTI_IMR1_IM18 */
 113:Drivers/STM32G4xx_HAL_Driver/Inc/stm32g4xx_ll_exti.h **** #define LL_EXTI_LINE_19                EXTI_IMR1_IM19          /*!< Extended line 19 */
 114:Drivers/STM32G4xx_HAL_Driver/Inc/stm32g4xx_ll_exti.h **** #if defined(EXTI_IMR1_IM20)
 115:Drivers/STM32G4xx_HAL_Driver/Inc/stm32g4xx_ll_exti.h **** #define LL_EXTI_LINE_20                EXTI_IMR1_IM20          /*!< Extended line 20 */
 116:Drivers/STM32G4xx_HAL_Driver/Inc/stm32g4xx_ll_exti.h **** #endif /* EXTI_IMR1_IM20 */
 117:Drivers/STM32G4xx_HAL_Driver/Inc/stm32g4xx_ll_exti.h **** #if defined(EXTI_IMR1_IM21)
 118:Drivers/STM32G4xx_HAL_Driver/Inc/stm32g4xx_ll_exti.h **** #define LL_EXTI_LINE_21                EXTI_IMR1_IM21          /*!< Extended line 21 */
 119:Drivers/STM32G4xx_HAL_Driver/Inc/stm32g4xx_ll_exti.h **** #endif /* EXTI_IMR1_IM21 */
 120:Drivers/STM32G4xx_HAL_Driver/Inc/stm32g4xx_ll_exti.h **** #if defined(EXTI_IMR1_IM22)
 121:Drivers/STM32G4xx_HAL_Driver/Inc/stm32g4xx_ll_exti.h **** #define LL_EXTI_LINE_22                EXTI_IMR1_IM22          /*!< Extended line 22 */
 122:Drivers/STM32G4xx_HAL_Driver/Inc/stm32g4xx_ll_exti.h **** #endif /* EXTI_IMR1_IM22 */
 123:Drivers/STM32G4xx_HAL_Driver/Inc/stm32g4xx_ll_exti.h **** #define LL_EXTI_LINE_23                EXTI_IMR1_IM23          /*!< Extended line 23 */
 124:Drivers/STM32G4xx_HAL_Driver/Inc/stm32g4xx_ll_exti.h **** #if defined(EXTI_IMR1_IM24)
 125:Drivers/STM32G4xx_HAL_Driver/Inc/stm32g4xx_ll_exti.h **** #define LL_EXTI_LINE_24                EXTI_IMR1_IM24          /*!< Extended line 24 */
 126:Drivers/STM32G4xx_HAL_Driver/Inc/stm32g4xx_ll_exti.h **** #endif /* EXTI_IMR1_IM24 */
 127:Drivers/STM32G4xx_HAL_Driver/Inc/stm32g4xx_ll_exti.h **** #if defined(EXTI_IMR1_IM25)
 128:Drivers/STM32G4xx_HAL_Driver/Inc/stm32g4xx_ll_exti.h **** #define LL_EXTI_LINE_25                EXTI_IMR1_IM25          /*!< Extended line 25 */
 129:Drivers/STM32G4xx_HAL_Driver/Inc/stm32g4xx_ll_exti.h **** #endif /* EXTI_IMR1_IM25 */
 130:Drivers/STM32G4xx_HAL_Driver/Inc/stm32g4xx_ll_exti.h **** #if defined(EXTI_IMR1_IM26)
 131:Drivers/STM32G4xx_HAL_Driver/Inc/stm32g4xx_ll_exti.h **** #define LL_EXTI_LINE_26                EXTI_IMR1_IM26          /*!< Extended line 26 */
 132:Drivers/STM32G4xx_HAL_Driver/Inc/stm32g4xx_ll_exti.h **** #endif /* EXTI_IMR1_IM26 */
 133:Drivers/STM32G4xx_HAL_Driver/Inc/stm32g4xx_ll_exti.h **** #if defined(EXTI_IMR1_IM27)
 134:Drivers/STM32G4xx_HAL_Driver/Inc/stm32g4xx_ll_exti.h **** #define LL_EXTI_LINE_27                EXTI_IMR1_IM27          /*!< Extended line 27 */
 135:Drivers/STM32G4xx_HAL_Driver/Inc/stm32g4xx_ll_exti.h **** #endif /* EXTI_IMR1_IM27 */
 136:Drivers/STM32G4xx_HAL_Driver/Inc/stm32g4xx_ll_exti.h **** #if defined(EXTI_IMR1_IM28)
 137:Drivers/STM32G4xx_HAL_Driver/Inc/stm32g4xx_ll_exti.h **** #define LL_EXTI_LINE_28                EXTI_IMR1_IM28          /*!< Extended line 28 */
 138:Drivers/STM32G4xx_HAL_Driver/Inc/stm32g4xx_ll_exti.h **** #endif /* EXTI_IMR1_IM28 */
 139:Drivers/STM32G4xx_HAL_Driver/Inc/stm32g4xx_ll_exti.h **** #if defined(EXTI_IMR1_IM29)
 140:Drivers/STM32G4xx_HAL_Driver/Inc/stm32g4xx_ll_exti.h **** #define LL_EXTI_LINE_29                EXTI_IMR1_IM29          /*!< Extended line 29 */
 141:Drivers/STM32G4xx_HAL_Driver/Inc/stm32g4xx_ll_exti.h **** #endif /* EXTI_IMR1_IM29 */
 142:Drivers/STM32G4xx_HAL_Driver/Inc/stm32g4xx_ll_exti.h **** #if defined(EXTI_IMR1_IM30)
 143:Drivers/STM32G4xx_HAL_Driver/Inc/stm32g4xx_ll_exti.h **** #define LL_EXTI_LINE_30                EXTI_IMR1_IM30          /*!< Extended line 30 */
 144:Drivers/STM32G4xx_HAL_Driver/Inc/stm32g4xx_ll_exti.h **** #endif /* EXTI_IMR1_IM30 */
 145:Drivers/STM32G4xx_HAL_Driver/Inc/stm32g4xx_ll_exti.h **** #if defined(EXTI_IMR1_IM31)
 146:Drivers/STM32G4xx_HAL_Driver/Inc/stm32g4xx_ll_exti.h **** #define LL_EXTI_LINE_31                EXTI_IMR1_IM31          /*!< Extended line 31 */
 147:Drivers/STM32G4xx_HAL_Driver/Inc/stm32g4xx_ll_exti.h **** #endif /* EXTI_IMR1_IM31 */
 148:Drivers/STM32G4xx_HAL_Driver/Inc/stm32g4xx_ll_exti.h **** #define LL_EXTI_LINE_ALL_0_31          EXTI_IMR1_IM            /*!< All Extended line not reserved*
 149:Drivers/STM32G4xx_HAL_Driver/Inc/stm32g4xx_ll_exti.h **** 
 150:Drivers/STM32G4xx_HAL_Driver/Inc/stm32g4xx_ll_exti.h **** #if defined(EXTI_IMR2_IM32)
 151:Drivers/STM32G4xx_HAL_Driver/Inc/stm32g4xx_ll_exti.h **** #define LL_EXTI_LINE_32                EXTI_IMR2_IM32          /*!< Extended line 32 */
 152:Drivers/STM32G4xx_HAL_Driver/Inc/stm32g4xx_ll_exti.h **** #endif /* EXTI_IMR2_IM32 */
 153:Drivers/STM32G4xx_HAL_Driver/Inc/stm32g4xx_ll_exti.h **** #if defined(EXTI_IMR2_IM33)
 154:Drivers/STM32G4xx_HAL_Driver/Inc/stm32g4xx_ll_exti.h **** #define LL_EXTI_LINE_33                EXTI_IMR2_IM33          /*!< Extended line 33 */
 155:Drivers/STM32G4xx_HAL_Driver/Inc/stm32g4xx_ll_exti.h **** #endif /* EXTI_IMR2_IM33 */
 156:Drivers/STM32G4xx_HAL_Driver/Inc/stm32g4xx_ll_exti.h **** #if defined(EXTI_IMR2_IM34)
 157:Drivers/STM32G4xx_HAL_Driver/Inc/stm32g4xx_ll_exti.h **** #define LL_EXTI_LINE_34                EXTI_IMR2_IM34          /*!< Extended line 34 */
 158:Drivers/STM32G4xx_HAL_Driver/Inc/stm32g4xx_ll_exti.h **** #endif /* EXTI_IMR2_IM34 */
ARM GAS  /tmp/ccDOtdDj.s 			page 18


 159:Drivers/STM32G4xx_HAL_Driver/Inc/stm32g4xx_ll_exti.h **** #if defined(EXTI_IMR2_IM35)
 160:Drivers/STM32G4xx_HAL_Driver/Inc/stm32g4xx_ll_exti.h **** #define LL_EXTI_LINE_35                EXTI_IMR2_IM35          /*!< Extended line 35 */
 161:Drivers/STM32G4xx_HAL_Driver/Inc/stm32g4xx_ll_exti.h **** #endif /* EXTI_IMR2_IM35 */
 162:Drivers/STM32G4xx_HAL_Driver/Inc/stm32g4xx_ll_exti.h **** #if defined(EXTI_IMR2_IM36)
 163:Drivers/STM32G4xx_HAL_Driver/Inc/stm32g4xx_ll_exti.h **** #define LL_EXTI_LINE_36                EXTI_IMR2_IM36          /*!< Extended line 36 */
 164:Drivers/STM32G4xx_HAL_Driver/Inc/stm32g4xx_ll_exti.h **** #endif /* EXTI_IMR2_IM36 */
 165:Drivers/STM32G4xx_HAL_Driver/Inc/stm32g4xx_ll_exti.h **** #if defined(EXTI_IMR2_IM37)
 166:Drivers/STM32G4xx_HAL_Driver/Inc/stm32g4xx_ll_exti.h **** #define LL_EXTI_LINE_37                EXTI_IMR2_IM37          /*!< Extended line 37 */
 167:Drivers/STM32G4xx_HAL_Driver/Inc/stm32g4xx_ll_exti.h **** #endif /* EXTI_IMR2_IM37 */
 168:Drivers/STM32G4xx_HAL_Driver/Inc/stm32g4xx_ll_exti.h **** #if defined(EXTI_IMR2_IM38)
 169:Drivers/STM32G4xx_HAL_Driver/Inc/stm32g4xx_ll_exti.h **** #define LL_EXTI_LINE_38                EXTI_IMR2_IM38          /*!< Extended line 38 */
 170:Drivers/STM32G4xx_HAL_Driver/Inc/stm32g4xx_ll_exti.h **** #endif /* EXTI_IMR2_IM38 */
 171:Drivers/STM32G4xx_HAL_Driver/Inc/stm32g4xx_ll_exti.h **** #if defined(EXTI_IMR2_IM39)
 172:Drivers/STM32G4xx_HAL_Driver/Inc/stm32g4xx_ll_exti.h **** #define LL_EXTI_LINE_39                EXTI_IMR2_IM39          /*!< Extended line 39 */
 173:Drivers/STM32G4xx_HAL_Driver/Inc/stm32g4xx_ll_exti.h **** #endif /* EXTI_IMR2_IM39 */
 174:Drivers/STM32G4xx_HAL_Driver/Inc/stm32g4xx_ll_exti.h **** #if defined(EXTI_IMR2_IM40)
 175:Drivers/STM32G4xx_HAL_Driver/Inc/stm32g4xx_ll_exti.h **** #define LL_EXTI_LINE_40                EXTI_IMR2_IM40          /*!< Extended line 40 */
 176:Drivers/STM32G4xx_HAL_Driver/Inc/stm32g4xx_ll_exti.h **** #endif /* EXTI_IMR2_IM40 */
 177:Drivers/STM32G4xx_HAL_Driver/Inc/stm32g4xx_ll_exti.h **** #if defined(EXTI_IMR2_IM41)
 178:Drivers/STM32G4xx_HAL_Driver/Inc/stm32g4xx_ll_exti.h **** #define LL_EXTI_LINE_41                EXTI_IMR2_IM41          /*!< Extended line 41 */
 179:Drivers/STM32G4xx_HAL_Driver/Inc/stm32g4xx_ll_exti.h **** #endif /* EXTI_IMR2_IM41 */
 180:Drivers/STM32G4xx_HAL_Driver/Inc/stm32g4xx_ll_exti.h **** #if defined(EXTI_IMR2_IM42)
 181:Drivers/STM32G4xx_HAL_Driver/Inc/stm32g4xx_ll_exti.h **** #define LL_EXTI_LINE_42                EXTI_IMR2_IM42          /*!< Extended line 42 */
 182:Drivers/STM32G4xx_HAL_Driver/Inc/stm32g4xx_ll_exti.h **** #endif /* EXTI_IMR2_IM42 */
 183:Drivers/STM32G4xx_HAL_Driver/Inc/stm32g4xx_ll_exti.h **** #define LL_EXTI_LINE_ALL_32_63         EXTI_IMR2_IM            /*!< All Extended line not reserved*
 184:Drivers/STM32G4xx_HAL_Driver/Inc/stm32g4xx_ll_exti.h **** 
 185:Drivers/STM32G4xx_HAL_Driver/Inc/stm32g4xx_ll_exti.h **** 
 186:Drivers/STM32G4xx_HAL_Driver/Inc/stm32g4xx_ll_exti.h **** #define LL_EXTI_LINE_ALL               (0xFFFFFFFFU)  /*!< All Extended line */
 187:Drivers/STM32G4xx_HAL_Driver/Inc/stm32g4xx_ll_exti.h **** 
 188:Drivers/STM32G4xx_HAL_Driver/Inc/stm32g4xx_ll_exti.h **** #if defined(USE_FULL_LL_DRIVER)
 189:Drivers/STM32G4xx_HAL_Driver/Inc/stm32g4xx_ll_exti.h **** #define LL_EXTI_LINE_NONE              0x00000000U             /*!< None Extended line */
 190:Drivers/STM32G4xx_HAL_Driver/Inc/stm32g4xx_ll_exti.h **** #endif /*USE_FULL_LL_DRIVER*/
 191:Drivers/STM32G4xx_HAL_Driver/Inc/stm32g4xx_ll_exti.h **** 
 192:Drivers/STM32G4xx_HAL_Driver/Inc/stm32g4xx_ll_exti.h **** /**
 193:Drivers/STM32G4xx_HAL_Driver/Inc/stm32g4xx_ll_exti.h ****   * @}
 194:Drivers/STM32G4xx_HAL_Driver/Inc/stm32g4xx_ll_exti.h ****   */
 195:Drivers/STM32G4xx_HAL_Driver/Inc/stm32g4xx_ll_exti.h **** #if defined(USE_FULL_LL_DRIVER)
 196:Drivers/STM32G4xx_HAL_Driver/Inc/stm32g4xx_ll_exti.h **** 
 197:Drivers/STM32G4xx_HAL_Driver/Inc/stm32g4xx_ll_exti.h **** /** @defgroup EXTI_LL_EC_MODE Mode
 198:Drivers/STM32G4xx_HAL_Driver/Inc/stm32g4xx_ll_exti.h ****   * @{
 199:Drivers/STM32G4xx_HAL_Driver/Inc/stm32g4xx_ll_exti.h ****   */
 200:Drivers/STM32G4xx_HAL_Driver/Inc/stm32g4xx_ll_exti.h **** #define LL_EXTI_MODE_IT                 ((uint8_t)0x00U) /*!< Interrupt Mode */
 201:Drivers/STM32G4xx_HAL_Driver/Inc/stm32g4xx_ll_exti.h **** #define LL_EXTI_MODE_EVENT              ((uint8_t)0x01U) /*!< Event Mode */
 202:Drivers/STM32G4xx_HAL_Driver/Inc/stm32g4xx_ll_exti.h **** #define LL_EXTI_MODE_IT_EVENT           ((uint8_t)0x02U) /*!< Interrupt & Event Mode */
 203:Drivers/STM32G4xx_HAL_Driver/Inc/stm32g4xx_ll_exti.h **** /**
 204:Drivers/STM32G4xx_HAL_Driver/Inc/stm32g4xx_ll_exti.h ****   * @}
 205:Drivers/STM32G4xx_HAL_Driver/Inc/stm32g4xx_ll_exti.h ****   */
 206:Drivers/STM32G4xx_HAL_Driver/Inc/stm32g4xx_ll_exti.h **** 
 207:Drivers/STM32G4xx_HAL_Driver/Inc/stm32g4xx_ll_exti.h **** /** @defgroup EXTI_LL_EC_TRIGGER Edge Trigger
 208:Drivers/STM32G4xx_HAL_Driver/Inc/stm32g4xx_ll_exti.h ****   * @{
 209:Drivers/STM32G4xx_HAL_Driver/Inc/stm32g4xx_ll_exti.h ****   */
 210:Drivers/STM32G4xx_HAL_Driver/Inc/stm32g4xx_ll_exti.h **** #define LL_EXTI_TRIGGER_NONE            ((uint8_t)0x00U) /*!< No Trigger Mode */
 211:Drivers/STM32G4xx_HAL_Driver/Inc/stm32g4xx_ll_exti.h **** #define LL_EXTI_TRIGGER_RISING          ((uint8_t)0x01U) /*!< Trigger Rising Mode */
 212:Drivers/STM32G4xx_HAL_Driver/Inc/stm32g4xx_ll_exti.h **** #define LL_EXTI_TRIGGER_FALLING         ((uint8_t)0x02U) /*!< Trigger Falling Mode */
 213:Drivers/STM32G4xx_HAL_Driver/Inc/stm32g4xx_ll_exti.h **** #define LL_EXTI_TRIGGER_RISING_FALLING  ((uint8_t)0x03U) /*!< Trigger Rising & Falling Mode */
 214:Drivers/STM32G4xx_HAL_Driver/Inc/stm32g4xx_ll_exti.h **** 
 215:Drivers/STM32G4xx_HAL_Driver/Inc/stm32g4xx_ll_exti.h **** /**
ARM GAS  /tmp/ccDOtdDj.s 			page 19


 216:Drivers/STM32G4xx_HAL_Driver/Inc/stm32g4xx_ll_exti.h ****   * @}
 217:Drivers/STM32G4xx_HAL_Driver/Inc/stm32g4xx_ll_exti.h ****   */
 218:Drivers/STM32G4xx_HAL_Driver/Inc/stm32g4xx_ll_exti.h **** 
 219:Drivers/STM32G4xx_HAL_Driver/Inc/stm32g4xx_ll_exti.h **** 
 220:Drivers/STM32G4xx_HAL_Driver/Inc/stm32g4xx_ll_exti.h **** #endif /*USE_FULL_LL_DRIVER*/
 221:Drivers/STM32G4xx_HAL_Driver/Inc/stm32g4xx_ll_exti.h **** 
 222:Drivers/STM32G4xx_HAL_Driver/Inc/stm32g4xx_ll_exti.h **** 
 223:Drivers/STM32G4xx_HAL_Driver/Inc/stm32g4xx_ll_exti.h **** /**
 224:Drivers/STM32G4xx_HAL_Driver/Inc/stm32g4xx_ll_exti.h ****   * @}
 225:Drivers/STM32G4xx_HAL_Driver/Inc/stm32g4xx_ll_exti.h ****   */
 226:Drivers/STM32G4xx_HAL_Driver/Inc/stm32g4xx_ll_exti.h **** 
 227:Drivers/STM32G4xx_HAL_Driver/Inc/stm32g4xx_ll_exti.h **** /* Exported macro ------------------------------------------------------------*/
 228:Drivers/STM32G4xx_HAL_Driver/Inc/stm32g4xx_ll_exti.h **** /** @defgroup EXTI_LL_Exported_Macros EXTI Exported Macros
 229:Drivers/STM32G4xx_HAL_Driver/Inc/stm32g4xx_ll_exti.h ****   * @{
 230:Drivers/STM32G4xx_HAL_Driver/Inc/stm32g4xx_ll_exti.h ****   */
 231:Drivers/STM32G4xx_HAL_Driver/Inc/stm32g4xx_ll_exti.h **** 
 232:Drivers/STM32G4xx_HAL_Driver/Inc/stm32g4xx_ll_exti.h **** /** @defgroup EXTI_LL_EM_WRITE_READ Common Write and read registers Macros
 233:Drivers/STM32G4xx_HAL_Driver/Inc/stm32g4xx_ll_exti.h ****   * @{
 234:Drivers/STM32G4xx_HAL_Driver/Inc/stm32g4xx_ll_exti.h ****   */
 235:Drivers/STM32G4xx_HAL_Driver/Inc/stm32g4xx_ll_exti.h **** 
 236:Drivers/STM32G4xx_HAL_Driver/Inc/stm32g4xx_ll_exti.h **** /**
 237:Drivers/STM32G4xx_HAL_Driver/Inc/stm32g4xx_ll_exti.h ****   * @brief  Write a value in EXTI register
 238:Drivers/STM32G4xx_HAL_Driver/Inc/stm32g4xx_ll_exti.h ****   * @param  __REG__ Register to be written
 239:Drivers/STM32G4xx_HAL_Driver/Inc/stm32g4xx_ll_exti.h ****   * @param  __VALUE__ Value to be written in the register
 240:Drivers/STM32G4xx_HAL_Driver/Inc/stm32g4xx_ll_exti.h ****   * @retval None
 241:Drivers/STM32G4xx_HAL_Driver/Inc/stm32g4xx_ll_exti.h ****   */
 242:Drivers/STM32G4xx_HAL_Driver/Inc/stm32g4xx_ll_exti.h **** #define LL_EXTI_WriteReg(__REG__, __VALUE__) WRITE_REG(EXTI->__REG__, (__VALUE__))
 243:Drivers/STM32G4xx_HAL_Driver/Inc/stm32g4xx_ll_exti.h **** 
 244:Drivers/STM32G4xx_HAL_Driver/Inc/stm32g4xx_ll_exti.h **** /**
 245:Drivers/STM32G4xx_HAL_Driver/Inc/stm32g4xx_ll_exti.h ****   * @brief  Read a value in EXTI register
 246:Drivers/STM32G4xx_HAL_Driver/Inc/stm32g4xx_ll_exti.h ****   * @param  __REG__ Register to be read
 247:Drivers/STM32G4xx_HAL_Driver/Inc/stm32g4xx_ll_exti.h ****   * @retval Register value
 248:Drivers/STM32G4xx_HAL_Driver/Inc/stm32g4xx_ll_exti.h ****   */
 249:Drivers/STM32G4xx_HAL_Driver/Inc/stm32g4xx_ll_exti.h **** #define LL_EXTI_ReadReg(__REG__) READ_REG(EXTI->__REG__)
 250:Drivers/STM32G4xx_HAL_Driver/Inc/stm32g4xx_ll_exti.h **** /**
 251:Drivers/STM32G4xx_HAL_Driver/Inc/stm32g4xx_ll_exti.h ****   * @}
 252:Drivers/STM32G4xx_HAL_Driver/Inc/stm32g4xx_ll_exti.h ****   */
 253:Drivers/STM32G4xx_HAL_Driver/Inc/stm32g4xx_ll_exti.h **** 
 254:Drivers/STM32G4xx_HAL_Driver/Inc/stm32g4xx_ll_exti.h **** 
 255:Drivers/STM32G4xx_HAL_Driver/Inc/stm32g4xx_ll_exti.h **** /**
 256:Drivers/STM32G4xx_HAL_Driver/Inc/stm32g4xx_ll_exti.h ****   * @}
 257:Drivers/STM32G4xx_HAL_Driver/Inc/stm32g4xx_ll_exti.h ****   */
 258:Drivers/STM32G4xx_HAL_Driver/Inc/stm32g4xx_ll_exti.h **** 
 259:Drivers/STM32G4xx_HAL_Driver/Inc/stm32g4xx_ll_exti.h **** 
 260:Drivers/STM32G4xx_HAL_Driver/Inc/stm32g4xx_ll_exti.h **** 
 261:Drivers/STM32G4xx_HAL_Driver/Inc/stm32g4xx_ll_exti.h **** /* Exported functions --------------------------------------------------------*/
 262:Drivers/STM32G4xx_HAL_Driver/Inc/stm32g4xx_ll_exti.h **** /** @defgroup EXTI_LL_Exported_Functions EXTI Exported Functions
 263:Drivers/STM32G4xx_HAL_Driver/Inc/stm32g4xx_ll_exti.h ****   * @{
 264:Drivers/STM32G4xx_HAL_Driver/Inc/stm32g4xx_ll_exti.h ****   */
 265:Drivers/STM32G4xx_HAL_Driver/Inc/stm32g4xx_ll_exti.h **** /** @defgroup EXTI_LL_EF_IT_Management IT_Management
 266:Drivers/STM32G4xx_HAL_Driver/Inc/stm32g4xx_ll_exti.h ****   * @{
 267:Drivers/STM32G4xx_HAL_Driver/Inc/stm32g4xx_ll_exti.h ****   */
 268:Drivers/STM32G4xx_HAL_Driver/Inc/stm32g4xx_ll_exti.h **** 
 269:Drivers/STM32G4xx_HAL_Driver/Inc/stm32g4xx_ll_exti.h **** /**
 270:Drivers/STM32G4xx_HAL_Driver/Inc/stm32g4xx_ll_exti.h ****   * @brief  Enable ExtiLine Interrupt request for Lines in range 0 to 31
 271:Drivers/STM32G4xx_HAL_Driver/Inc/stm32g4xx_ll_exti.h ****   * @note The reset value for the direct or internal lines (see RM)
 272:Drivers/STM32G4xx_HAL_Driver/Inc/stm32g4xx_ll_exti.h ****   *       is set to 1 in order to enable the interrupt by default.
ARM GAS  /tmp/ccDOtdDj.s 			page 20


 273:Drivers/STM32G4xx_HAL_Driver/Inc/stm32g4xx_ll_exti.h ****   *       Bits are set automatically at Power on.
 274:Drivers/STM32G4xx_HAL_Driver/Inc/stm32g4xx_ll_exti.h ****   * @rmtoll IMR1         IMx           LL_EXTI_EnableIT_0_31
 275:Drivers/STM32G4xx_HAL_Driver/Inc/stm32g4xx_ll_exti.h ****   * @param  ExtiLine This parameter can be one of the following values:
 276:Drivers/STM32G4xx_HAL_Driver/Inc/stm32g4xx_ll_exti.h ****   *         @arg @ref LL_EXTI_LINE_0
 277:Drivers/STM32G4xx_HAL_Driver/Inc/stm32g4xx_ll_exti.h ****   *         @arg @ref LL_EXTI_LINE_1
 278:Drivers/STM32G4xx_HAL_Driver/Inc/stm32g4xx_ll_exti.h ****   *         @arg @ref LL_EXTI_LINE_2
 279:Drivers/STM32G4xx_HAL_Driver/Inc/stm32g4xx_ll_exti.h ****   *         @arg @ref LL_EXTI_LINE_3
 280:Drivers/STM32G4xx_HAL_Driver/Inc/stm32g4xx_ll_exti.h ****   *         @arg @ref LL_EXTI_LINE_4
 281:Drivers/STM32G4xx_HAL_Driver/Inc/stm32g4xx_ll_exti.h ****   *         @arg @ref LL_EXTI_LINE_5
 282:Drivers/STM32G4xx_HAL_Driver/Inc/stm32g4xx_ll_exti.h ****   *         @arg @ref LL_EXTI_LINE_6
 283:Drivers/STM32G4xx_HAL_Driver/Inc/stm32g4xx_ll_exti.h ****   *         @arg @ref LL_EXTI_LINE_7
 284:Drivers/STM32G4xx_HAL_Driver/Inc/stm32g4xx_ll_exti.h ****   *         @arg @ref LL_EXTI_LINE_8
 285:Drivers/STM32G4xx_HAL_Driver/Inc/stm32g4xx_ll_exti.h ****   *         @arg @ref LL_EXTI_LINE_9
 286:Drivers/STM32G4xx_HAL_Driver/Inc/stm32g4xx_ll_exti.h ****   *         @arg @ref LL_EXTI_LINE_10
 287:Drivers/STM32G4xx_HAL_Driver/Inc/stm32g4xx_ll_exti.h ****   *         @arg @ref LL_EXTI_LINE_11
 288:Drivers/STM32G4xx_HAL_Driver/Inc/stm32g4xx_ll_exti.h ****   *         @arg @ref LL_EXTI_LINE_12
 289:Drivers/STM32G4xx_HAL_Driver/Inc/stm32g4xx_ll_exti.h ****   *         @arg @ref LL_EXTI_LINE_13
 290:Drivers/STM32G4xx_HAL_Driver/Inc/stm32g4xx_ll_exti.h ****   *         @arg @ref LL_EXTI_LINE_14
 291:Drivers/STM32G4xx_HAL_Driver/Inc/stm32g4xx_ll_exti.h ****   *         @arg @ref LL_EXTI_LINE_15
 292:Drivers/STM32G4xx_HAL_Driver/Inc/stm32g4xx_ll_exti.h ****   *         @arg @ref LL_EXTI_LINE_16
 293:Drivers/STM32G4xx_HAL_Driver/Inc/stm32g4xx_ll_exti.h ****   *         @arg @ref LL_EXTI_LINE_17
 294:Drivers/STM32G4xx_HAL_Driver/Inc/stm32g4xx_ll_exti.h ****   *         @arg @ref LL_EXTI_LINE_18
 295:Drivers/STM32G4xx_HAL_Driver/Inc/stm32g4xx_ll_exti.h ****   *         @arg @ref LL_EXTI_LINE_19
 296:Drivers/STM32G4xx_HAL_Driver/Inc/stm32g4xx_ll_exti.h ****   *         @arg @ref LL_EXTI_LINE_20
 297:Drivers/STM32G4xx_HAL_Driver/Inc/stm32g4xx_ll_exti.h ****   *         @arg @ref LL_EXTI_LINE_21
 298:Drivers/STM32G4xx_HAL_Driver/Inc/stm32g4xx_ll_exti.h ****   *         @arg @ref LL_EXTI_LINE_22
 299:Drivers/STM32G4xx_HAL_Driver/Inc/stm32g4xx_ll_exti.h ****   *         @arg @ref LL_EXTI_LINE_23
 300:Drivers/STM32G4xx_HAL_Driver/Inc/stm32g4xx_ll_exti.h ****   *         @arg @ref LL_EXTI_LINE_24
 301:Drivers/STM32G4xx_HAL_Driver/Inc/stm32g4xx_ll_exti.h ****   *         @arg @ref LL_EXTI_LINE_25
 302:Drivers/STM32G4xx_HAL_Driver/Inc/stm32g4xx_ll_exti.h ****   *         @arg @ref LL_EXTI_LINE_26
 303:Drivers/STM32G4xx_HAL_Driver/Inc/stm32g4xx_ll_exti.h ****   *         @arg @ref LL_EXTI_LINE_27
 304:Drivers/STM32G4xx_HAL_Driver/Inc/stm32g4xx_ll_exti.h ****   *         @arg @ref LL_EXTI_LINE_28
 305:Drivers/STM32G4xx_HAL_Driver/Inc/stm32g4xx_ll_exti.h ****   *         @arg @ref LL_EXTI_LINE_29
 306:Drivers/STM32G4xx_HAL_Driver/Inc/stm32g4xx_ll_exti.h ****   *         @arg @ref LL_EXTI_LINE_30
 307:Drivers/STM32G4xx_HAL_Driver/Inc/stm32g4xx_ll_exti.h ****   *         @arg @ref LL_EXTI_LINE_31 (*)
 308:Drivers/STM32G4xx_HAL_Driver/Inc/stm32g4xx_ll_exti.h ****   *         @arg @ref LL_EXTI_LINE_ALL_0_31
 309:Drivers/STM32G4xx_HAL_Driver/Inc/stm32g4xx_ll_exti.h ****   * @note   (*): Available in some devices
 310:Drivers/STM32G4xx_HAL_Driver/Inc/stm32g4xx_ll_exti.h ****   * @note   Please check each device line mapping for EXTI Line availability
 311:Drivers/STM32G4xx_HAL_Driver/Inc/stm32g4xx_ll_exti.h ****   * @retval None
 312:Drivers/STM32G4xx_HAL_Driver/Inc/stm32g4xx_ll_exti.h ****   */
 313:Drivers/STM32G4xx_HAL_Driver/Inc/stm32g4xx_ll_exti.h **** __STATIC_INLINE void LL_EXTI_EnableIT_0_31(uint32_t ExtiLine)
 314:Drivers/STM32G4xx_HAL_Driver/Inc/stm32g4xx_ll_exti.h **** {
 315:Drivers/STM32G4xx_HAL_Driver/Inc/stm32g4xx_ll_exti.h ****   SET_BIT(EXTI->IMR1, ExtiLine);
 316:Drivers/STM32G4xx_HAL_Driver/Inc/stm32g4xx_ll_exti.h **** }
 317:Drivers/STM32G4xx_HAL_Driver/Inc/stm32g4xx_ll_exti.h **** /**
 318:Drivers/STM32G4xx_HAL_Driver/Inc/stm32g4xx_ll_exti.h ****   * @brief  Enable ExtiLine Interrupt request for Lines in range 32 to 63
 319:Drivers/STM32G4xx_HAL_Driver/Inc/stm32g4xx_ll_exti.h ****   * @note The reset value for the direct lines (lines from 32 to 34, line
 320:Drivers/STM32G4xx_HAL_Driver/Inc/stm32g4xx_ll_exti.h ****   *       39) is set to 1 in order to enable the interrupt by default.
 321:Drivers/STM32G4xx_HAL_Driver/Inc/stm32g4xx_ll_exti.h ****   *       Bits are set automatically at Power on.
 322:Drivers/STM32G4xx_HAL_Driver/Inc/stm32g4xx_ll_exti.h ****   * @rmtoll IMR2         IMx           LL_EXTI_EnableIT_32_63
 323:Drivers/STM32G4xx_HAL_Driver/Inc/stm32g4xx_ll_exti.h ****   * @param  ExtiLine This parameter can be one of the following values:
 324:Drivers/STM32G4xx_HAL_Driver/Inc/stm32g4xx_ll_exti.h ****   *         @arg @ref LL_EXTI_LINE_32 (*)
 325:Drivers/STM32G4xx_HAL_Driver/Inc/stm32g4xx_ll_exti.h ****   *         @arg @ref LL_EXTI_LINE_33 (*)
 326:Drivers/STM32G4xx_HAL_Driver/Inc/stm32g4xx_ll_exti.h ****   *         @arg @ref LL_EXTI_LINE_34
 327:Drivers/STM32G4xx_HAL_Driver/Inc/stm32g4xx_ll_exti.h ****   *         @arg @ref LL_EXTI_LINE_35 (*)
 328:Drivers/STM32G4xx_HAL_Driver/Inc/stm32g4xx_ll_exti.h ****   *         @arg @ref LL_EXTI_LINE_36
 329:Drivers/STM32G4xx_HAL_Driver/Inc/stm32g4xx_ll_exti.h ****   *         @arg @ref LL_EXTI_LINE_37
ARM GAS  /tmp/ccDOtdDj.s 			page 21


 330:Drivers/STM32G4xx_HAL_Driver/Inc/stm32g4xx_ll_exti.h ****   *         @arg @ref LL_EXTI_LINE_38
 331:Drivers/STM32G4xx_HAL_Driver/Inc/stm32g4xx_ll_exti.h ****   *         @arg @ref LL_EXTI_LINE_39
 332:Drivers/STM32G4xx_HAL_Driver/Inc/stm32g4xx_ll_exti.h ****   *         @arg @ref LL_EXTI_LINE_40
 333:Drivers/STM32G4xx_HAL_Driver/Inc/stm32g4xx_ll_exti.h ****   *         @arg @ref LL_EXTI_LINE_41
 334:Drivers/STM32G4xx_HAL_Driver/Inc/stm32g4xx_ll_exti.h ****   *         @arg @ref LL_EXTI_LINE_42(*)
 335:Drivers/STM32G4xx_HAL_Driver/Inc/stm32g4xx_ll_exti.h ****   *         @arg @ref LL_EXTI_LINE_ALL_32_63
 336:Drivers/STM32G4xx_HAL_Driver/Inc/stm32g4xx_ll_exti.h ****   * @note   (*): Available in some devices
 337:Drivers/STM32G4xx_HAL_Driver/Inc/stm32g4xx_ll_exti.h ****   * @retval None
 338:Drivers/STM32G4xx_HAL_Driver/Inc/stm32g4xx_ll_exti.h ****   */
 339:Drivers/STM32G4xx_HAL_Driver/Inc/stm32g4xx_ll_exti.h **** __STATIC_INLINE void LL_EXTI_EnableIT_32_63(uint32_t ExtiLine)
 340:Drivers/STM32G4xx_HAL_Driver/Inc/stm32g4xx_ll_exti.h **** {
 341:Drivers/STM32G4xx_HAL_Driver/Inc/stm32g4xx_ll_exti.h ****   SET_BIT(EXTI->IMR2, ExtiLine);
 342:Drivers/STM32G4xx_HAL_Driver/Inc/stm32g4xx_ll_exti.h **** }
 343:Drivers/STM32G4xx_HAL_Driver/Inc/stm32g4xx_ll_exti.h **** 
 344:Drivers/STM32G4xx_HAL_Driver/Inc/stm32g4xx_ll_exti.h **** /**
 345:Drivers/STM32G4xx_HAL_Driver/Inc/stm32g4xx_ll_exti.h ****   * @brief  Disable ExtiLine Interrupt request for Lines in range 0 to 31
 346:Drivers/STM32G4xx_HAL_Driver/Inc/stm32g4xx_ll_exti.h ****   * @note The reset value for the direct or internal lines (see RM)
 347:Drivers/STM32G4xx_HAL_Driver/Inc/stm32g4xx_ll_exti.h ****   *       is set to 1 in order to enable the interrupt by default.
 348:Drivers/STM32G4xx_HAL_Driver/Inc/stm32g4xx_ll_exti.h ****   *       Bits are set automatically at Power on.
 349:Drivers/STM32G4xx_HAL_Driver/Inc/stm32g4xx_ll_exti.h ****   * @rmtoll IMR1         IMx           LL_EXTI_DisableIT_0_31
 350:Drivers/STM32G4xx_HAL_Driver/Inc/stm32g4xx_ll_exti.h ****   * @param  ExtiLine This parameter can be one of the following values:
 351:Drivers/STM32G4xx_HAL_Driver/Inc/stm32g4xx_ll_exti.h ****   *         @arg @ref LL_EXTI_LINE_0
 352:Drivers/STM32G4xx_HAL_Driver/Inc/stm32g4xx_ll_exti.h ****   *         @arg @ref LL_EXTI_LINE_1
 353:Drivers/STM32G4xx_HAL_Driver/Inc/stm32g4xx_ll_exti.h ****   *         @arg @ref LL_EXTI_LINE_2
 354:Drivers/STM32G4xx_HAL_Driver/Inc/stm32g4xx_ll_exti.h ****   *         @arg @ref LL_EXTI_LINE_3
 355:Drivers/STM32G4xx_HAL_Driver/Inc/stm32g4xx_ll_exti.h ****   *         @arg @ref LL_EXTI_LINE_4
 356:Drivers/STM32G4xx_HAL_Driver/Inc/stm32g4xx_ll_exti.h ****   *         @arg @ref LL_EXTI_LINE_5
 357:Drivers/STM32G4xx_HAL_Driver/Inc/stm32g4xx_ll_exti.h ****   *         @arg @ref LL_EXTI_LINE_6
 358:Drivers/STM32G4xx_HAL_Driver/Inc/stm32g4xx_ll_exti.h ****   *         @arg @ref LL_EXTI_LINE_7
 359:Drivers/STM32G4xx_HAL_Driver/Inc/stm32g4xx_ll_exti.h ****   *         @arg @ref LL_EXTI_LINE_8
 360:Drivers/STM32G4xx_HAL_Driver/Inc/stm32g4xx_ll_exti.h ****   *         @arg @ref LL_EXTI_LINE_9
 361:Drivers/STM32G4xx_HAL_Driver/Inc/stm32g4xx_ll_exti.h ****   *         @arg @ref LL_EXTI_LINE_10
 362:Drivers/STM32G4xx_HAL_Driver/Inc/stm32g4xx_ll_exti.h ****   *         @arg @ref LL_EXTI_LINE_11
 363:Drivers/STM32G4xx_HAL_Driver/Inc/stm32g4xx_ll_exti.h ****   *         @arg @ref LL_EXTI_LINE_12
 364:Drivers/STM32G4xx_HAL_Driver/Inc/stm32g4xx_ll_exti.h ****   *         @arg @ref LL_EXTI_LINE_13
 365:Drivers/STM32G4xx_HAL_Driver/Inc/stm32g4xx_ll_exti.h ****   *         @arg @ref LL_EXTI_LINE_14
 366:Drivers/STM32G4xx_HAL_Driver/Inc/stm32g4xx_ll_exti.h ****   *         @arg @ref LL_EXTI_LINE_15
 367:Drivers/STM32G4xx_HAL_Driver/Inc/stm32g4xx_ll_exti.h ****   *         @arg @ref LL_EXTI_LINE_16
 368:Drivers/STM32G4xx_HAL_Driver/Inc/stm32g4xx_ll_exti.h ****   *         @arg @ref LL_EXTI_LINE_17
 369:Drivers/STM32G4xx_HAL_Driver/Inc/stm32g4xx_ll_exti.h ****   *         @arg @ref LL_EXTI_LINE_18
 370:Drivers/STM32G4xx_HAL_Driver/Inc/stm32g4xx_ll_exti.h ****   *         @arg @ref LL_EXTI_LINE_19
 371:Drivers/STM32G4xx_HAL_Driver/Inc/stm32g4xx_ll_exti.h ****   *         @arg @ref LL_EXTI_LINE_20
 372:Drivers/STM32G4xx_HAL_Driver/Inc/stm32g4xx_ll_exti.h ****   *         @arg @ref LL_EXTI_LINE_21
 373:Drivers/STM32G4xx_HAL_Driver/Inc/stm32g4xx_ll_exti.h ****   *         @arg @ref LL_EXTI_LINE_22
 374:Drivers/STM32G4xx_HAL_Driver/Inc/stm32g4xx_ll_exti.h ****   *         @arg @ref LL_EXTI_LINE_23
 375:Drivers/STM32G4xx_HAL_Driver/Inc/stm32g4xx_ll_exti.h ****   *         @arg @ref LL_EXTI_LINE_24
 376:Drivers/STM32G4xx_HAL_Driver/Inc/stm32g4xx_ll_exti.h ****   *         @arg @ref LL_EXTI_LINE_25
 377:Drivers/STM32G4xx_HAL_Driver/Inc/stm32g4xx_ll_exti.h ****   *         @arg @ref LL_EXTI_LINE_26
 378:Drivers/STM32G4xx_HAL_Driver/Inc/stm32g4xx_ll_exti.h ****   *         @arg @ref LL_EXTI_LINE_27
 379:Drivers/STM32G4xx_HAL_Driver/Inc/stm32g4xx_ll_exti.h ****   *         @arg @ref LL_EXTI_LINE_28
 380:Drivers/STM32G4xx_HAL_Driver/Inc/stm32g4xx_ll_exti.h ****   *         @arg @ref LL_EXTI_LINE_29
 381:Drivers/STM32G4xx_HAL_Driver/Inc/stm32g4xx_ll_exti.h ****   *         @arg @ref LL_EXTI_LINE_30
 382:Drivers/STM32G4xx_HAL_Driver/Inc/stm32g4xx_ll_exti.h ****   *         @arg @ref LL_EXTI_LINE_31
 383:Drivers/STM32G4xx_HAL_Driver/Inc/stm32g4xx_ll_exti.h ****   *         @arg @ref LL_EXTI_LINE_ALL_0_31 (*)
 384:Drivers/STM32G4xx_HAL_Driver/Inc/stm32g4xx_ll_exti.h ****   * @note   (*): Available in some devices
 385:Drivers/STM32G4xx_HAL_Driver/Inc/stm32g4xx_ll_exti.h ****   * @note   Please check each device line mapping for EXTI Line availability
 386:Drivers/STM32G4xx_HAL_Driver/Inc/stm32g4xx_ll_exti.h ****   * @retval None
ARM GAS  /tmp/ccDOtdDj.s 			page 22


 387:Drivers/STM32G4xx_HAL_Driver/Inc/stm32g4xx_ll_exti.h ****   */
 388:Drivers/STM32G4xx_HAL_Driver/Inc/stm32g4xx_ll_exti.h **** __STATIC_INLINE void LL_EXTI_DisableIT_0_31(uint32_t ExtiLine)
 389:Drivers/STM32G4xx_HAL_Driver/Inc/stm32g4xx_ll_exti.h **** {
 390:Drivers/STM32G4xx_HAL_Driver/Inc/stm32g4xx_ll_exti.h ****   CLEAR_BIT(EXTI->IMR1, ExtiLine);
 391:Drivers/STM32G4xx_HAL_Driver/Inc/stm32g4xx_ll_exti.h **** }
 392:Drivers/STM32G4xx_HAL_Driver/Inc/stm32g4xx_ll_exti.h **** 
 393:Drivers/STM32G4xx_HAL_Driver/Inc/stm32g4xx_ll_exti.h **** /**
 394:Drivers/STM32G4xx_HAL_Driver/Inc/stm32g4xx_ll_exti.h ****   * @brief  Disable ExtiLine Interrupt request for Lines in range 32 to 63
 395:Drivers/STM32G4xx_HAL_Driver/Inc/stm32g4xx_ll_exti.h ****   * @note The reset value for the direct lines (lines from 32 to 34, line
 396:Drivers/STM32G4xx_HAL_Driver/Inc/stm32g4xx_ll_exti.h ****   *       39) is set to 1 in order to enable the interrupt by default.
 397:Drivers/STM32G4xx_HAL_Driver/Inc/stm32g4xx_ll_exti.h ****   *       Bits are set automatically at Power on.
 398:Drivers/STM32G4xx_HAL_Driver/Inc/stm32g4xx_ll_exti.h ****   * @rmtoll IMR2         IMx           LL_EXTI_DisableIT_32_63
 399:Drivers/STM32G4xx_HAL_Driver/Inc/stm32g4xx_ll_exti.h ****   * @param  ExtiLine This parameter can be one of the following values:
 400:Drivers/STM32G4xx_HAL_Driver/Inc/stm32g4xx_ll_exti.h ****   *         @arg @ref LL_EXTI_LINE_32 (*)
 401:Drivers/STM32G4xx_HAL_Driver/Inc/stm32g4xx_ll_exti.h ****   *         @arg @ref LL_EXTI_LINE_33 (*)
 402:Drivers/STM32G4xx_HAL_Driver/Inc/stm32g4xx_ll_exti.h ****   *         @arg @ref LL_EXTI_LINE_34
 403:Drivers/STM32G4xx_HAL_Driver/Inc/stm32g4xx_ll_exti.h ****   *         @arg @ref LL_EXTI_LINE_35 (*)
 404:Drivers/STM32G4xx_HAL_Driver/Inc/stm32g4xx_ll_exti.h ****   *         @arg @ref LL_EXTI_LINE_36
 405:Drivers/STM32G4xx_HAL_Driver/Inc/stm32g4xx_ll_exti.h ****   *         @arg @ref LL_EXTI_LINE_37
 406:Drivers/STM32G4xx_HAL_Driver/Inc/stm32g4xx_ll_exti.h ****   *         @arg @ref LL_EXTI_LINE_38
 407:Drivers/STM32G4xx_HAL_Driver/Inc/stm32g4xx_ll_exti.h ****   *         @arg @ref LL_EXTI_LINE_39
 408:Drivers/STM32G4xx_HAL_Driver/Inc/stm32g4xx_ll_exti.h ****   *         @arg @ref LL_EXTI_LINE_40
 409:Drivers/STM32G4xx_HAL_Driver/Inc/stm32g4xx_ll_exti.h ****   *         @arg @ref LL_EXTI_LINE_41
 410:Drivers/STM32G4xx_HAL_Driver/Inc/stm32g4xx_ll_exti.h ****   *         @arg @ref LL_EXTI_LINE_42(*)
 411:Drivers/STM32G4xx_HAL_Driver/Inc/stm32g4xx_ll_exti.h ****   *         @arg @ref LL_EXTI_LINE_ALL_32_63
 412:Drivers/STM32G4xx_HAL_Driver/Inc/stm32g4xx_ll_exti.h ****   * @note   (*): Available in some devices
 413:Drivers/STM32G4xx_HAL_Driver/Inc/stm32g4xx_ll_exti.h ****   * @retval None
 414:Drivers/STM32G4xx_HAL_Driver/Inc/stm32g4xx_ll_exti.h ****   */
 415:Drivers/STM32G4xx_HAL_Driver/Inc/stm32g4xx_ll_exti.h **** __STATIC_INLINE void LL_EXTI_DisableIT_32_63(uint32_t ExtiLine)
 416:Drivers/STM32G4xx_HAL_Driver/Inc/stm32g4xx_ll_exti.h **** {
 417:Drivers/STM32G4xx_HAL_Driver/Inc/stm32g4xx_ll_exti.h ****   CLEAR_BIT(EXTI->IMR2, ExtiLine);
 418:Drivers/STM32G4xx_HAL_Driver/Inc/stm32g4xx_ll_exti.h **** }
 419:Drivers/STM32G4xx_HAL_Driver/Inc/stm32g4xx_ll_exti.h **** 
 420:Drivers/STM32G4xx_HAL_Driver/Inc/stm32g4xx_ll_exti.h **** /**
 421:Drivers/STM32G4xx_HAL_Driver/Inc/stm32g4xx_ll_exti.h ****   * @brief  Indicate if ExtiLine Interrupt request is enabled for Lines in range 0 to 31
 422:Drivers/STM32G4xx_HAL_Driver/Inc/stm32g4xx_ll_exti.h ****   * @note The reset value for the direct or internal lines (see RM)
 423:Drivers/STM32G4xx_HAL_Driver/Inc/stm32g4xx_ll_exti.h ****   *       is set to 1 in order to enable the interrupt by default.
 424:Drivers/STM32G4xx_HAL_Driver/Inc/stm32g4xx_ll_exti.h ****   *       Bits are set automatically at Power on.
 425:Drivers/STM32G4xx_HAL_Driver/Inc/stm32g4xx_ll_exti.h ****   * @rmtoll IMR1         IMx           LL_EXTI_IsEnabledIT_0_31
 426:Drivers/STM32G4xx_HAL_Driver/Inc/stm32g4xx_ll_exti.h ****   * @param  ExtiLine This parameter can be one of the following values:
 427:Drivers/STM32G4xx_HAL_Driver/Inc/stm32g4xx_ll_exti.h ****   *         @arg @ref LL_EXTI_LINE_0
 428:Drivers/STM32G4xx_HAL_Driver/Inc/stm32g4xx_ll_exti.h ****   *         @arg @ref LL_EXTI_LINE_1
 429:Drivers/STM32G4xx_HAL_Driver/Inc/stm32g4xx_ll_exti.h ****   *         @arg @ref LL_EXTI_LINE_2
 430:Drivers/STM32G4xx_HAL_Driver/Inc/stm32g4xx_ll_exti.h ****   *         @arg @ref LL_EXTI_LINE_3
 431:Drivers/STM32G4xx_HAL_Driver/Inc/stm32g4xx_ll_exti.h ****   *         @arg @ref LL_EXTI_LINE_4
 432:Drivers/STM32G4xx_HAL_Driver/Inc/stm32g4xx_ll_exti.h ****   *         @arg @ref LL_EXTI_LINE_5
 433:Drivers/STM32G4xx_HAL_Driver/Inc/stm32g4xx_ll_exti.h ****   *         @arg @ref LL_EXTI_LINE_6
 434:Drivers/STM32G4xx_HAL_Driver/Inc/stm32g4xx_ll_exti.h ****   *         @arg @ref LL_EXTI_LINE_7
 435:Drivers/STM32G4xx_HAL_Driver/Inc/stm32g4xx_ll_exti.h ****   *         @arg @ref LL_EXTI_LINE_8
 436:Drivers/STM32G4xx_HAL_Driver/Inc/stm32g4xx_ll_exti.h ****   *         @arg @ref LL_EXTI_LINE_9
 437:Drivers/STM32G4xx_HAL_Driver/Inc/stm32g4xx_ll_exti.h ****   *         @arg @ref LL_EXTI_LINE_10
 438:Drivers/STM32G4xx_HAL_Driver/Inc/stm32g4xx_ll_exti.h ****   *         @arg @ref LL_EXTI_LINE_11
 439:Drivers/STM32G4xx_HAL_Driver/Inc/stm32g4xx_ll_exti.h ****   *         @arg @ref LL_EXTI_LINE_12
 440:Drivers/STM32G4xx_HAL_Driver/Inc/stm32g4xx_ll_exti.h ****   *         @arg @ref LL_EXTI_LINE_13
 441:Drivers/STM32G4xx_HAL_Driver/Inc/stm32g4xx_ll_exti.h ****   *         @arg @ref LL_EXTI_LINE_14
 442:Drivers/STM32G4xx_HAL_Driver/Inc/stm32g4xx_ll_exti.h ****   *         @arg @ref LL_EXTI_LINE_15
 443:Drivers/STM32G4xx_HAL_Driver/Inc/stm32g4xx_ll_exti.h ****   *         @arg @ref LL_EXTI_LINE_16
ARM GAS  /tmp/ccDOtdDj.s 			page 23


 444:Drivers/STM32G4xx_HAL_Driver/Inc/stm32g4xx_ll_exti.h ****   *         @arg @ref LL_EXTI_LINE_17
 445:Drivers/STM32G4xx_HAL_Driver/Inc/stm32g4xx_ll_exti.h ****   *         @arg @ref LL_EXTI_LINE_18
 446:Drivers/STM32G4xx_HAL_Driver/Inc/stm32g4xx_ll_exti.h ****   *         @arg @ref LL_EXTI_LINE_19
 447:Drivers/STM32G4xx_HAL_Driver/Inc/stm32g4xx_ll_exti.h ****   *         @arg @ref LL_EXTI_LINE_20
 448:Drivers/STM32G4xx_HAL_Driver/Inc/stm32g4xx_ll_exti.h ****   *         @arg @ref LL_EXTI_LINE_21
 449:Drivers/STM32G4xx_HAL_Driver/Inc/stm32g4xx_ll_exti.h ****   *         @arg @ref LL_EXTI_LINE_22
 450:Drivers/STM32G4xx_HAL_Driver/Inc/stm32g4xx_ll_exti.h ****   *         @arg @ref LL_EXTI_LINE_23
 451:Drivers/STM32G4xx_HAL_Driver/Inc/stm32g4xx_ll_exti.h ****   *         @arg @ref LL_EXTI_LINE_24
 452:Drivers/STM32G4xx_HAL_Driver/Inc/stm32g4xx_ll_exti.h ****   *         @arg @ref LL_EXTI_LINE_25
 453:Drivers/STM32G4xx_HAL_Driver/Inc/stm32g4xx_ll_exti.h ****   *         @arg @ref LL_EXTI_LINE_26
 454:Drivers/STM32G4xx_HAL_Driver/Inc/stm32g4xx_ll_exti.h ****   *         @arg @ref LL_EXTI_LINE_27
 455:Drivers/STM32G4xx_HAL_Driver/Inc/stm32g4xx_ll_exti.h ****   *         @arg @ref LL_EXTI_LINE_28
 456:Drivers/STM32G4xx_HAL_Driver/Inc/stm32g4xx_ll_exti.h ****   *         @arg @ref LL_EXTI_LINE_29
 457:Drivers/STM32G4xx_HAL_Driver/Inc/stm32g4xx_ll_exti.h ****   *         @arg @ref LL_EXTI_LINE_30
 458:Drivers/STM32G4xx_HAL_Driver/Inc/stm32g4xx_ll_exti.h ****   *         @arg @ref LL_EXTI_LINE_31 (*)
 459:Drivers/STM32G4xx_HAL_Driver/Inc/stm32g4xx_ll_exti.h ****   *         @arg @ref LL_EXTI_LINE_ALL_0_31
 460:Drivers/STM32G4xx_HAL_Driver/Inc/stm32g4xx_ll_exti.h ****   * @note   (*): Available in some devices
 461:Drivers/STM32G4xx_HAL_Driver/Inc/stm32g4xx_ll_exti.h ****   * @note   Please check each device line mapping for EXTI Line availability
 462:Drivers/STM32G4xx_HAL_Driver/Inc/stm32g4xx_ll_exti.h ****   * @retval State of bit (1 or 0).
 463:Drivers/STM32G4xx_HAL_Driver/Inc/stm32g4xx_ll_exti.h ****   */
 464:Drivers/STM32G4xx_HAL_Driver/Inc/stm32g4xx_ll_exti.h **** __STATIC_INLINE uint32_t LL_EXTI_IsEnabledIT_0_31(uint32_t ExtiLine)
 465:Drivers/STM32G4xx_HAL_Driver/Inc/stm32g4xx_ll_exti.h **** {
 466:Drivers/STM32G4xx_HAL_Driver/Inc/stm32g4xx_ll_exti.h ****   return ((READ_BIT(EXTI->IMR1, ExtiLine) == (ExtiLine)) ? 1UL : 0UL);
 467:Drivers/STM32G4xx_HAL_Driver/Inc/stm32g4xx_ll_exti.h **** }
 468:Drivers/STM32G4xx_HAL_Driver/Inc/stm32g4xx_ll_exti.h **** 
 469:Drivers/STM32G4xx_HAL_Driver/Inc/stm32g4xx_ll_exti.h **** /**
 470:Drivers/STM32G4xx_HAL_Driver/Inc/stm32g4xx_ll_exti.h ****   * @brief  Indicate if ExtiLine Interrupt request is enabled for Lines in range 32 to 63
 471:Drivers/STM32G4xx_HAL_Driver/Inc/stm32g4xx_ll_exti.h ****   * @note The reset value for the direct lines (lines from 32 to 34, line
 472:Drivers/STM32G4xx_HAL_Driver/Inc/stm32g4xx_ll_exti.h ****   *       39) is set to 1 in order to enable the interrupt by default.
 473:Drivers/STM32G4xx_HAL_Driver/Inc/stm32g4xx_ll_exti.h ****   *       Bits are set automatically at Power on.
 474:Drivers/STM32G4xx_HAL_Driver/Inc/stm32g4xx_ll_exti.h ****   * @rmtoll IMR2         IMx           LL_EXTI_IsEnabledIT_32_63
 475:Drivers/STM32G4xx_HAL_Driver/Inc/stm32g4xx_ll_exti.h ****   * @param  ExtiLine This parameter can be one of the following values:
 476:Drivers/STM32G4xx_HAL_Driver/Inc/stm32g4xx_ll_exti.h ****   *         @arg @ref LL_EXTI_LINE_32 (*)
 477:Drivers/STM32G4xx_HAL_Driver/Inc/stm32g4xx_ll_exti.h ****   *         @arg @ref LL_EXTI_LINE_33 (*)
 478:Drivers/STM32G4xx_HAL_Driver/Inc/stm32g4xx_ll_exti.h ****   *         @arg @ref LL_EXTI_LINE_34
 479:Drivers/STM32G4xx_HAL_Driver/Inc/stm32g4xx_ll_exti.h ****   *         @arg @ref LL_EXTI_LINE_35 (*)
 480:Drivers/STM32G4xx_HAL_Driver/Inc/stm32g4xx_ll_exti.h ****   *         @arg @ref LL_EXTI_LINE_36
 481:Drivers/STM32G4xx_HAL_Driver/Inc/stm32g4xx_ll_exti.h ****   *         @arg @ref LL_EXTI_LINE_37
 482:Drivers/STM32G4xx_HAL_Driver/Inc/stm32g4xx_ll_exti.h ****   *         @arg @ref LL_EXTI_LINE_38
 483:Drivers/STM32G4xx_HAL_Driver/Inc/stm32g4xx_ll_exti.h ****   *         @arg @ref LL_EXTI_LINE_39
 484:Drivers/STM32G4xx_HAL_Driver/Inc/stm32g4xx_ll_exti.h ****   *         @arg @ref LL_EXTI_LINE_40
 485:Drivers/STM32G4xx_HAL_Driver/Inc/stm32g4xx_ll_exti.h ****   *         @arg @ref LL_EXTI_LINE_41
 486:Drivers/STM32G4xx_HAL_Driver/Inc/stm32g4xx_ll_exti.h ****   *         @arg @ref LL_EXTI_LINE_42(*)
 487:Drivers/STM32G4xx_HAL_Driver/Inc/stm32g4xx_ll_exti.h ****   *         @arg @ref LL_EXTI_LINE_ALL_32_63
 488:Drivers/STM32G4xx_HAL_Driver/Inc/stm32g4xx_ll_exti.h ****   * @note   (*): Available in some devices
 489:Drivers/STM32G4xx_HAL_Driver/Inc/stm32g4xx_ll_exti.h ****   * @retval State of bit (1 or 0).
 490:Drivers/STM32G4xx_HAL_Driver/Inc/stm32g4xx_ll_exti.h ****   */
 491:Drivers/STM32G4xx_HAL_Driver/Inc/stm32g4xx_ll_exti.h **** __STATIC_INLINE uint32_t LL_EXTI_IsEnabledIT_32_63(uint32_t ExtiLine)
 492:Drivers/STM32G4xx_HAL_Driver/Inc/stm32g4xx_ll_exti.h **** {
 493:Drivers/STM32G4xx_HAL_Driver/Inc/stm32g4xx_ll_exti.h ****   return ((READ_BIT(EXTI->IMR2, ExtiLine) == (ExtiLine)) ? 1UL : 0UL);
 494:Drivers/STM32G4xx_HAL_Driver/Inc/stm32g4xx_ll_exti.h **** }
 495:Drivers/STM32G4xx_HAL_Driver/Inc/stm32g4xx_ll_exti.h **** 
 496:Drivers/STM32G4xx_HAL_Driver/Inc/stm32g4xx_ll_exti.h **** /**
 497:Drivers/STM32G4xx_HAL_Driver/Inc/stm32g4xx_ll_exti.h ****   * @}
 498:Drivers/STM32G4xx_HAL_Driver/Inc/stm32g4xx_ll_exti.h ****   */
 499:Drivers/STM32G4xx_HAL_Driver/Inc/stm32g4xx_ll_exti.h **** 
 500:Drivers/STM32G4xx_HAL_Driver/Inc/stm32g4xx_ll_exti.h **** /** @defgroup EXTI_LL_EF_Event_Management Event_Management
ARM GAS  /tmp/ccDOtdDj.s 			page 24


 501:Drivers/STM32G4xx_HAL_Driver/Inc/stm32g4xx_ll_exti.h ****   * @{
 502:Drivers/STM32G4xx_HAL_Driver/Inc/stm32g4xx_ll_exti.h ****   */
 503:Drivers/STM32G4xx_HAL_Driver/Inc/stm32g4xx_ll_exti.h **** 
 504:Drivers/STM32G4xx_HAL_Driver/Inc/stm32g4xx_ll_exti.h **** /**
 505:Drivers/STM32G4xx_HAL_Driver/Inc/stm32g4xx_ll_exti.h ****   * @brief  Enable ExtiLine Event request for Lines in range 0 to 31
 506:Drivers/STM32G4xx_HAL_Driver/Inc/stm32g4xx_ll_exti.h ****   * @rmtoll EMR1         EMx           LL_EXTI_EnableEvent_0_31
 507:Drivers/STM32G4xx_HAL_Driver/Inc/stm32g4xx_ll_exti.h ****   * @param  ExtiLine This parameter can be one of the following values:
 508:Drivers/STM32G4xx_HAL_Driver/Inc/stm32g4xx_ll_exti.h ****   *         @arg @ref LL_EXTI_LINE_0
 509:Drivers/STM32G4xx_HAL_Driver/Inc/stm32g4xx_ll_exti.h ****   *         @arg @ref LL_EXTI_LINE_1
 510:Drivers/STM32G4xx_HAL_Driver/Inc/stm32g4xx_ll_exti.h ****   *         @arg @ref LL_EXTI_LINE_2
 511:Drivers/STM32G4xx_HAL_Driver/Inc/stm32g4xx_ll_exti.h ****   *         @arg @ref LL_EXTI_LINE_3
 512:Drivers/STM32G4xx_HAL_Driver/Inc/stm32g4xx_ll_exti.h ****   *         @arg @ref LL_EXTI_LINE_4
 513:Drivers/STM32G4xx_HAL_Driver/Inc/stm32g4xx_ll_exti.h ****   *         @arg @ref LL_EXTI_LINE_5
 514:Drivers/STM32G4xx_HAL_Driver/Inc/stm32g4xx_ll_exti.h ****   *         @arg @ref LL_EXTI_LINE_6
 515:Drivers/STM32G4xx_HAL_Driver/Inc/stm32g4xx_ll_exti.h ****   *         @arg @ref LL_EXTI_LINE_7
 516:Drivers/STM32G4xx_HAL_Driver/Inc/stm32g4xx_ll_exti.h ****   *         @arg @ref LL_EXTI_LINE_8
 517:Drivers/STM32G4xx_HAL_Driver/Inc/stm32g4xx_ll_exti.h ****   *         @arg @ref LL_EXTI_LINE_9
 518:Drivers/STM32G4xx_HAL_Driver/Inc/stm32g4xx_ll_exti.h ****   *         @arg @ref LL_EXTI_LINE_10
 519:Drivers/STM32G4xx_HAL_Driver/Inc/stm32g4xx_ll_exti.h ****   *         @arg @ref LL_EXTI_LINE_11
 520:Drivers/STM32G4xx_HAL_Driver/Inc/stm32g4xx_ll_exti.h ****   *         @arg @ref LL_EXTI_LINE_12
 521:Drivers/STM32G4xx_HAL_Driver/Inc/stm32g4xx_ll_exti.h ****   *         @arg @ref LL_EXTI_LINE_13
 522:Drivers/STM32G4xx_HAL_Driver/Inc/stm32g4xx_ll_exti.h ****   *         @arg @ref LL_EXTI_LINE_14
 523:Drivers/STM32G4xx_HAL_Driver/Inc/stm32g4xx_ll_exti.h ****   *         @arg @ref LL_EXTI_LINE_15
 524:Drivers/STM32G4xx_HAL_Driver/Inc/stm32g4xx_ll_exti.h ****   *         @arg @ref LL_EXTI_LINE_16
 525:Drivers/STM32G4xx_HAL_Driver/Inc/stm32g4xx_ll_exti.h ****   *         @arg @ref LL_EXTI_LINE_17
 526:Drivers/STM32G4xx_HAL_Driver/Inc/stm32g4xx_ll_exti.h ****   *         @arg @ref LL_EXTI_LINE_18
 527:Drivers/STM32G4xx_HAL_Driver/Inc/stm32g4xx_ll_exti.h ****   *         @arg @ref LL_EXTI_LINE_19
 528:Drivers/STM32G4xx_HAL_Driver/Inc/stm32g4xx_ll_exti.h ****   *         @arg @ref LL_EXTI_LINE_20
 529:Drivers/STM32G4xx_HAL_Driver/Inc/stm32g4xx_ll_exti.h ****   *         @arg @ref LL_EXTI_LINE_21
 530:Drivers/STM32G4xx_HAL_Driver/Inc/stm32g4xx_ll_exti.h ****   *         @arg @ref LL_EXTI_LINE_22
 531:Drivers/STM32G4xx_HAL_Driver/Inc/stm32g4xx_ll_exti.h ****   *         @arg @ref LL_EXTI_LINE_23
 532:Drivers/STM32G4xx_HAL_Driver/Inc/stm32g4xx_ll_exti.h ****   *         @arg @ref LL_EXTI_LINE_24
 533:Drivers/STM32G4xx_HAL_Driver/Inc/stm32g4xx_ll_exti.h ****   *         @arg @ref LL_EXTI_LINE_25
 534:Drivers/STM32G4xx_HAL_Driver/Inc/stm32g4xx_ll_exti.h ****   *         @arg @ref LL_EXTI_LINE_26
 535:Drivers/STM32G4xx_HAL_Driver/Inc/stm32g4xx_ll_exti.h ****   *         @arg @ref LL_EXTI_LINE_27
 536:Drivers/STM32G4xx_HAL_Driver/Inc/stm32g4xx_ll_exti.h ****   *         @arg @ref LL_EXTI_LINE_28
 537:Drivers/STM32G4xx_HAL_Driver/Inc/stm32g4xx_ll_exti.h ****   *         @arg @ref LL_EXTI_LINE_29
 538:Drivers/STM32G4xx_HAL_Driver/Inc/stm32g4xx_ll_exti.h ****   *         @arg @ref LL_EXTI_LINE_30
 539:Drivers/STM32G4xx_HAL_Driver/Inc/stm32g4xx_ll_exti.h ****   *         @arg @ref LL_EXTI_LINE_31
 540:Drivers/STM32G4xx_HAL_Driver/Inc/stm32g4xx_ll_exti.h ****   *         @arg @ref LL_EXTI_LINE_ALL_0_31 (*)
 541:Drivers/STM32G4xx_HAL_Driver/Inc/stm32g4xx_ll_exti.h ****   * @note   (*): Available in some devices
 542:Drivers/STM32G4xx_HAL_Driver/Inc/stm32g4xx_ll_exti.h ****   * @note   Please check each device line mapping for EXTI Line availability
 543:Drivers/STM32G4xx_HAL_Driver/Inc/stm32g4xx_ll_exti.h ****   * @retval None
 544:Drivers/STM32G4xx_HAL_Driver/Inc/stm32g4xx_ll_exti.h ****   */
 545:Drivers/STM32G4xx_HAL_Driver/Inc/stm32g4xx_ll_exti.h **** __STATIC_INLINE void LL_EXTI_EnableEvent_0_31(uint32_t ExtiLine)
 546:Drivers/STM32G4xx_HAL_Driver/Inc/stm32g4xx_ll_exti.h **** {
 547:Drivers/STM32G4xx_HAL_Driver/Inc/stm32g4xx_ll_exti.h ****   SET_BIT(EXTI->EMR1, ExtiLine);
 548:Drivers/STM32G4xx_HAL_Driver/Inc/stm32g4xx_ll_exti.h **** 
 549:Drivers/STM32G4xx_HAL_Driver/Inc/stm32g4xx_ll_exti.h **** }
 550:Drivers/STM32G4xx_HAL_Driver/Inc/stm32g4xx_ll_exti.h **** 
 551:Drivers/STM32G4xx_HAL_Driver/Inc/stm32g4xx_ll_exti.h **** /**
 552:Drivers/STM32G4xx_HAL_Driver/Inc/stm32g4xx_ll_exti.h ****   * @brief  Enable ExtiLine Event request for Lines in range 32 to 63
 553:Drivers/STM32G4xx_HAL_Driver/Inc/stm32g4xx_ll_exti.h ****   * @rmtoll EMR2         EMx           LL_EXTI_EnableEvent_32_63
 554:Drivers/STM32G4xx_HAL_Driver/Inc/stm32g4xx_ll_exti.h ****   * @param  ExtiLine This parameter can be a combination of the following values:
 555:Drivers/STM32G4xx_HAL_Driver/Inc/stm32g4xx_ll_exti.h ****   *         @arg @ref LL_EXTI_LINE_32 (*)
 556:Drivers/STM32G4xx_HAL_Driver/Inc/stm32g4xx_ll_exti.h ****   *         @arg @ref LL_EXTI_LINE_33 (*)
 557:Drivers/STM32G4xx_HAL_Driver/Inc/stm32g4xx_ll_exti.h ****   *         @arg @ref LL_EXTI_LINE_34
ARM GAS  /tmp/ccDOtdDj.s 			page 25


 558:Drivers/STM32G4xx_HAL_Driver/Inc/stm32g4xx_ll_exti.h ****   *         @arg @ref LL_EXTI_LINE_35 (*)
 559:Drivers/STM32G4xx_HAL_Driver/Inc/stm32g4xx_ll_exti.h ****   *         @arg @ref LL_EXTI_LINE_36
 560:Drivers/STM32G4xx_HAL_Driver/Inc/stm32g4xx_ll_exti.h ****   *         @arg @ref LL_EXTI_LINE_37
 561:Drivers/STM32G4xx_HAL_Driver/Inc/stm32g4xx_ll_exti.h ****   *         @arg @ref LL_EXTI_LINE_38
 562:Drivers/STM32G4xx_HAL_Driver/Inc/stm32g4xx_ll_exti.h ****   *         @arg @ref LL_EXTI_LINE_39
 563:Drivers/STM32G4xx_HAL_Driver/Inc/stm32g4xx_ll_exti.h ****   *         @arg @ref LL_EXTI_LINE_40
 564:Drivers/STM32G4xx_HAL_Driver/Inc/stm32g4xx_ll_exti.h ****   *         @arg @ref LL_EXTI_LINE_41
 565:Drivers/STM32G4xx_HAL_Driver/Inc/stm32g4xx_ll_exti.h ****   *         @arg @ref LL_EXTI_LINE_42(*)
 566:Drivers/STM32G4xx_HAL_Driver/Inc/stm32g4xx_ll_exti.h ****   *         @arg @ref LL_EXTI_LINE_ALL_32_63
 567:Drivers/STM32G4xx_HAL_Driver/Inc/stm32g4xx_ll_exti.h ****   * @note   (*): Available in some devices
 568:Drivers/STM32G4xx_HAL_Driver/Inc/stm32g4xx_ll_exti.h ****   * @retval None
 569:Drivers/STM32G4xx_HAL_Driver/Inc/stm32g4xx_ll_exti.h ****   */
 570:Drivers/STM32G4xx_HAL_Driver/Inc/stm32g4xx_ll_exti.h **** __STATIC_INLINE void LL_EXTI_EnableEvent_32_63(uint32_t ExtiLine)
 571:Drivers/STM32G4xx_HAL_Driver/Inc/stm32g4xx_ll_exti.h **** {
 572:Drivers/STM32G4xx_HAL_Driver/Inc/stm32g4xx_ll_exti.h ****   SET_BIT(EXTI->EMR2, ExtiLine);
 573:Drivers/STM32G4xx_HAL_Driver/Inc/stm32g4xx_ll_exti.h **** }
 574:Drivers/STM32G4xx_HAL_Driver/Inc/stm32g4xx_ll_exti.h **** 
 575:Drivers/STM32G4xx_HAL_Driver/Inc/stm32g4xx_ll_exti.h **** /**
 576:Drivers/STM32G4xx_HAL_Driver/Inc/stm32g4xx_ll_exti.h ****   * @brief  Disable ExtiLine Event request for Lines in range 0 to 31
 577:Drivers/STM32G4xx_HAL_Driver/Inc/stm32g4xx_ll_exti.h ****   * @rmtoll EMR1         EMx           LL_EXTI_DisableEvent_0_31
 578:Drivers/STM32G4xx_HAL_Driver/Inc/stm32g4xx_ll_exti.h ****   * @param  ExtiLine This parameter can be one of the following values:
 579:Drivers/STM32G4xx_HAL_Driver/Inc/stm32g4xx_ll_exti.h ****   *         @arg @ref LL_EXTI_LINE_0
 580:Drivers/STM32G4xx_HAL_Driver/Inc/stm32g4xx_ll_exti.h ****   *         @arg @ref LL_EXTI_LINE_1
 581:Drivers/STM32G4xx_HAL_Driver/Inc/stm32g4xx_ll_exti.h ****   *         @arg @ref LL_EXTI_LINE_2
 582:Drivers/STM32G4xx_HAL_Driver/Inc/stm32g4xx_ll_exti.h ****   *         @arg @ref LL_EXTI_LINE_3
 583:Drivers/STM32G4xx_HAL_Driver/Inc/stm32g4xx_ll_exti.h ****   *         @arg @ref LL_EXTI_LINE_4
 584:Drivers/STM32G4xx_HAL_Driver/Inc/stm32g4xx_ll_exti.h ****   *         @arg @ref LL_EXTI_LINE_5
 585:Drivers/STM32G4xx_HAL_Driver/Inc/stm32g4xx_ll_exti.h ****   *         @arg @ref LL_EXTI_LINE_6
 586:Drivers/STM32G4xx_HAL_Driver/Inc/stm32g4xx_ll_exti.h ****   *         @arg @ref LL_EXTI_LINE_7
 587:Drivers/STM32G4xx_HAL_Driver/Inc/stm32g4xx_ll_exti.h ****   *         @arg @ref LL_EXTI_LINE_8
 588:Drivers/STM32G4xx_HAL_Driver/Inc/stm32g4xx_ll_exti.h ****   *         @arg @ref LL_EXTI_LINE_9
 589:Drivers/STM32G4xx_HAL_Driver/Inc/stm32g4xx_ll_exti.h ****   *         @arg @ref LL_EXTI_LINE_10
 590:Drivers/STM32G4xx_HAL_Driver/Inc/stm32g4xx_ll_exti.h ****   *         @arg @ref LL_EXTI_LINE_11
 591:Drivers/STM32G4xx_HAL_Driver/Inc/stm32g4xx_ll_exti.h ****   *         @arg @ref LL_EXTI_LINE_12
 592:Drivers/STM32G4xx_HAL_Driver/Inc/stm32g4xx_ll_exti.h ****   *         @arg @ref LL_EXTI_LINE_13
 593:Drivers/STM32G4xx_HAL_Driver/Inc/stm32g4xx_ll_exti.h ****   *         @arg @ref LL_EXTI_LINE_14
 594:Drivers/STM32G4xx_HAL_Driver/Inc/stm32g4xx_ll_exti.h ****   *         @arg @ref LL_EXTI_LINE_15
 595:Drivers/STM32G4xx_HAL_Driver/Inc/stm32g4xx_ll_exti.h ****   *         @arg @ref LL_EXTI_LINE_16
 596:Drivers/STM32G4xx_HAL_Driver/Inc/stm32g4xx_ll_exti.h ****   *         @arg @ref LL_EXTI_LINE_17
 597:Drivers/STM32G4xx_HAL_Driver/Inc/stm32g4xx_ll_exti.h ****   *         @arg @ref LL_EXTI_LINE_18
 598:Drivers/STM32G4xx_HAL_Driver/Inc/stm32g4xx_ll_exti.h ****   *         @arg @ref LL_EXTI_LINE_19
 599:Drivers/STM32G4xx_HAL_Driver/Inc/stm32g4xx_ll_exti.h ****   *         @arg @ref LL_EXTI_LINE_20
 600:Drivers/STM32G4xx_HAL_Driver/Inc/stm32g4xx_ll_exti.h ****   *         @arg @ref LL_EXTI_LINE_21
 601:Drivers/STM32G4xx_HAL_Driver/Inc/stm32g4xx_ll_exti.h ****   *         @arg @ref LL_EXTI_LINE_22
 602:Drivers/STM32G4xx_HAL_Driver/Inc/stm32g4xx_ll_exti.h ****   *         @arg @ref LL_EXTI_LINE_23
 603:Drivers/STM32G4xx_HAL_Driver/Inc/stm32g4xx_ll_exti.h ****   *         @arg @ref LL_EXTI_LINE_24
 604:Drivers/STM32G4xx_HAL_Driver/Inc/stm32g4xx_ll_exti.h ****   *         @arg @ref LL_EXTI_LINE_25
 605:Drivers/STM32G4xx_HAL_Driver/Inc/stm32g4xx_ll_exti.h ****   *         @arg @ref LL_EXTI_LINE_26
 606:Drivers/STM32G4xx_HAL_Driver/Inc/stm32g4xx_ll_exti.h ****   *         @arg @ref LL_EXTI_LINE_27
 607:Drivers/STM32G4xx_HAL_Driver/Inc/stm32g4xx_ll_exti.h ****   *         @arg @ref LL_EXTI_LINE_28
 608:Drivers/STM32G4xx_HAL_Driver/Inc/stm32g4xx_ll_exti.h ****   *         @arg @ref LL_EXTI_LINE_29
 609:Drivers/STM32G4xx_HAL_Driver/Inc/stm32g4xx_ll_exti.h ****   *         @arg @ref LL_EXTI_LINE_30
 610:Drivers/STM32G4xx_HAL_Driver/Inc/stm32g4xx_ll_exti.h ****   *         @arg @ref LL_EXTI_LINE_31 (*)
 611:Drivers/STM32G4xx_HAL_Driver/Inc/stm32g4xx_ll_exti.h ****   *         @arg @ref LL_EXTI_LINE_ALL_0_31
 612:Drivers/STM32G4xx_HAL_Driver/Inc/stm32g4xx_ll_exti.h ****   * @note   (*): Available in some devices
 613:Drivers/STM32G4xx_HAL_Driver/Inc/stm32g4xx_ll_exti.h ****   * @note   Please check each device line mapping for EXTI Line availability
 614:Drivers/STM32G4xx_HAL_Driver/Inc/stm32g4xx_ll_exti.h ****   * @retval None
ARM GAS  /tmp/ccDOtdDj.s 			page 26


 615:Drivers/STM32G4xx_HAL_Driver/Inc/stm32g4xx_ll_exti.h ****   */
 616:Drivers/STM32G4xx_HAL_Driver/Inc/stm32g4xx_ll_exti.h **** __STATIC_INLINE void LL_EXTI_DisableEvent_0_31(uint32_t ExtiLine)
 617:Drivers/STM32G4xx_HAL_Driver/Inc/stm32g4xx_ll_exti.h **** {
 618:Drivers/STM32G4xx_HAL_Driver/Inc/stm32g4xx_ll_exti.h ****   CLEAR_BIT(EXTI->EMR1, ExtiLine);
 619:Drivers/STM32G4xx_HAL_Driver/Inc/stm32g4xx_ll_exti.h **** }
 620:Drivers/STM32G4xx_HAL_Driver/Inc/stm32g4xx_ll_exti.h **** 
 621:Drivers/STM32G4xx_HAL_Driver/Inc/stm32g4xx_ll_exti.h **** /**
 622:Drivers/STM32G4xx_HAL_Driver/Inc/stm32g4xx_ll_exti.h ****   * @brief  Disable ExtiLine Event request for Lines in range 32 to 63
 623:Drivers/STM32G4xx_HAL_Driver/Inc/stm32g4xx_ll_exti.h ****   * @rmtoll EMR2         EMx           LL_EXTI_DisableEvent_32_63
 624:Drivers/STM32G4xx_HAL_Driver/Inc/stm32g4xx_ll_exti.h ****   * @param  ExtiLine This parameter can be a combination of the following values:
 625:Drivers/STM32G4xx_HAL_Driver/Inc/stm32g4xx_ll_exti.h ****   *         @arg @ref LL_EXTI_LINE_32 (*)
 626:Drivers/STM32G4xx_HAL_Driver/Inc/stm32g4xx_ll_exti.h ****   *         @arg @ref LL_EXTI_LINE_33 (*)
 627:Drivers/STM32G4xx_HAL_Driver/Inc/stm32g4xx_ll_exti.h ****   *         @arg @ref LL_EXTI_LINE_34
 628:Drivers/STM32G4xx_HAL_Driver/Inc/stm32g4xx_ll_exti.h ****   *         @arg @ref LL_EXTI_LINE_35 (*)
 629:Drivers/STM32G4xx_HAL_Driver/Inc/stm32g4xx_ll_exti.h ****   *         @arg @ref LL_EXTI_LINE_36
 630:Drivers/STM32G4xx_HAL_Driver/Inc/stm32g4xx_ll_exti.h ****   *         @arg @ref LL_EXTI_LINE_37
 631:Drivers/STM32G4xx_HAL_Driver/Inc/stm32g4xx_ll_exti.h ****   *         @arg @ref LL_EXTI_LINE_38
 632:Drivers/STM32G4xx_HAL_Driver/Inc/stm32g4xx_ll_exti.h ****   *         @arg @ref LL_EXTI_LINE_39
 633:Drivers/STM32G4xx_HAL_Driver/Inc/stm32g4xx_ll_exti.h ****   *         @arg @ref LL_EXTI_LINE_40
 634:Drivers/STM32G4xx_HAL_Driver/Inc/stm32g4xx_ll_exti.h ****   *         @arg @ref LL_EXTI_LINE_41
 635:Drivers/STM32G4xx_HAL_Driver/Inc/stm32g4xx_ll_exti.h ****   *         @arg @ref LL_EXTI_LINE_42(*)
 636:Drivers/STM32G4xx_HAL_Driver/Inc/stm32g4xx_ll_exti.h ****   *         @arg @ref LL_EXTI_LINE_ALL_32_63
 637:Drivers/STM32G4xx_HAL_Driver/Inc/stm32g4xx_ll_exti.h ****   * @note   (*): Available in some devices
 638:Drivers/STM32G4xx_HAL_Driver/Inc/stm32g4xx_ll_exti.h ****   * @retval None
 639:Drivers/STM32G4xx_HAL_Driver/Inc/stm32g4xx_ll_exti.h ****   */
 640:Drivers/STM32G4xx_HAL_Driver/Inc/stm32g4xx_ll_exti.h **** __STATIC_INLINE void LL_EXTI_DisableEvent_32_63(uint32_t ExtiLine)
 641:Drivers/STM32G4xx_HAL_Driver/Inc/stm32g4xx_ll_exti.h **** {
 642:Drivers/STM32G4xx_HAL_Driver/Inc/stm32g4xx_ll_exti.h ****   CLEAR_BIT(EXTI->EMR2, ExtiLine);
 643:Drivers/STM32G4xx_HAL_Driver/Inc/stm32g4xx_ll_exti.h **** }
 644:Drivers/STM32G4xx_HAL_Driver/Inc/stm32g4xx_ll_exti.h **** 
 645:Drivers/STM32G4xx_HAL_Driver/Inc/stm32g4xx_ll_exti.h **** /**
 646:Drivers/STM32G4xx_HAL_Driver/Inc/stm32g4xx_ll_exti.h ****   * @brief  Indicate if ExtiLine Event request is enabled for Lines in range 0 to 31
 647:Drivers/STM32G4xx_HAL_Driver/Inc/stm32g4xx_ll_exti.h ****   * @rmtoll EMR1         EMx           LL_EXTI_IsEnabledEvent_0_31
 648:Drivers/STM32G4xx_HAL_Driver/Inc/stm32g4xx_ll_exti.h ****   * @param  ExtiLine This parameter can be one of the following values:
 649:Drivers/STM32G4xx_HAL_Driver/Inc/stm32g4xx_ll_exti.h ****   *         @arg @ref LL_EXTI_LINE_0
 650:Drivers/STM32G4xx_HAL_Driver/Inc/stm32g4xx_ll_exti.h ****   *         @arg @ref LL_EXTI_LINE_1
 651:Drivers/STM32G4xx_HAL_Driver/Inc/stm32g4xx_ll_exti.h ****   *         @arg @ref LL_EXTI_LINE_2
 652:Drivers/STM32G4xx_HAL_Driver/Inc/stm32g4xx_ll_exti.h ****   *         @arg @ref LL_EXTI_LINE_3
 653:Drivers/STM32G4xx_HAL_Driver/Inc/stm32g4xx_ll_exti.h ****   *         @arg @ref LL_EXTI_LINE_4
 654:Drivers/STM32G4xx_HAL_Driver/Inc/stm32g4xx_ll_exti.h ****   *         @arg @ref LL_EXTI_LINE_5
 655:Drivers/STM32G4xx_HAL_Driver/Inc/stm32g4xx_ll_exti.h ****   *         @arg @ref LL_EXTI_LINE_6
 656:Drivers/STM32G4xx_HAL_Driver/Inc/stm32g4xx_ll_exti.h ****   *         @arg @ref LL_EXTI_LINE_7
 657:Drivers/STM32G4xx_HAL_Driver/Inc/stm32g4xx_ll_exti.h ****   *         @arg @ref LL_EXTI_LINE_8
 658:Drivers/STM32G4xx_HAL_Driver/Inc/stm32g4xx_ll_exti.h ****   *         @arg @ref LL_EXTI_LINE_9
 659:Drivers/STM32G4xx_HAL_Driver/Inc/stm32g4xx_ll_exti.h ****   *         @arg @ref LL_EXTI_LINE_10
 660:Drivers/STM32G4xx_HAL_Driver/Inc/stm32g4xx_ll_exti.h ****   *         @arg @ref LL_EXTI_LINE_11
 661:Drivers/STM32G4xx_HAL_Driver/Inc/stm32g4xx_ll_exti.h ****   *         @arg @ref LL_EXTI_LINE_12
 662:Drivers/STM32G4xx_HAL_Driver/Inc/stm32g4xx_ll_exti.h ****   *         @arg @ref LL_EXTI_LINE_13
 663:Drivers/STM32G4xx_HAL_Driver/Inc/stm32g4xx_ll_exti.h ****   *         @arg @ref LL_EXTI_LINE_14
 664:Drivers/STM32G4xx_HAL_Driver/Inc/stm32g4xx_ll_exti.h ****   *         @arg @ref LL_EXTI_LINE_15
 665:Drivers/STM32G4xx_HAL_Driver/Inc/stm32g4xx_ll_exti.h ****   *         @arg @ref LL_EXTI_LINE_16
 666:Drivers/STM32G4xx_HAL_Driver/Inc/stm32g4xx_ll_exti.h ****   *         @arg @ref LL_EXTI_LINE_17
 667:Drivers/STM32G4xx_HAL_Driver/Inc/stm32g4xx_ll_exti.h ****   *         @arg @ref LL_EXTI_LINE_18
 668:Drivers/STM32G4xx_HAL_Driver/Inc/stm32g4xx_ll_exti.h ****   *         @arg @ref LL_EXTI_LINE_19
 669:Drivers/STM32G4xx_HAL_Driver/Inc/stm32g4xx_ll_exti.h ****   *         @arg @ref LL_EXTI_LINE_20
 670:Drivers/STM32G4xx_HAL_Driver/Inc/stm32g4xx_ll_exti.h ****   *         @arg @ref LL_EXTI_LINE_21
 671:Drivers/STM32G4xx_HAL_Driver/Inc/stm32g4xx_ll_exti.h ****   *         @arg @ref LL_EXTI_LINE_22
ARM GAS  /tmp/ccDOtdDj.s 			page 27


 672:Drivers/STM32G4xx_HAL_Driver/Inc/stm32g4xx_ll_exti.h ****   *         @arg @ref LL_EXTI_LINE_23
 673:Drivers/STM32G4xx_HAL_Driver/Inc/stm32g4xx_ll_exti.h ****   *         @arg @ref LL_EXTI_LINE_24
 674:Drivers/STM32G4xx_HAL_Driver/Inc/stm32g4xx_ll_exti.h ****   *         @arg @ref LL_EXTI_LINE_25
 675:Drivers/STM32G4xx_HAL_Driver/Inc/stm32g4xx_ll_exti.h ****   *         @arg @ref LL_EXTI_LINE_26
 676:Drivers/STM32G4xx_HAL_Driver/Inc/stm32g4xx_ll_exti.h ****   *         @arg @ref LL_EXTI_LINE_27
 677:Drivers/STM32G4xx_HAL_Driver/Inc/stm32g4xx_ll_exti.h ****   *         @arg @ref LL_EXTI_LINE_28
 678:Drivers/STM32G4xx_HAL_Driver/Inc/stm32g4xx_ll_exti.h ****   *         @arg @ref LL_EXTI_LINE_29
 679:Drivers/STM32G4xx_HAL_Driver/Inc/stm32g4xx_ll_exti.h ****   *         @arg @ref LL_EXTI_LINE_30
 680:Drivers/STM32G4xx_HAL_Driver/Inc/stm32g4xx_ll_exti.h ****   *         @arg @ref LL_EXTI_LINE_31
 681:Drivers/STM32G4xx_HAL_Driver/Inc/stm32g4xx_ll_exti.h ****   *         @arg @ref LL_EXTI_LINE_ALL_0_31 (*)
 682:Drivers/STM32G4xx_HAL_Driver/Inc/stm32g4xx_ll_exti.h ****   * @note   (*): Available in some devices
 683:Drivers/STM32G4xx_HAL_Driver/Inc/stm32g4xx_ll_exti.h ****   * @note   Please check each device line mapping for EXTI Line availability
 684:Drivers/STM32G4xx_HAL_Driver/Inc/stm32g4xx_ll_exti.h ****   * @retval State of bit (1 or 0).
 685:Drivers/STM32G4xx_HAL_Driver/Inc/stm32g4xx_ll_exti.h ****   */
 686:Drivers/STM32G4xx_HAL_Driver/Inc/stm32g4xx_ll_exti.h **** __STATIC_INLINE uint32_t LL_EXTI_IsEnabledEvent_0_31(uint32_t ExtiLine)
 687:Drivers/STM32G4xx_HAL_Driver/Inc/stm32g4xx_ll_exti.h **** {
 688:Drivers/STM32G4xx_HAL_Driver/Inc/stm32g4xx_ll_exti.h ****   return ((READ_BIT(EXTI->EMR1, ExtiLine) == (ExtiLine)) ? 1UL : 0UL);
 689:Drivers/STM32G4xx_HAL_Driver/Inc/stm32g4xx_ll_exti.h **** 
 690:Drivers/STM32G4xx_HAL_Driver/Inc/stm32g4xx_ll_exti.h **** }
 691:Drivers/STM32G4xx_HAL_Driver/Inc/stm32g4xx_ll_exti.h **** 
 692:Drivers/STM32G4xx_HAL_Driver/Inc/stm32g4xx_ll_exti.h **** /**
 693:Drivers/STM32G4xx_HAL_Driver/Inc/stm32g4xx_ll_exti.h ****   * @brief  Indicate if ExtiLine Event request is enabled for Lines in range 32 to 63
 694:Drivers/STM32G4xx_HAL_Driver/Inc/stm32g4xx_ll_exti.h ****   * @rmtoll EMR2         EMx           LL_EXTI_IsEnabledEvent_32_63
 695:Drivers/STM32G4xx_HAL_Driver/Inc/stm32g4xx_ll_exti.h ****   * @param  ExtiLine This parameter can be a combination of the following values:
 696:Drivers/STM32G4xx_HAL_Driver/Inc/stm32g4xx_ll_exti.h ****   *         @arg @ref LL_EXTI_LINE_32 (*)
 697:Drivers/STM32G4xx_HAL_Driver/Inc/stm32g4xx_ll_exti.h ****   *         @arg @ref LL_EXTI_LINE_33 (*)
 698:Drivers/STM32G4xx_HAL_Driver/Inc/stm32g4xx_ll_exti.h ****   *         @arg @ref LL_EXTI_LINE_34
 699:Drivers/STM32G4xx_HAL_Driver/Inc/stm32g4xx_ll_exti.h ****   *         @arg @ref LL_EXTI_LINE_35 (*)
 700:Drivers/STM32G4xx_HAL_Driver/Inc/stm32g4xx_ll_exti.h ****   *         @arg @ref LL_EXTI_LINE_36
 701:Drivers/STM32G4xx_HAL_Driver/Inc/stm32g4xx_ll_exti.h ****   *         @arg @ref LL_EXTI_LINE_37
 702:Drivers/STM32G4xx_HAL_Driver/Inc/stm32g4xx_ll_exti.h ****   *         @arg @ref LL_EXTI_LINE_38
 703:Drivers/STM32G4xx_HAL_Driver/Inc/stm32g4xx_ll_exti.h ****   *         @arg @ref LL_EXTI_LINE_39
 704:Drivers/STM32G4xx_HAL_Driver/Inc/stm32g4xx_ll_exti.h ****   *         @arg @ref LL_EXTI_LINE_40
 705:Drivers/STM32G4xx_HAL_Driver/Inc/stm32g4xx_ll_exti.h ****   *         @arg @ref LL_EXTI_LINE_41
 706:Drivers/STM32G4xx_HAL_Driver/Inc/stm32g4xx_ll_exti.h ****   *         @arg @ref LL_EXTI_LINE_42(*)
 707:Drivers/STM32G4xx_HAL_Driver/Inc/stm32g4xx_ll_exti.h ****   *         @arg @ref LL_EXTI_LINE_ALL_32_63
 708:Drivers/STM32G4xx_HAL_Driver/Inc/stm32g4xx_ll_exti.h ****   * @note   (*): Available in some devices
 709:Drivers/STM32G4xx_HAL_Driver/Inc/stm32g4xx_ll_exti.h ****   * @retval State of bit (1 or 0).
 710:Drivers/STM32G4xx_HAL_Driver/Inc/stm32g4xx_ll_exti.h ****   */
 711:Drivers/STM32G4xx_HAL_Driver/Inc/stm32g4xx_ll_exti.h **** __STATIC_INLINE uint32_t LL_EXTI_IsEnabledEvent_32_63(uint32_t ExtiLine)
 712:Drivers/STM32G4xx_HAL_Driver/Inc/stm32g4xx_ll_exti.h **** {
 713:Drivers/STM32G4xx_HAL_Driver/Inc/stm32g4xx_ll_exti.h ****   return ((READ_BIT(EXTI->EMR2, ExtiLine) == (ExtiLine)) ? 1UL : 0UL);
 714:Drivers/STM32G4xx_HAL_Driver/Inc/stm32g4xx_ll_exti.h **** }
 715:Drivers/STM32G4xx_HAL_Driver/Inc/stm32g4xx_ll_exti.h **** 
 716:Drivers/STM32G4xx_HAL_Driver/Inc/stm32g4xx_ll_exti.h **** /**
 717:Drivers/STM32G4xx_HAL_Driver/Inc/stm32g4xx_ll_exti.h ****   * @}
 718:Drivers/STM32G4xx_HAL_Driver/Inc/stm32g4xx_ll_exti.h ****   */
 719:Drivers/STM32G4xx_HAL_Driver/Inc/stm32g4xx_ll_exti.h **** 
 720:Drivers/STM32G4xx_HAL_Driver/Inc/stm32g4xx_ll_exti.h **** /** @defgroup EXTI_LL_EF_Rising_Trigger_Management Rising_Trigger_Management
 721:Drivers/STM32G4xx_HAL_Driver/Inc/stm32g4xx_ll_exti.h ****   * @{
 722:Drivers/STM32G4xx_HAL_Driver/Inc/stm32g4xx_ll_exti.h ****   */
 723:Drivers/STM32G4xx_HAL_Driver/Inc/stm32g4xx_ll_exti.h **** 
 724:Drivers/STM32G4xx_HAL_Driver/Inc/stm32g4xx_ll_exti.h **** /**
 725:Drivers/STM32G4xx_HAL_Driver/Inc/stm32g4xx_ll_exti.h ****   * @brief  Enable ExtiLine Rising Edge Trigger for Lines in range 0 to 31
 726:Drivers/STM32G4xx_HAL_Driver/Inc/stm32g4xx_ll_exti.h ****   * @note The configurable wakeup lines are edge-triggered. No glitch must be
 727:Drivers/STM32G4xx_HAL_Driver/Inc/stm32g4xx_ll_exti.h ****   *       generated on these lines. If a rising edge on a configurable interrupt
 728:Drivers/STM32G4xx_HAL_Driver/Inc/stm32g4xx_ll_exti.h ****   *       line occurs during a write operation in the EXTI_RTSR register, the
ARM GAS  /tmp/ccDOtdDj.s 			page 28


 729:Drivers/STM32G4xx_HAL_Driver/Inc/stm32g4xx_ll_exti.h ****   *       pending bit is not set.
 730:Drivers/STM32G4xx_HAL_Driver/Inc/stm32g4xx_ll_exti.h ****   *       Rising and falling edge triggers can be set for
 731:Drivers/STM32G4xx_HAL_Driver/Inc/stm32g4xx_ll_exti.h ****   *       the same interrupt line. In this case, both generate a trigger
 732:Drivers/STM32G4xx_HAL_Driver/Inc/stm32g4xx_ll_exti.h ****   *       condition.
 733:Drivers/STM32G4xx_HAL_Driver/Inc/stm32g4xx_ll_exti.h ****   * @rmtoll RTSR1        RTx           LL_EXTI_EnableRisingTrig_0_31
 734:Drivers/STM32G4xx_HAL_Driver/Inc/stm32g4xx_ll_exti.h ****   * @param  ExtiLine This parameter can be a combination of the following values:
 735:Drivers/STM32G4xx_HAL_Driver/Inc/stm32g4xx_ll_exti.h ****   *         @arg @ref LL_EXTI_LINE_0
 736:Drivers/STM32G4xx_HAL_Driver/Inc/stm32g4xx_ll_exti.h ****   *         @arg @ref LL_EXTI_LINE_1
 737:Drivers/STM32G4xx_HAL_Driver/Inc/stm32g4xx_ll_exti.h ****   *         @arg @ref LL_EXTI_LINE_2
 738:Drivers/STM32G4xx_HAL_Driver/Inc/stm32g4xx_ll_exti.h ****   *         @arg @ref LL_EXTI_LINE_3
 739:Drivers/STM32G4xx_HAL_Driver/Inc/stm32g4xx_ll_exti.h ****   *         @arg @ref LL_EXTI_LINE_4
 740:Drivers/STM32G4xx_HAL_Driver/Inc/stm32g4xx_ll_exti.h ****   *         @arg @ref LL_EXTI_LINE_5
 741:Drivers/STM32G4xx_HAL_Driver/Inc/stm32g4xx_ll_exti.h ****   *         @arg @ref LL_EXTI_LINE_6
 742:Drivers/STM32G4xx_HAL_Driver/Inc/stm32g4xx_ll_exti.h ****   *         @arg @ref LL_EXTI_LINE_7
 743:Drivers/STM32G4xx_HAL_Driver/Inc/stm32g4xx_ll_exti.h ****   *         @arg @ref LL_EXTI_LINE_8
 744:Drivers/STM32G4xx_HAL_Driver/Inc/stm32g4xx_ll_exti.h ****   *         @arg @ref LL_EXTI_LINE_9
 745:Drivers/STM32G4xx_HAL_Driver/Inc/stm32g4xx_ll_exti.h ****   *         @arg @ref LL_EXTI_LINE_10
 746:Drivers/STM32G4xx_HAL_Driver/Inc/stm32g4xx_ll_exti.h ****   *         @arg @ref LL_EXTI_LINE_11
 747:Drivers/STM32G4xx_HAL_Driver/Inc/stm32g4xx_ll_exti.h ****   *         @arg @ref LL_EXTI_LINE_12
 748:Drivers/STM32G4xx_HAL_Driver/Inc/stm32g4xx_ll_exti.h ****   *         @arg @ref LL_EXTI_LINE_13
 749:Drivers/STM32G4xx_HAL_Driver/Inc/stm32g4xx_ll_exti.h ****   *         @arg @ref LL_EXTI_LINE_14
 750:Drivers/STM32G4xx_HAL_Driver/Inc/stm32g4xx_ll_exti.h ****   *         @arg @ref LL_EXTI_LINE_15
 751:Drivers/STM32G4xx_HAL_Driver/Inc/stm32g4xx_ll_exti.h ****   *         @arg @ref LL_EXTI_LINE_16
 752:Drivers/STM32G4xx_HAL_Driver/Inc/stm32g4xx_ll_exti.h ****   *         @arg @ref LL_EXTI_LINE_18
 753:Drivers/STM32G4xx_HAL_Driver/Inc/stm32g4xx_ll_exti.h ****   *         @arg @ref LL_EXTI_LINE_19
 754:Drivers/STM32G4xx_HAL_Driver/Inc/stm32g4xx_ll_exti.h ****   *         @arg @ref LL_EXTI_LINE_20
 755:Drivers/STM32G4xx_HAL_Driver/Inc/stm32g4xx_ll_exti.h ****   *         @arg @ref LL_EXTI_LINE_21
 756:Drivers/STM32G4xx_HAL_Driver/Inc/stm32g4xx_ll_exti.h ****   *         @arg @ref LL_EXTI_LINE_22
 757:Drivers/STM32G4xx_HAL_Driver/Inc/stm32g4xx_ll_exti.h ****   *         @arg @ref LL_EXTI_LINE_29
 758:Drivers/STM32G4xx_HAL_Driver/Inc/stm32g4xx_ll_exti.h ****   *         @arg @ref LL_EXTI_LINE_30
 759:Drivers/STM32G4xx_HAL_Driver/Inc/stm32g4xx_ll_exti.h ****   *         @arg @ref LL_EXTI_LINE_31 (*)
 760:Drivers/STM32G4xx_HAL_Driver/Inc/stm32g4xx_ll_exti.h ****   * @note   (*): Available in some devices
 761:Drivers/STM32G4xx_HAL_Driver/Inc/stm32g4xx_ll_exti.h ****   * @note   Please check each device line mapping for EXTI Line availability
 762:Drivers/STM32G4xx_HAL_Driver/Inc/stm32g4xx_ll_exti.h ****   * @retval None
 763:Drivers/STM32G4xx_HAL_Driver/Inc/stm32g4xx_ll_exti.h ****   */
 764:Drivers/STM32G4xx_HAL_Driver/Inc/stm32g4xx_ll_exti.h **** __STATIC_INLINE void LL_EXTI_EnableRisingTrig_0_31(uint32_t ExtiLine)
 765:Drivers/STM32G4xx_HAL_Driver/Inc/stm32g4xx_ll_exti.h **** {
 766:Drivers/STM32G4xx_HAL_Driver/Inc/stm32g4xx_ll_exti.h ****   SET_BIT(EXTI->RTSR1, ExtiLine);
 767:Drivers/STM32G4xx_HAL_Driver/Inc/stm32g4xx_ll_exti.h **** 
 768:Drivers/STM32G4xx_HAL_Driver/Inc/stm32g4xx_ll_exti.h **** }
 769:Drivers/STM32G4xx_HAL_Driver/Inc/stm32g4xx_ll_exti.h **** 
 770:Drivers/STM32G4xx_HAL_Driver/Inc/stm32g4xx_ll_exti.h **** /**
 771:Drivers/STM32G4xx_HAL_Driver/Inc/stm32g4xx_ll_exti.h ****   * @brief  Enable ExtiLine Rising Edge Trigger for Lines in range 32 to 63
 772:Drivers/STM32G4xx_HAL_Driver/Inc/stm32g4xx_ll_exti.h ****   * @note The configurable wakeup lines are edge-triggered. No glitch must be
 773:Drivers/STM32G4xx_HAL_Driver/Inc/stm32g4xx_ll_exti.h ****   *       generated on these lines. If a rising edge on a configurable interrupt
 774:Drivers/STM32G4xx_HAL_Driver/Inc/stm32g4xx_ll_exti.h ****   *       line occurs during a write operation in the EXTI_RTSR register, the
 775:Drivers/STM32G4xx_HAL_Driver/Inc/stm32g4xx_ll_exti.h ****   *       pending bit is not set.Rising and falling edge triggers can be set for
 776:Drivers/STM32G4xx_HAL_Driver/Inc/stm32g4xx_ll_exti.h ****   *       the same interrupt line. In this case, both generate a trigger
 777:Drivers/STM32G4xx_HAL_Driver/Inc/stm32g4xx_ll_exti.h ****   *       condition.
 778:Drivers/STM32G4xx_HAL_Driver/Inc/stm32g4xx_ll_exti.h ****   * @rmtoll RTSR2        RTx           LL_EXTI_EnableRisingTrig_32_63
 779:Drivers/STM32G4xx_HAL_Driver/Inc/stm32g4xx_ll_exti.h ****   * @param  ExtiLine This parameter can be a combination of the following values:
 780:Drivers/STM32G4xx_HAL_Driver/Inc/stm32g4xx_ll_exti.h ****   *         @arg @ref LL_EXTI_LINE_32 (*)
 781:Drivers/STM32G4xx_HAL_Driver/Inc/stm32g4xx_ll_exti.h ****   *         @arg @ref LL_EXTI_LINE_33 (*)
 782:Drivers/STM32G4xx_HAL_Driver/Inc/stm32g4xx_ll_exti.h ****   *         @arg @ref LL_EXTI_LINE_38
 783:Drivers/STM32G4xx_HAL_Driver/Inc/stm32g4xx_ll_exti.h ****   *         @arg @ref LL_EXTI_LINE_39
 784:Drivers/STM32G4xx_HAL_Driver/Inc/stm32g4xx_ll_exti.h ****   *         @arg @ref LL_EXTI_LINE_40
 785:Drivers/STM32G4xx_HAL_Driver/Inc/stm32g4xx_ll_exti.h ****   *         @arg @ref LL_EXTI_LINE_41
ARM GAS  /tmp/ccDOtdDj.s 			page 29


 786:Drivers/STM32G4xx_HAL_Driver/Inc/stm32g4xx_ll_exti.h ****   * @note   (*): Available in some devices
 787:Drivers/STM32G4xx_HAL_Driver/Inc/stm32g4xx_ll_exti.h ****   * @retval None
 788:Drivers/STM32G4xx_HAL_Driver/Inc/stm32g4xx_ll_exti.h ****   */
 789:Drivers/STM32G4xx_HAL_Driver/Inc/stm32g4xx_ll_exti.h **** __STATIC_INLINE void LL_EXTI_EnableRisingTrig_32_63(uint32_t ExtiLine)
 181              		.loc 2 789 22 view .LVU58
 182              	.LBB55:
 790:Drivers/STM32G4xx_HAL_Driver/Inc/stm32g4xx_ll_exti.h **** {
 791:Drivers/STM32G4xx_HAL_Driver/Inc/stm32g4xx_ll_exti.h ****   SET_BIT(EXTI->RTSR2, ExtiLine);
 183              		.loc 2 791 3 view .LVU59
 184 0074 9D6A     		ldr	r5, [r3, #40]
 185 0076 1543     		orrs	r5, r5, r2
 186              	.L55:
 187              		.loc 2 791 3 is_stmt 0 view .LVU60
 188              	.LBE55:
 189              	.LBE54:
 190              	.LBB56:
 191              	.LBB57:
 792:Drivers/STM32G4xx_HAL_Driver/Inc/stm32g4xx_ll_exti.h **** }
 793:Drivers/STM32G4xx_HAL_Driver/Inc/stm32g4xx_ll_exti.h **** 
 794:Drivers/STM32G4xx_HAL_Driver/Inc/stm32g4xx_ll_exti.h **** /**
 795:Drivers/STM32G4xx_HAL_Driver/Inc/stm32g4xx_ll_exti.h ****   * @brief  Disable ExtiLine Rising Edge Trigger for Lines in range 0 to 31
 796:Drivers/STM32G4xx_HAL_Driver/Inc/stm32g4xx_ll_exti.h ****   * @note The configurable wakeup lines are edge-triggered. No glitch must be
 797:Drivers/STM32G4xx_HAL_Driver/Inc/stm32g4xx_ll_exti.h ****   *       generated on these lines. If a rising edge on a configurable interrupt
 798:Drivers/STM32G4xx_HAL_Driver/Inc/stm32g4xx_ll_exti.h ****   *       line occurs during a write operation in the EXTI_RTSR register, the
 799:Drivers/STM32G4xx_HAL_Driver/Inc/stm32g4xx_ll_exti.h ****   *       pending bit is not set.
 800:Drivers/STM32G4xx_HAL_Driver/Inc/stm32g4xx_ll_exti.h ****   *       Rising and falling edge triggers can be set for
 801:Drivers/STM32G4xx_HAL_Driver/Inc/stm32g4xx_ll_exti.h ****   *       the same interrupt line. In this case, both generate a trigger
 802:Drivers/STM32G4xx_HAL_Driver/Inc/stm32g4xx_ll_exti.h ****   *       condition.
 803:Drivers/STM32G4xx_HAL_Driver/Inc/stm32g4xx_ll_exti.h ****   * @rmtoll RTSR1        RTx           LL_EXTI_DisableRisingTrig_0_31
 804:Drivers/STM32G4xx_HAL_Driver/Inc/stm32g4xx_ll_exti.h ****   * @param  ExtiLine This parameter can be a combination of the following values:
 805:Drivers/STM32G4xx_HAL_Driver/Inc/stm32g4xx_ll_exti.h ****   *         @arg @ref LL_EXTI_LINE_0
 806:Drivers/STM32G4xx_HAL_Driver/Inc/stm32g4xx_ll_exti.h ****   *         @arg @ref LL_EXTI_LINE_1
 807:Drivers/STM32G4xx_HAL_Driver/Inc/stm32g4xx_ll_exti.h ****   *         @arg @ref LL_EXTI_LINE_2
 808:Drivers/STM32G4xx_HAL_Driver/Inc/stm32g4xx_ll_exti.h ****   *         @arg @ref LL_EXTI_LINE_3
 809:Drivers/STM32G4xx_HAL_Driver/Inc/stm32g4xx_ll_exti.h ****   *         @arg @ref LL_EXTI_LINE_4
 810:Drivers/STM32G4xx_HAL_Driver/Inc/stm32g4xx_ll_exti.h ****   *         @arg @ref LL_EXTI_LINE_5
 811:Drivers/STM32G4xx_HAL_Driver/Inc/stm32g4xx_ll_exti.h ****   *         @arg @ref LL_EXTI_LINE_6
 812:Drivers/STM32G4xx_HAL_Driver/Inc/stm32g4xx_ll_exti.h ****   *         @arg @ref LL_EXTI_LINE_7
 813:Drivers/STM32G4xx_HAL_Driver/Inc/stm32g4xx_ll_exti.h ****   *         @arg @ref LL_EXTI_LINE_8
 814:Drivers/STM32G4xx_HAL_Driver/Inc/stm32g4xx_ll_exti.h ****   *         @arg @ref LL_EXTI_LINE_9
 815:Drivers/STM32G4xx_HAL_Driver/Inc/stm32g4xx_ll_exti.h ****   *         @arg @ref LL_EXTI_LINE_10
 816:Drivers/STM32G4xx_HAL_Driver/Inc/stm32g4xx_ll_exti.h ****   *         @arg @ref LL_EXTI_LINE_11
 817:Drivers/STM32G4xx_HAL_Driver/Inc/stm32g4xx_ll_exti.h ****   *         @arg @ref LL_EXTI_LINE_12
 818:Drivers/STM32G4xx_HAL_Driver/Inc/stm32g4xx_ll_exti.h ****   *         @arg @ref LL_EXTI_LINE_13
 819:Drivers/STM32G4xx_HAL_Driver/Inc/stm32g4xx_ll_exti.h ****   *         @arg @ref LL_EXTI_LINE_14
 820:Drivers/STM32G4xx_HAL_Driver/Inc/stm32g4xx_ll_exti.h ****   *         @arg @ref LL_EXTI_LINE_15
 821:Drivers/STM32G4xx_HAL_Driver/Inc/stm32g4xx_ll_exti.h ****   *         @arg @ref LL_EXTI_LINE_16
 822:Drivers/STM32G4xx_HAL_Driver/Inc/stm32g4xx_ll_exti.h ****   *         @arg @ref LL_EXTI_LINE_18
 823:Drivers/STM32G4xx_HAL_Driver/Inc/stm32g4xx_ll_exti.h ****   *         @arg @ref LL_EXTI_LINE_19
 824:Drivers/STM32G4xx_HAL_Driver/Inc/stm32g4xx_ll_exti.h ****   *         @arg @ref LL_EXTI_LINE_20
 825:Drivers/STM32G4xx_HAL_Driver/Inc/stm32g4xx_ll_exti.h ****   *         @arg @ref LL_EXTI_LINE_21
 826:Drivers/STM32G4xx_HAL_Driver/Inc/stm32g4xx_ll_exti.h ****   *         @arg @ref LL_EXTI_LINE_22
 827:Drivers/STM32G4xx_HAL_Driver/Inc/stm32g4xx_ll_exti.h ****   *         @arg @ref LL_EXTI_LINE_29
 828:Drivers/STM32G4xx_HAL_Driver/Inc/stm32g4xx_ll_exti.h ****   *         @arg @ref LL_EXTI_LINE_30
 829:Drivers/STM32G4xx_HAL_Driver/Inc/stm32g4xx_ll_exti.h ****   *         @arg @ref LL_EXTI_LINE_31 (*)
 830:Drivers/STM32G4xx_HAL_Driver/Inc/stm32g4xx_ll_exti.h ****   * @note   (*): Available in some devices
 831:Drivers/STM32G4xx_HAL_Driver/Inc/stm32g4xx_ll_exti.h ****   * @note   Please check each device line mapping for EXTI Line availability
ARM GAS  /tmp/ccDOtdDj.s 			page 30


 832:Drivers/STM32G4xx_HAL_Driver/Inc/stm32g4xx_ll_exti.h ****   * @retval None
 833:Drivers/STM32G4xx_HAL_Driver/Inc/stm32g4xx_ll_exti.h ****   */
 834:Drivers/STM32G4xx_HAL_Driver/Inc/stm32g4xx_ll_exti.h **** __STATIC_INLINE void LL_EXTI_DisableRisingTrig_0_31(uint32_t ExtiLine)
 835:Drivers/STM32G4xx_HAL_Driver/Inc/stm32g4xx_ll_exti.h **** {
 836:Drivers/STM32G4xx_HAL_Driver/Inc/stm32g4xx_ll_exti.h ****   CLEAR_BIT(EXTI->RTSR1, ExtiLine);
 837:Drivers/STM32G4xx_HAL_Driver/Inc/stm32g4xx_ll_exti.h **** 
 838:Drivers/STM32G4xx_HAL_Driver/Inc/stm32g4xx_ll_exti.h **** }
 839:Drivers/STM32G4xx_HAL_Driver/Inc/stm32g4xx_ll_exti.h **** 
 840:Drivers/STM32G4xx_HAL_Driver/Inc/stm32g4xx_ll_exti.h **** /**
 841:Drivers/STM32G4xx_HAL_Driver/Inc/stm32g4xx_ll_exti.h ****   * @brief  Disable ExtiLine Rising Edge Trigger for Lines in range 32 to 63
 842:Drivers/STM32G4xx_HAL_Driver/Inc/stm32g4xx_ll_exti.h ****   * @note The configurable wakeup lines are edge-triggered. No glitch must be
 843:Drivers/STM32G4xx_HAL_Driver/Inc/stm32g4xx_ll_exti.h ****   *       generated on these lines. If a rising edge on a configurable interrupt
 844:Drivers/STM32G4xx_HAL_Driver/Inc/stm32g4xx_ll_exti.h ****   *       line occurs during a write operation in the EXTI_RTSR register, the
 845:Drivers/STM32G4xx_HAL_Driver/Inc/stm32g4xx_ll_exti.h ****   *       pending bit is not set.
 846:Drivers/STM32G4xx_HAL_Driver/Inc/stm32g4xx_ll_exti.h ****   *       Rising and falling edge triggers can be set for
 847:Drivers/STM32G4xx_HAL_Driver/Inc/stm32g4xx_ll_exti.h ****   *       the same interrupt line. In this case, both generate a trigger
 848:Drivers/STM32G4xx_HAL_Driver/Inc/stm32g4xx_ll_exti.h ****   *       condition.
 849:Drivers/STM32G4xx_HAL_Driver/Inc/stm32g4xx_ll_exti.h ****   * @rmtoll RTSR2        RTx           LL_EXTI_DisableRisingTrig_32_63
 850:Drivers/STM32G4xx_HAL_Driver/Inc/stm32g4xx_ll_exti.h ****   * @param  ExtiLine This parameter can be a combination of the following values:
 851:Drivers/STM32G4xx_HAL_Driver/Inc/stm32g4xx_ll_exti.h ****   *         @arg @ref LL_EXTI_LINE_32 (*)
 852:Drivers/STM32G4xx_HAL_Driver/Inc/stm32g4xx_ll_exti.h ****   *         @arg @ref LL_EXTI_LINE_33 (*)
 853:Drivers/STM32G4xx_HAL_Driver/Inc/stm32g4xx_ll_exti.h ****   *         @arg @ref LL_EXTI_LINE_38
 854:Drivers/STM32G4xx_HAL_Driver/Inc/stm32g4xx_ll_exti.h ****   *         @arg @ref LL_EXTI_LINE_39
 855:Drivers/STM32G4xx_HAL_Driver/Inc/stm32g4xx_ll_exti.h ****   *         @arg @ref LL_EXTI_LINE_40
 856:Drivers/STM32G4xx_HAL_Driver/Inc/stm32g4xx_ll_exti.h ****   *         @arg @ref LL_EXTI_LINE_41
 857:Drivers/STM32G4xx_HAL_Driver/Inc/stm32g4xx_ll_exti.h ****   * @note   (*): Available in some devices
 858:Drivers/STM32G4xx_HAL_Driver/Inc/stm32g4xx_ll_exti.h ****   * @retval None
 859:Drivers/STM32G4xx_HAL_Driver/Inc/stm32g4xx_ll_exti.h ****   */
 860:Drivers/STM32G4xx_HAL_Driver/Inc/stm32g4xx_ll_exti.h **** __STATIC_INLINE void LL_EXTI_DisableRisingTrig_32_63(uint32_t ExtiLine)
 861:Drivers/STM32G4xx_HAL_Driver/Inc/stm32g4xx_ll_exti.h **** {
 862:Drivers/STM32G4xx_HAL_Driver/Inc/stm32g4xx_ll_exti.h ****   CLEAR_BIT(EXTI->RTSR2, ExtiLine);
 192              		.loc 2 862 3 view .LVU61
 193 0078 9D62     		str	r5, [r3, #40]
 194              	.LVL9:
 195              	.L15:
 196              		.loc 2 862 3 view .LVU62
 197              	.LBE57:
 198              	.LBE56:
 363:Drivers/STM32G4xx_HAL_Driver/Src/stm32g4xx_hal_comp.c ****       {
 199              		.loc 1 363 7 is_stmt 1 view .LVU63
 363:Drivers/STM32G4xx_HAL_Driver/Src/stm32g4xx_hal_comp.c ****       {
 200              		.loc 1 363 9 is_stmt 0 view .LVU64
 201 007a B506     		lsls	r5, r6, #26
 202 007c 65D5     		bpl	.L18
 366:Drivers/STM32G4xx_HAL_Driver/Src/stm32g4xx_hal_comp.c ****         {
 203              		.loc 1 366 9 is_stmt 1 view .LVU65
 366:Drivers/STM32G4xx_HAL_Driver/Src/stm32g4xx_hal_comp.c ****         {
 204              		.loc 1 366 11 is_stmt 0 view .LVU66
 205 007e 8142     		cmp	r1, r0
 206 0080 02D0     		beq	.L19
 366:Drivers/STM32G4xx_HAL_Driver/Src/stm32g4xx_hal_comp.c ****         {
 207              		.loc 1 366 39 discriminator 1 view .LVU67
 208 0082 604D     		ldr	r5, .L63+16
 209 0084 A942     		cmp	r1, r5
 210 0086 5BD1     		bne	.L20
 211              	.L19:
 368:Drivers/STM32G4xx_HAL_Driver/Src/stm32g4xx_hal_comp.c ****         }
ARM GAS  /tmp/ccDOtdDj.s 			page 31


 212              		.loc 1 368 11 is_stmt 1 view .LVU68
 213              	.LVL10:
 214              	.LBB59:
 215              	.LBI59:
 863:Drivers/STM32G4xx_HAL_Driver/Inc/stm32g4xx_ll_exti.h **** }
 864:Drivers/STM32G4xx_HAL_Driver/Inc/stm32g4xx_ll_exti.h **** 
 865:Drivers/STM32G4xx_HAL_Driver/Inc/stm32g4xx_ll_exti.h **** /**
 866:Drivers/STM32G4xx_HAL_Driver/Inc/stm32g4xx_ll_exti.h ****   * @brief  Check if rising edge trigger is enabled for Lines in range 0 to 31
 867:Drivers/STM32G4xx_HAL_Driver/Inc/stm32g4xx_ll_exti.h ****   * @rmtoll RTSR1        RTx           LL_EXTI_IsEnabledRisingTrig_0_31
 868:Drivers/STM32G4xx_HAL_Driver/Inc/stm32g4xx_ll_exti.h ****   * @param  ExtiLine This parameter can be a combination of the following values:
 869:Drivers/STM32G4xx_HAL_Driver/Inc/stm32g4xx_ll_exti.h ****   *         @arg @ref LL_EXTI_LINE_0
 870:Drivers/STM32G4xx_HAL_Driver/Inc/stm32g4xx_ll_exti.h ****   *         @arg @ref LL_EXTI_LINE_1
 871:Drivers/STM32G4xx_HAL_Driver/Inc/stm32g4xx_ll_exti.h ****   *         @arg @ref LL_EXTI_LINE_2
 872:Drivers/STM32G4xx_HAL_Driver/Inc/stm32g4xx_ll_exti.h ****   *         @arg @ref LL_EXTI_LINE_3
 873:Drivers/STM32G4xx_HAL_Driver/Inc/stm32g4xx_ll_exti.h ****   *         @arg @ref LL_EXTI_LINE_4
 874:Drivers/STM32G4xx_HAL_Driver/Inc/stm32g4xx_ll_exti.h ****   *         @arg @ref LL_EXTI_LINE_5
 875:Drivers/STM32G4xx_HAL_Driver/Inc/stm32g4xx_ll_exti.h ****   *         @arg @ref LL_EXTI_LINE_6
 876:Drivers/STM32G4xx_HAL_Driver/Inc/stm32g4xx_ll_exti.h ****   *         @arg @ref LL_EXTI_LINE_7
 877:Drivers/STM32G4xx_HAL_Driver/Inc/stm32g4xx_ll_exti.h ****   *         @arg @ref LL_EXTI_LINE_8
 878:Drivers/STM32G4xx_HAL_Driver/Inc/stm32g4xx_ll_exti.h ****   *         @arg @ref LL_EXTI_LINE_9
 879:Drivers/STM32G4xx_HAL_Driver/Inc/stm32g4xx_ll_exti.h ****   *         @arg @ref LL_EXTI_LINE_10
 880:Drivers/STM32G4xx_HAL_Driver/Inc/stm32g4xx_ll_exti.h ****   *         @arg @ref LL_EXTI_LINE_11
 881:Drivers/STM32G4xx_HAL_Driver/Inc/stm32g4xx_ll_exti.h ****   *         @arg @ref LL_EXTI_LINE_12
 882:Drivers/STM32G4xx_HAL_Driver/Inc/stm32g4xx_ll_exti.h ****   *         @arg @ref LL_EXTI_LINE_13
 883:Drivers/STM32G4xx_HAL_Driver/Inc/stm32g4xx_ll_exti.h ****   *         @arg @ref LL_EXTI_LINE_14
 884:Drivers/STM32G4xx_HAL_Driver/Inc/stm32g4xx_ll_exti.h ****   *         @arg @ref LL_EXTI_LINE_15
 885:Drivers/STM32G4xx_HAL_Driver/Inc/stm32g4xx_ll_exti.h ****   *         @arg @ref LL_EXTI_LINE_16
 886:Drivers/STM32G4xx_HAL_Driver/Inc/stm32g4xx_ll_exti.h ****   *         @arg @ref LL_EXTI_LINE_18
 887:Drivers/STM32G4xx_HAL_Driver/Inc/stm32g4xx_ll_exti.h ****   *         @arg @ref LL_EXTI_LINE_19
 888:Drivers/STM32G4xx_HAL_Driver/Inc/stm32g4xx_ll_exti.h ****   *         @arg @ref LL_EXTI_LINE_20
 889:Drivers/STM32G4xx_HAL_Driver/Inc/stm32g4xx_ll_exti.h ****   *         @arg @ref LL_EXTI_LINE_21
 890:Drivers/STM32G4xx_HAL_Driver/Inc/stm32g4xx_ll_exti.h ****   *         @arg @ref LL_EXTI_LINE_22
 891:Drivers/STM32G4xx_HAL_Driver/Inc/stm32g4xx_ll_exti.h ****   *         @arg @ref LL_EXTI_LINE_29
 892:Drivers/STM32G4xx_HAL_Driver/Inc/stm32g4xx_ll_exti.h ****   *         @arg @ref LL_EXTI_LINE_30
 893:Drivers/STM32G4xx_HAL_Driver/Inc/stm32g4xx_ll_exti.h ****   *         @arg @ref LL_EXTI_LINE_31 (*)
 894:Drivers/STM32G4xx_HAL_Driver/Inc/stm32g4xx_ll_exti.h ****   * @note   (*): Available in some devices
 895:Drivers/STM32G4xx_HAL_Driver/Inc/stm32g4xx_ll_exti.h ****   * @note   Please check each device line mapping for EXTI Line availability
 896:Drivers/STM32G4xx_HAL_Driver/Inc/stm32g4xx_ll_exti.h ****   * @retval State of bit (1 or 0).
 897:Drivers/STM32G4xx_HAL_Driver/Inc/stm32g4xx_ll_exti.h ****   */
 898:Drivers/STM32G4xx_HAL_Driver/Inc/stm32g4xx_ll_exti.h **** __STATIC_INLINE uint32_t LL_EXTI_IsEnabledRisingTrig_0_31(uint32_t ExtiLine)
 899:Drivers/STM32G4xx_HAL_Driver/Inc/stm32g4xx_ll_exti.h **** {
 900:Drivers/STM32G4xx_HAL_Driver/Inc/stm32g4xx_ll_exti.h ****   return ((READ_BIT(EXTI->RTSR1, ExtiLine) == (ExtiLine)) ? 1UL : 0UL);
 901:Drivers/STM32G4xx_HAL_Driver/Inc/stm32g4xx_ll_exti.h **** }
 902:Drivers/STM32G4xx_HAL_Driver/Inc/stm32g4xx_ll_exti.h **** 
 903:Drivers/STM32G4xx_HAL_Driver/Inc/stm32g4xx_ll_exti.h **** /**
 904:Drivers/STM32G4xx_HAL_Driver/Inc/stm32g4xx_ll_exti.h ****   * @brief  Check if rising edge trigger is enabled for Lines in range 32 to 63
 905:Drivers/STM32G4xx_HAL_Driver/Inc/stm32g4xx_ll_exti.h ****   * @rmtoll RTSR2        RTx           LL_EXTI_IsEnabledRisingTrig_32_63
 906:Drivers/STM32G4xx_HAL_Driver/Inc/stm32g4xx_ll_exti.h ****   * @param  ExtiLine This parameter can be a combination of the following values:
 907:Drivers/STM32G4xx_HAL_Driver/Inc/stm32g4xx_ll_exti.h ****   *         @arg @ref LL_EXTI_LINE_32 (*)
 908:Drivers/STM32G4xx_HAL_Driver/Inc/stm32g4xx_ll_exti.h ****   *         @arg @ref LL_EXTI_LINE_33 (*)
 909:Drivers/STM32G4xx_HAL_Driver/Inc/stm32g4xx_ll_exti.h ****   *         @arg @ref LL_EXTI_LINE_38
 910:Drivers/STM32G4xx_HAL_Driver/Inc/stm32g4xx_ll_exti.h ****   *         @arg @ref LL_EXTI_LINE_39
 911:Drivers/STM32G4xx_HAL_Driver/Inc/stm32g4xx_ll_exti.h ****   *         @arg @ref LL_EXTI_LINE_40
 912:Drivers/STM32G4xx_HAL_Driver/Inc/stm32g4xx_ll_exti.h ****   *         @arg @ref LL_EXTI_LINE_41
 913:Drivers/STM32G4xx_HAL_Driver/Inc/stm32g4xx_ll_exti.h ****   * @note   (*): Available in some devices
 914:Drivers/STM32G4xx_HAL_Driver/Inc/stm32g4xx_ll_exti.h ****   * @retval State of bit (1 or 0).
 915:Drivers/STM32G4xx_HAL_Driver/Inc/stm32g4xx_ll_exti.h ****   */
ARM GAS  /tmp/ccDOtdDj.s 			page 32


 916:Drivers/STM32G4xx_HAL_Driver/Inc/stm32g4xx_ll_exti.h **** __STATIC_INLINE uint32_t LL_EXTI_IsEnabledRisingTrig_32_63(uint32_t ExtiLine)
 917:Drivers/STM32G4xx_HAL_Driver/Inc/stm32g4xx_ll_exti.h **** {
 918:Drivers/STM32G4xx_HAL_Driver/Inc/stm32g4xx_ll_exti.h ****   return ((READ_BIT(EXTI->RTSR2, ExtiLine) == (ExtiLine)) ? 1UL : 0UL);
 919:Drivers/STM32G4xx_HAL_Driver/Inc/stm32g4xx_ll_exti.h **** }
 920:Drivers/STM32G4xx_HAL_Driver/Inc/stm32g4xx_ll_exti.h **** 
 921:Drivers/STM32G4xx_HAL_Driver/Inc/stm32g4xx_ll_exti.h **** /**
 922:Drivers/STM32G4xx_HAL_Driver/Inc/stm32g4xx_ll_exti.h ****   * @}
 923:Drivers/STM32G4xx_HAL_Driver/Inc/stm32g4xx_ll_exti.h ****   */
 924:Drivers/STM32G4xx_HAL_Driver/Inc/stm32g4xx_ll_exti.h **** 
 925:Drivers/STM32G4xx_HAL_Driver/Inc/stm32g4xx_ll_exti.h **** /** @defgroup EXTI_LL_EF_Falling_Trigger_Management Falling_Trigger_Management
 926:Drivers/STM32G4xx_HAL_Driver/Inc/stm32g4xx_ll_exti.h ****   * @{
 927:Drivers/STM32G4xx_HAL_Driver/Inc/stm32g4xx_ll_exti.h ****   */
 928:Drivers/STM32G4xx_HAL_Driver/Inc/stm32g4xx_ll_exti.h **** 
 929:Drivers/STM32G4xx_HAL_Driver/Inc/stm32g4xx_ll_exti.h **** /**
 930:Drivers/STM32G4xx_HAL_Driver/Inc/stm32g4xx_ll_exti.h ****   * @brief  Enable ExtiLine Falling Edge Trigger for Lines in range 0 to 31
 931:Drivers/STM32G4xx_HAL_Driver/Inc/stm32g4xx_ll_exti.h ****   * @note The configurable wakeup lines are edge-triggered. No glitch must be
 932:Drivers/STM32G4xx_HAL_Driver/Inc/stm32g4xx_ll_exti.h ****   *       generated on these lines. If a falling edge on a configurable interrupt
 933:Drivers/STM32G4xx_HAL_Driver/Inc/stm32g4xx_ll_exti.h ****   *       line occurs during a write operation in the EXTI_FTSR register, the
 934:Drivers/STM32G4xx_HAL_Driver/Inc/stm32g4xx_ll_exti.h ****   *       pending bit is not set.
 935:Drivers/STM32G4xx_HAL_Driver/Inc/stm32g4xx_ll_exti.h ****   *       Rising and falling edge triggers can be set for
 936:Drivers/STM32G4xx_HAL_Driver/Inc/stm32g4xx_ll_exti.h ****   *       the same interrupt line. In this case, both generate a trigger
 937:Drivers/STM32G4xx_HAL_Driver/Inc/stm32g4xx_ll_exti.h ****   *       condition.
 938:Drivers/STM32G4xx_HAL_Driver/Inc/stm32g4xx_ll_exti.h ****   * @rmtoll FTSR1        FTx           LL_EXTI_EnableFallingTrig_0_31
 939:Drivers/STM32G4xx_HAL_Driver/Inc/stm32g4xx_ll_exti.h ****   * @param  ExtiLine This parameter can be a combination of the following values:
 940:Drivers/STM32G4xx_HAL_Driver/Inc/stm32g4xx_ll_exti.h ****   *         @arg @ref LL_EXTI_LINE_0
 941:Drivers/STM32G4xx_HAL_Driver/Inc/stm32g4xx_ll_exti.h ****   *         @arg @ref LL_EXTI_LINE_1
 942:Drivers/STM32G4xx_HAL_Driver/Inc/stm32g4xx_ll_exti.h ****   *         @arg @ref LL_EXTI_LINE_2
 943:Drivers/STM32G4xx_HAL_Driver/Inc/stm32g4xx_ll_exti.h ****   *         @arg @ref LL_EXTI_LINE_3
 944:Drivers/STM32G4xx_HAL_Driver/Inc/stm32g4xx_ll_exti.h ****   *         @arg @ref LL_EXTI_LINE_4
 945:Drivers/STM32G4xx_HAL_Driver/Inc/stm32g4xx_ll_exti.h ****   *         @arg @ref LL_EXTI_LINE_5
 946:Drivers/STM32G4xx_HAL_Driver/Inc/stm32g4xx_ll_exti.h ****   *         @arg @ref LL_EXTI_LINE_6
 947:Drivers/STM32G4xx_HAL_Driver/Inc/stm32g4xx_ll_exti.h ****   *         @arg @ref LL_EXTI_LINE_7
 948:Drivers/STM32G4xx_HAL_Driver/Inc/stm32g4xx_ll_exti.h ****   *         @arg @ref LL_EXTI_LINE_8
 949:Drivers/STM32G4xx_HAL_Driver/Inc/stm32g4xx_ll_exti.h ****   *         @arg @ref LL_EXTI_LINE_9
 950:Drivers/STM32G4xx_HAL_Driver/Inc/stm32g4xx_ll_exti.h ****   *         @arg @ref LL_EXTI_LINE_10
 951:Drivers/STM32G4xx_HAL_Driver/Inc/stm32g4xx_ll_exti.h ****   *         @arg @ref LL_EXTI_LINE_11
 952:Drivers/STM32G4xx_HAL_Driver/Inc/stm32g4xx_ll_exti.h ****   *         @arg @ref LL_EXTI_LINE_12
 953:Drivers/STM32G4xx_HAL_Driver/Inc/stm32g4xx_ll_exti.h ****   *         @arg @ref LL_EXTI_LINE_13
 954:Drivers/STM32G4xx_HAL_Driver/Inc/stm32g4xx_ll_exti.h ****   *         @arg @ref LL_EXTI_LINE_14
 955:Drivers/STM32G4xx_HAL_Driver/Inc/stm32g4xx_ll_exti.h ****   *         @arg @ref LL_EXTI_LINE_15
 956:Drivers/STM32G4xx_HAL_Driver/Inc/stm32g4xx_ll_exti.h ****   *         @arg @ref LL_EXTI_LINE_16
 957:Drivers/STM32G4xx_HAL_Driver/Inc/stm32g4xx_ll_exti.h ****   *         @arg @ref LL_EXTI_LINE_18
 958:Drivers/STM32G4xx_HAL_Driver/Inc/stm32g4xx_ll_exti.h ****   *         @arg @ref LL_EXTI_LINE_19
 959:Drivers/STM32G4xx_HAL_Driver/Inc/stm32g4xx_ll_exti.h ****   *         @arg @ref LL_EXTI_LINE_20
 960:Drivers/STM32G4xx_HAL_Driver/Inc/stm32g4xx_ll_exti.h ****   *         @arg @ref LL_EXTI_LINE_21
 961:Drivers/STM32G4xx_HAL_Driver/Inc/stm32g4xx_ll_exti.h ****   *         @arg @ref LL_EXTI_LINE_22
 962:Drivers/STM32G4xx_HAL_Driver/Inc/stm32g4xx_ll_exti.h ****   *         @arg @ref LL_EXTI_LINE_29
 963:Drivers/STM32G4xx_HAL_Driver/Inc/stm32g4xx_ll_exti.h ****   *         @arg @ref LL_EXTI_LINE_30
 964:Drivers/STM32G4xx_HAL_Driver/Inc/stm32g4xx_ll_exti.h ****   *         @arg @ref LL_EXTI_LINE_31 (*)
 965:Drivers/STM32G4xx_HAL_Driver/Inc/stm32g4xx_ll_exti.h ****   * @note   (*): Available in some devices
 966:Drivers/STM32G4xx_HAL_Driver/Inc/stm32g4xx_ll_exti.h ****   * @note   Please check each device line mapping for EXTI Line availability
 967:Drivers/STM32G4xx_HAL_Driver/Inc/stm32g4xx_ll_exti.h ****   * @retval None
 968:Drivers/STM32G4xx_HAL_Driver/Inc/stm32g4xx_ll_exti.h ****   */
 969:Drivers/STM32G4xx_HAL_Driver/Inc/stm32g4xx_ll_exti.h **** __STATIC_INLINE void LL_EXTI_EnableFallingTrig_0_31(uint32_t ExtiLine)
 970:Drivers/STM32G4xx_HAL_Driver/Inc/stm32g4xx_ll_exti.h **** {
 971:Drivers/STM32G4xx_HAL_Driver/Inc/stm32g4xx_ll_exti.h ****   SET_BIT(EXTI->FTSR1, ExtiLine);
 972:Drivers/STM32G4xx_HAL_Driver/Inc/stm32g4xx_ll_exti.h **** }
ARM GAS  /tmp/ccDOtdDj.s 			page 33


 973:Drivers/STM32G4xx_HAL_Driver/Inc/stm32g4xx_ll_exti.h **** 
 974:Drivers/STM32G4xx_HAL_Driver/Inc/stm32g4xx_ll_exti.h **** /**
 975:Drivers/STM32G4xx_HAL_Driver/Inc/stm32g4xx_ll_exti.h ****   * @brief  Enable ExtiLine Falling Edge Trigger for Lines in range 32 to 63
 976:Drivers/STM32G4xx_HAL_Driver/Inc/stm32g4xx_ll_exti.h ****   * @note The configurable wakeup lines are edge-triggered. No glitch must be
 977:Drivers/STM32G4xx_HAL_Driver/Inc/stm32g4xx_ll_exti.h ****   *       generated on these lines. If a Falling edge on a configurable interrupt
 978:Drivers/STM32G4xx_HAL_Driver/Inc/stm32g4xx_ll_exti.h ****   *       line occurs during a write operation in the EXTI_FTSR register, the
 979:Drivers/STM32G4xx_HAL_Driver/Inc/stm32g4xx_ll_exti.h ****   *       pending bit is not set.
 980:Drivers/STM32G4xx_HAL_Driver/Inc/stm32g4xx_ll_exti.h ****   *       Rising and falling edge triggers can be set for
 981:Drivers/STM32G4xx_HAL_Driver/Inc/stm32g4xx_ll_exti.h ****   *       the same interrupt line. In this case, both generate a trigger
 982:Drivers/STM32G4xx_HAL_Driver/Inc/stm32g4xx_ll_exti.h ****   *       condition.
 983:Drivers/STM32G4xx_HAL_Driver/Inc/stm32g4xx_ll_exti.h ****   * @rmtoll FTSR2        FTx           LL_EXTI_EnableFallingTrig_32_63
 984:Drivers/STM32G4xx_HAL_Driver/Inc/stm32g4xx_ll_exti.h ****   * @param  ExtiLine This parameter can be a combination of the following values:
 985:Drivers/STM32G4xx_HAL_Driver/Inc/stm32g4xx_ll_exti.h ****   *         @arg @ref LL_EXTI_LINE_32 (*)
 986:Drivers/STM32G4xx_HAL_Driver/Inc/stm32g4xx_ll_exti.h ****   *         @arg @ref LL_EXTI_LINE_33 (*)
 987:Drivers/STM32G4xx_HAL_Driver/Inc/stm32g4xx_ll_exti.h ****   *         @arg @ref LL_EXTI_LINE_38
 988:Drivers/STM32G4xx_HAL_Driver/Inc/stm32g4xx_ll_exti.h ****   *         @arg @ref LL_EXTI_LINE_39
 989:Drivers/STM32G4xx_HAL_Driver/Inc/stm32g4xx_ll_exti.h ****   *         @arg @ref LL_EXTI_LINE_40
 990:Drivers/STM32G4xx_HAL_Driver/Inc/stm32g4xx_ll_exti.h ****   *         @arg @ref LL_EXTI_LINE_41
 991:Drivers/STM32G4xx_HAL_Driver/Inc/stm32g4xx_ll_exti.h ****   * @note   (*): Available in some devices
 992:Drivers/STM32G4xx_HAL_Driver/Inc/stm32g4xx_ll_exti.h ****   * @retval None
 993:Drivers/STM32G4xx_HAL_Driver/Inc/stm32g4xx_ll_exti.h ****   */
 994:Drivers/STM32G4xx_HAL_Driver/Inc/stm32g4xx_ll_exti.h **** __STATIC_INLINE void LL_EXTI_EnableFallingTrig_32_63(uint32_t ExtiLine)
 216              		.loc 2 994 22 view .LVU69
 217              	.LBB60:
 995:Drivers/STM32G4xx_HAL_Driver/Inc/stm32g4xx_ll_exti.h **** {
 996:Drivers/STM32G4xx_HAL_Driver/Inc/stm32g4xx_ll_exti.h ****   SET_BIT(EXTI->FTSR2, ExtiLine);
 218              		.loc 2 996 3 view .LVU70
 219 0088 DD6A     		ldr	r5, [r3, #44]
 220 008a 1543     		orrs	r5, r5, r2
 221              	.L57:
 222              		.loc 2 996 3 is_stmt 0 view .LVU71
 223              	.LBE60:
 224              	.LBE59:
 396:Drivers/STM32G4xx_HAL_Driver/Src/stm32g4xx_hal_comp.c ****       {
 225              		.loc 1 396 9 view .LVU72
 226 008c 8142     		cmp	r1, r0
 227              	.LBB61:
 228              	.LBB62:
 997:Drivers/STM32G4xx_HAL_Driver/Inc/stm32g4xx_ll_exti.h **** }
 998:Drivers/STM32G4xx_HAL_Driver/Inc/stm32g4xx_ll_exti.h **** 
 999:Drivers/STM32G4xx_HAL_Driver/Inc/stm32g4xx_ll_exti.h **** /**
1000:Drivers/STM32G4xx_HAL_Driver/Inc/stm32g4xx_ll_exti.h ****   * @brief  Disable ExtiLine Falling Edge Trigger for Lines in range 0 to 31
1001:Drivers/STM32G4xx_HAL_Driver/Inc/stm32g4xx_ll_exti.h ****   * @note The configurable wakeup lines are edge-triggered. No glitch must be
1002:Drivers/STM32G4xx_HAL_Driver/Inc/stm32g4xx_ll_exti.h ****   *       generated on these lines. If a Falling edge on a configurable interrupt
1003:Drivers/STM32G4xx_HAL_Driver/Inc/stm32g4xx_ll_exti.h ****   *       line occurs during a write operation in the EXTI_FTSR register, the
1004:Drivers/STM32G4xx_HAL_Driver/Inc/stm32g4xx_ll_exti.h ****   *       pending bit is not set.
1005:Drivers/STM32G4xx_HAL_Driver/Inc/stm32g4xx_ll_exti.h ****   *       Rising and falling edge triggers can be set for the same interrupt line.
1006:Drivers/STM32G4xx_HAL_Driver/Inc/stm32g4xx_ll_exti.h ****   *       In this case, both generate a trigger condition.
1007:Drivers/STM32G4xx_HAL_Driver/Inc/stm32g4xx_ll_exti.h ****   * @rmtoll FTSR1        FTx           LL_EXTI_DisableFallingTrig_0_31
1008:Drivers/STM32G4xx_HAL_Driver/Inc/stm32g4xx_ll_exti.h ****   * @param  ExtiLine This parameter can be a combination of the following values:
1009:Drivers/STM32G4xx_HAL_Driver/Inc/stm32g4xx_ll_exti.h ****   *         @arg @ref LL_EXTI_LINE_0
1010:Drivers/STM32G4xx_HAL_Driver/Inc/stm32g4xx_ll_exti.h ****   *         @arg @ref LL_EXTI_LINE_1
1011:Drivers/STM32G4xx_HAL_Driver/Inc/stm32g4xx_ll_exti.h ****   *         @arg @ref LL_EXTI_LINE_2
1012:Drivers/STM32G4xx_HAL_Driver/Inc/stm32g4xx_ll_exti.h ****   *         @arg @ref LL_EXTI_LINE_3
1013:Drivers/STM32G4xx_HAL_Driver/Inc/stm32g4xx_ll_exti.h ****   *         @arg @ref LL_EXTI_LINE_4
1014:Drivers/STM32G4xx_HAL_Driver/Inc/stm32g4xx_ll_exti.h ****   *         @arg @ref LL_EXTI_LINE_5
1015:Drivers/STM32G4xx_HAL_Driver/Inc/stm32g4xx_ll_exti.h ****   *         @arg @ref LL_EXTI_LINE_6
ARM GAS  /tmp/ccDOtdDj.s 			page 34


1016:Drivers/STM32G4xx_HAL_Driver/Inc/stm32g4xx_ll_exti.h ****   *         @arg @ref LL_EXTI_LINE_7
1017:Drivers/STM32G4xx_HAL_Driver/Inc/stm32g4xx_ll_exti.h ****   *         @arg @ref LL_EXTI_LINE_8
1018:Drivers/STM32G4xx_HAL_Driver/Inc/stm32g4xx_ll_exti.h ****   *         @arg @ref LL_EXTI_LINE_9
1019:Drivers/STM32G4xx_HAL_Driver/Inc/stm32g4xx_ll_exti.h ****   *         @arg @ref LL_EXTI_LINE_10
1020:Drivers/STM32G4xx_HAL_Driver/Inc/stm32g4xx_ll_exti.h ****   *         @arg @ref LL_EXTI_LINE_11
1021:Drivers/STM32G4xx_HAL_Driver/Inc/stm32g4xx_ll_exti.h ****   *         @arg @ref LL_EXTI_LINE_12
1022:Drivers/STM32G4xx_HAL_Driver/Inc/stm32g4xx_ll_exti.h ****   *         @arg @ref LL_EXTI_LINE_13
1023:Drivers/STM32G4xx_HAL_Driver/Inc/stm32g4xx_ll_exti.h ****   *         @arg @ref LL_EXTI_LINE_14
1024:Drivers/STM32G4xx_HAL_Driver/Inc/stm32g4xx_ll_exti.h ****   *         @arg @ref LL_EXTI_LINE_15
1025:Drivers/STM32G4xx_HAL_Driver/Inc/stm32g4xx_ll_exti.h ****   *         @arg @ref LL_EXTI_LINE_16
1026:Drivers/STM32G4xx_HAL_Driver/Inc/stm32g4xx_ll_exti.h ****   *         @arg @ref LL_EXTI_LINE_18
1027:Drivers/STM32G4xx_HAL_Driver/Inc/stm32g4xx_ll_exti.h ****   *         @arg @ref LL_EXTI_LINE_19
1028:Drivers/STM32G4xx_HAL_Driver/Inc/stm32g4xx_ll_exti.h ****   *         @arg @ref LL_EXTI_LINE_20
1029:Drivers/STM32G4xx_HAL_Driver/Inc/stm32g4xx_ll_exti.h ****   *         @arg @ref LL_EXTI_LINE_21
1030:Drivers/STM32G4xx_HAL_Driver/Inc/stm32g4xx_ll_exti.h ****   *         @arg @ref LL_EXTI_LINE_22
1031:Drivers/STM32G4xx_HAL_Driver/Inc/stm32g4xx_ll_exti.h ****   *         @arg @ref LL_EXTI_LINE_29
1032:Drivers/STM32G4xx_HAL_Driver/Inc/stm32g4xx_ll_exti.h ****   *         @arg @ref LL_EXTI_LINE_30
1033:Drivers/STM32G4xx_HAL_Driver/Inc/stm32g4xx_ll_exti.h ****   *         @arg @ref LL_EXTI_LINE_31 (*)
1034:Drivers/STM32G4xx_HAL_Driver/Inc/stm32g4xx_ll_exti.h ****   * @note   (*): Available in some devices
1035:Drivers/STM32G4xx_HAL_Driver/Inc/stm32g4xx_ll_exti.h ****   * @note   Please check each device line mapping for EXTI Line availability
1036:Drivers/STM32G4xx_HAL_Driver/Inc/stm32g4xx_ll_exti.h ****   * @retval None
1037:Drivers/STM32G4xx_HAL_Driver/Inc/stm32g4xx_ll_exti.h ****   */
1038:Drivers/STM32G4xx_HAL_Driver/Inc/stm32g4xx_ll_exti.h **** __STATIC_INLINE void LL_EXTI_DisableFallingTrig_0_31(uint32_t ExtiLine)
1039:Drivers/STM32G4xx_HAL_Driver/Inc/stm32g4xx_ll_exti.h **** {
1040:Drivers/STM32G4xx_HAL_Driver/Inc/stm32g4xx_ll_exti.h ****   CLEAR_BIT(EXTI->FTSR1, ExtiLine);
1041:Drivers/STM32G4xx_HAL_Driver/Inc/stm32g4xx_ll_exti.h **** }
1042:Drivers/STM32G4xx_HAL_Driver/Inc/stm32g4xx_ll_exti.h **** 
1043:Drivers/STM32G4xx_HAL_Driver/Inc/stm32g4xx_ll_exti.h **** /**
1044:Drivers/STM32G4xx_HAL_Driver/Inc/stm32g4xx_ll_exti.h ****   * @brief  Disable ExtiLine Falling Edge Trigger for Lines in range 32 to 63
1045:Drivers/STM32G4xx_HAL_Driver/Inc/stm32g4xx_ll_exti.h ****   * @note The configurable wakeup lines are edge-triggered. No glitch must be
1046:Drivers/STM32G4xx_HAL_Driver/Inc/stm32g4xx_ll_exti.h ****   *       generated on these lines. If a Falling edge on a configurable interrupt
1047:Drivers/STM32G4xx_HAL_Driver/Inc/stm32g4xx_ll_exti.h ****   *       line occurs during a write operation in the EXTI_FTSR register, the
1048:Drivers/STM32G4xx_HAL_Driver/Inc/stm32g4xx_ll_exti.h ****   *       pending bit is not set.
1049:Drivers/STM32G4xx_HAL_Driver/Inc/stm32g4xx_ll_exti.h ****   *       Rising and falling edge triggers can be set for the same interrupt line.
1050:Drivers/STM32G4xx_HAL_Driver/Inc/stm32g4xx_ll_exti.h ****   *       In this case, both generate a trigger condition.
1051:Drivers/STM32G4xx_HAL_Driver/Inc/stm32g4xx_ll_exti.h ****   * @rmtoll FTSR2        FTx           LL_EXTI_DisableFallingTrig_32_63
1052:Drivers/STM32G4xx_HAL_Driver/Inc/stm32g4xx_ll_exti.h ****   * @param  ExtiLine This parameter can be a combination of the following values:
1053:Drivers/STM32G4xx_HAL_Driver/Inc/stm32g4xx_ll_exti.h ****   *         @arg @ref LL_EXTI_LINE_32 (*)
1054:Drivers/STM32G4xx_HAL_Driver/Inc/stm32g4xx_ll_exti.h ****   *         @arg @ref LL_EXTI_LINE_33 (*)
1055:Drivers/STM32G4xx_HAL_Driver/Inc/stm32g4xx_ll_exti.h ****   *         @arg @ref LL_EXTI_LINE_38
1056:Drivers/STM32G4xx_HAL_Driver/Inc/stm32g4xx_ll_exti.h ****   *         @arg @ref LL_EXTI_LINE_39
1057:Drivers/STM32G4xx_HAL_Driver/Inc/stm32g4xx_ll_exti.h ****   *         @arg @ref LL_EXTI_LINE_40
1058:Drivers/STM32G4xx_HAL_Driver/Inc/stm32g4xx_ll_exti.h ****   *         @arg @ref LL_EXTI_LINE_41
1059:Drivers/STM32G4xx_HAL_Driver/Inc/stm32g4xx_ll_exti.h ****   * @note   (*): Available in some devices
1060:Drivers/STM32G4xx_HAL_Driver/Inc/stm32g4xx_ll_exti.h ****   * @retval None
1061:Drivers/STM32G4xx_HAL_Driver/Inc/stm32g4xx_ll_exti.h ****   */
1062:Drivers/STM32G4xx_HAL_Driver/Inc/stm32g4xx_ll_exti.h **** __STATIC_INLINE void LL_EXTI_DisableFallingTrig_32_63(uint32_t ExtiLine)
1063:Drivers/STM32G4xx_HAL_Driver/Inc/stm32g4xx_ll_exti.h **** {
1064:Drivers/STM32G4xx_HAL_Driver/Inc/stm32g4xx_ll_exti.h ****   CLEAR_BIT(EXTI->FTSR2, ExtiLine);
 229              		.loc 2 1064 3 view .LVU73
 230 008e DD62     		str	r5, [r3, #44]
 231              	.LBE62:
 232              	.LBE61:
 396:Drivers/STM32G4xx_HAL_Driver/Src/stm32g4xx_hal_comp.c ****       {
 233              		.loc 1 396 7 is_stmt 1 view .LVU74
 396:Drivers/STM32G4xx_HAL_Driver/Src/stm32g4xx_hal_comp.c ****       {
 234              		.loc 1 396 9 is_stmt 0 view .LVU75
ARM GAS  /tmp/ccDOtdDj.s 			page 35


 235 0090 02D0     		beq	.L25
 396:Drivers/STM32G4xx_HAL_Driver/Src/stm32g4xx_hal_comp.c ****       {
 236              		.loc 1 396 37 discriminator 1 view .LVU76
 237 0092 5C4D     		ldr	r5, .L63+16
 238 0094 A942     		cmp	r1, r5
 239 0096 56D1     		bne	.L22
 240              	.L25:
 398:Drivers/STM32G4xx_HAL_Driver/Src/stm32g4xx_hal_comp.c ****       }
 241              		.loc 1 398 9 is_stmt 1 view .LVU77
 242              	.LVL11:
 243              	.LBB64:
 244              	.LBI64:
1065:Drivers/STM32G4xx_HAL_Driver/Inc/stm32g4xx_ll_exti.h **** }
1066:Drivers/STM32G4xx_HAL_Driver/Inc/stm32g4xx_ll_exti.h **** 
1067:Drivers/STM32G4xx_HAL_Driver/Inc/stm32g4xx_ll_exti.h **** /**
1068:Drivers/STM32G4xx_HAL_Driver/Inc/stm32g4xx_ll_exti.h ****   * @brief  Check if falling edge trigger is enabled for Lines in range 0 to 31
1069:Drivers/STM32G4xx_HAL_Driver/Inc/stm32g4xx_ll_exti.h ****   * @rmtoll FTSR1        FTx           LL_EXTI_IsEnabledFallingTrig_0_31
1070:Drivers/STM32G4xx_HAL_Driver/Inc/stm32g4xx_ll_exti.h ****   * @param  ExtiLine This parameter can be a combination of the following values:
1071:Drivers/STM32G4xx_HAL_Driver/Inc/stm32g4xx_ll_exti.h ****   *         @arg @ref LL_EXTI_LINE_0
1072:Drivers/STM32G4xx_HAL_Driver/Inc/stm32g4xx_ll_exti.h ****   *         @arg @ref LL_EXTI_LINE_1
1073:Drivers/STM32G4xx_HAL_Driver/Inc/stm32g4xx_ll_exti.h ****   *         @arg @ref LL_EXTI_LINE_2
1074:Drivers/STM32G4xx_HAL_Driver/Inc/stm32g4xx_ll_exti.h ****   *         @arg @ref LL_EXTI_LINE_3
1075:Drivers/STM32G4xx_HAL_Driver/Inc/stm32g4xx_ll_exti.h ****   *         @arg @ref LL_EXTI_LINE_4
1076:Drivers/STM32G4xx_HAL_Driver/Inc/stm32g4xx_ll_exti.h ****   *         @arg @ref LL_EXTI_LINE_5
1077:Drivers/STM32G4xx_HAL_Driver/Inc/stm32g4xx_ll_exti.h ****   *         @arg @ref LL_EXTI_LINE_6
1078:Drivers/STM32G4xx_HAL_Driver/Inc/stm32g4xx_ll_exti.h ****   *         @arg @ref LL_EXTI_LINE_7
1079:Drivers/STM32G4xx_HAL_Driver/Inc/stm32g4xx_ll_exti.h ****   *         @arg @ref LL_EXTI_LINE_8
1080:Drivers/STM32G4xx_HAL_Driver/Inc/stm32g4xx_ll_exti.h ****   *         @arg @ref LL_EXTI_LINE_9
1081:Drivers/STM32G4xx_HAL_Driver/Inc/stm32g4xx_ll_exti.h ****   *         @arg @ref LL_EXTI_LINE_10
1082:Drivers/STM32G4xx_HAL_Driver/Inc/stm32g4xx_ll_exti.h ****   *         @arg @ref LL_EXTI_LINE_11
1083:Drivers/STM32G4xx_HAL_Driver/Inc/stm32g4xx_ll_exti.h ****   *         @arg @ref LL_EXTI_LINE_12
1084:Drivers/STM32G4xx_HAL_Driver/Inc/stm32g4xx_ll_exti.h ****   *         @arg @ref LL_EXTI_LINE_13
1085:Drivers/STM32G4xx_HAL_Driver/Inc/stm32g4xx_ll_exti.h ****   *         @arg @ref LL_EXTI_LINE_14
1086:Drivers/STM32G4xx_HAL_Driver/Inc/stm32g4xx_ll_exti.h ****   *         @arg @ref LL_EXTI_LINE_15
1087:Drivers/STM32G4xx_HAL_Driver/Inc/stm32g4xx_ll_exti.h ****   *         @arg @ref LL_EXTI_LINE_16
1088:Drivers/STM32G4xx_HAL_Driver/Inc/stm32g4xx_ll_exti.h ****   *         @arg @ref LL_EXTI_LINE_18
1089:Drivers/STM32G4xx_HAL_Driver/Inc/stm32g4xx_ll_exti.h ****   *         @arg @ref LL_EXTI_LINE_19
1090:Drivers/STM32G4xx_HAL_Driver/Inc/stm32g4xx_ll_exti.h ****   *         @arg @ref LL_EXTI_LINE_20
1091:Drivers/STM32G4xx_HAL_Driver/Inc/stm32g4xx_ll_exti.h ****   *         @arg @ref LL_EXTI_LINE_21
1092:Drivers/STM32G4xx_HAL_Driver/Inc/stm32g4xx_ll_exti.h ****   *         @arg @ref LL_EXTI_LINE_22
1093:Drivers/STM32G4xx_HAL_Driver/Inc/stm32g4xx_ll_exti.h ****   *         @arg @ref LL_EXTI_LINE_29
1094:Drivers/STM32G4xx_HAL_Driver/Inc/stm32g4xx_ll_exti.h ****   *         @arg @ref LL_EXTI_LINE_30
1095:Drivers/STM32G4xx_HAL_Driver/Inc/stm32g4xx_ll_exti.h ****   *         @arg @ref LL_EXTI_LINE_31 (*)
1096:Drivers/STM32G4xx_HAL_Driver/Inc/stm32g4xx_ll_exti.h ****   * @note   (*): Available in some devices
1097:Drivers/STM32G4xx_HAL_Driver/Inc/stm32g4xx_ll_exti.h ****   * @note   Please check each device line mapping for EXTI Line availability
1098:Drivers/STM32G4xx_HAL_Driver/Inc/stm32g4xx_ll_exti.h ****   * @retval State of bit (1 or 0).
1099:Drivers/STM32G4xx_HAL_Driver/Inc/stm32g4xx_ll_exti.h ****   */
1100:Drivers/STM32G4xx_HAL_Driver/Inc/stm32g4xx_ll_exti.h **** __STATIC_INLINE uint32_t LL_EXTI_IsEnabledFallingTrig_0_31(uint32_t ExtiLine)
1101:Drivers/STM32G4xx_HAL_Driver/Inc/stm32g4xx_ll_exti.h **** {
1102:Drivers/STM32G4xx_HAL_Driver/Inc/stm32g4xx_ll_exti.h ****   return ((READ_BIT(EXTI->FTSR1, ExtiLine) == (ExtiLine)) ? 1UL : 0UL);
1103:Drivers/STM32G4xx_HAL_Driver/Inc/stm32g4xx_ll_exti.h **** }
1104:Drivers/STM32G4xx_HAL_Driver/Inc/stm32g4xx_ll_exti.h **** 
1105:Drivers/STM32G4xx_HAL_Driver/Inc/stm32g4xx_ll_exti.h **** /**
1106:Drivers/STM32G4xx_HAL_Driver/Inc/stm32g4xx_ll_exti.h ****   * @brief  Check if falling edge trigger is enabled for Lines in range 32 to 63
1107:Drivers/STM32G4xx_HAL_Driver/Inc/stm32g4xx_ll_exti.h ****   * @rmtoll FTSR2        FTx           LL_EXTI_IsEnabledFallingTrig_32_63
1108:Drivers/STM32G4xx_HAL_Driver/Inc/stm32g4xx_ll_exti.h ****   * @param  ExtiLine This parameter can be a combination of the following values:
1109:Drivers/STM32G4xx_HAL_Driver/Inc/stm32g4xx_ll_exti.h ****   *         @arg @ref LL_EXTI_LINE_32 (*)
ARM GAS  /tmp/ccDOtdDj.s 			page 36


1110:Drivers/STM32G4xx_HAL_Driver/Inc/stm32g4xx_ll_exti.h ****   *         @arg @ref LL_EXTI_LINE_33 (*)
1111:Drivers/STM32G4xx_HAL_Driver/Inc/stm32g4xx_ll_exti.h ****   *         @arg @ref LL_EXTI_LINE_38
1112:Drivers/STM32G4xx_HAL_Driver/Inc/stm32g4xx_ll_exti.h ****   *         @arg @ref LL_EXTI_LINE_39
1113:Drivers/STM32G4xx_HAL_Driver/Inc/stm32g4xx_ll_exti.h ****   *         @arg @ref LL_EXTI_LINE_40
1114:Drivers/STM32G4xx_HAL_Driver/Inc/stm32g4xx_ll_exti.h ****   *         @arg @ref LL_EXTI_LINE_41
1115:Drivers/STM32G4xx_HAL_Driver/Inc/stm32g4xx_ll_exti.h ****   * @note   (*): Available in some devices
1116:Drivers/STM32G4xx_HAL_Driver/Inc/stm32g4xx_ll_exti.h ****   * @retval State of bit (1 or 0).
1117:Drivers/STM32G4xx_HAL_Driver/Inc/stm32g4xx_ll_exti.h ****   */
1118:Drivers/STM32G4xx_HAL_Driver/Inc/stm32g4xx_ll_exti.h **** __STATIC_INLINE uint32_t LL_EXTI_IsEnabledFallingTrig_32_63(uint32_t ExtiLine)
1119:Drivers/STM32G4xx_HAL_Driver/Inc/stm32g4xx_ll_exti.h **** {
1120:Drivers/STM32G4xx_HAL_Driver/Inc/stm32g4xx_ll_exti.h ****   return ((READ_BIT(EXTI->FTSR2, ExtiLine) == (ExtiLine)) ? 1UL : 0UL);
1121:Drivers/STM32G4xx_HAL_Driver/Inc/stm32g4xx_ll_exti.h **** }
1122:Drivers/STM32G4xx_HAL_Driver/Inc/stm32g4xx_ll_exti.h **** 
1123:Drivers/STM32G4xx_HAL_Driver/Inc/stm32g4xx_ll_exti.h **** /**
1124:Drivers/STM32G4xx_HAL_Driver/Inc/stm32g4xx_ll_exti.h ****   * @}
1125:Drivers/STM32G4xx_HAL_Driver/Inc/stm32g4xx_ll_exti.h ****   */
1126:Drivers/STM32G4xx_HAL_Driver/Inc/stm32g4xx_ll_exti.h **** 
1127:Drivers/STM32G4xx_HAL_Driver/Inc/stm32g4xx_ll_exti.h **** /** @defgroup EXTI_LL_EF_Software_Interrupt_Management Software_Interrupt_Management
1128:Drivers/STM32G4xx_HAL_Driver/Inc/stm32g4xx_ll_exti.h ****   * @{
1129:Drivers/STM32G4xx_HAL_Driver/Inc/stm32g4xx_ll_exti.h ****   */
1130:Drivers/STM32G4xx_HAL_Driver/Inc/stm32g4xx_ll_exti.h **** 
1131:Drivers/STM32G4xx_HAL_Driver/Inc/stm32g4xx_ll_exti.h **** /**
1132:Drivers/STM32G4xx_HAL_Driver/Inc/stm32g4xx_ll_exti.h ****   * @brief  Generate a software Interrupt Event for Lines in range 0 to 31
1133:Drivers/STM32G4xx_HAL_Driver/Inc/stm32g4xx_ll_exti.h ****   * @note If the interrupt is enabled on this line in the EXTI_IMR1, writing a 1 to
1134:Drivers/STM32G4xx_HAL_Driver/Inc/stm32g4xx_ll_exti.h ****   *       this bit when it is at '0' sets the corresponding pending bit in EXTI_PR1
1135:Drivers/STM32G4xx_HAL_Driver/Inc/stm32g4xx_ll_exti.h ****   *       resulting in an interrupt request generation.
1136:Drivers/STM32G4xx_HAL_Driver/Inc/stm32g4xx_ll_exti.h ****   *       This bit is cleared by clearing the corresponding bit in the EXTI_PR1
1137:Drivers/STM32G4xx_HAL_Driver/Inc/stm32g4xx_ll_exti.h ****   *       register (by writing a 1 into the bit)
1138:Drivers/STM32G4xx_HAL_Driver/Inc/stm32g4xx_ll_exti.h ****   * @rmtoll SWIER1       SWIx          LL_EXTI_GenerateSWI_0_31
1139:Drivers/STM32G4xx_HAL_Driver/Inc/stm32g4xx_ll_exti.h ****   * @param  ExtiLine This parameter can be a combination of the following values:
1140:Drivers/STM32G4xx_HAL_Driver/Inc/stm32g4xx_ll_exti.h ****   *         @arg @ref LL_EXTI_LINE_0
1141:Drivers/STM32G4xx_HAL_Driver/Inc/stm32g4xx_ll_exti.h ****   *         @arg @ref LL_EXTI_LINE_1
1142:Drivers/STM32G4xx_HAL_Driver/Inc/stm32g4xx_ll_exti.h ****   *         @arg @ref LL_EXTI_LINE_2
1143:Drivers/STM32G4xx_HAL_Driver/Inc/stm32g4xx_ll_exti.h ****   *         @arg @ref LL_EXTI_LINE_3
1144:Drivers/STM32G4xx_HAL_Driver/Inc/stm32g4xx_ll_exti.h ****   *         @arg @ref LL_EXTI_LINE_4
1145:Drivers/STM32G4xx_HAL_Driver/Inc/stm32g4xx_ll_exti.h ****   *         @arg @ref LL_EXTI_LINE_5
1146:Drivers/STM32G4xx_HAL_Driver/Inc/stm32g4xx_ll_exti.h ****   *         @arg @ref LL_EXTI_LINE_6
1147:Drivers/STM32G4xx_HAL_Driver/Inc/stm32g4xx_ll_exti.h ****   *         @arg @ref LL_EXTI_LINE_7
1148:Drivers/STM32G4xx_HAL_Driver/Inc/stm32g4xx_ll_exti.h ****   *         @arg @ref LL_EXTI_LINE_8
1149:Drivers/STM32G4xx_HAL_Driver/Inc/stm32g4xx_ll_exti.h ****   *         @arg @ref LL_EXTI_LINE_9
1150:Drivers/STM32G4xx_HAL_Driver/Inc/stm32g4xx_ll_exti.h ****   *         @arg @ref LL_EXTI_LINE_10
1151:Drivers/STM32G4xx_HAL_Driver/Inc/stm32g4xx_ll_exti.h ****   *         @arg @ref LL_EXTI_LINE_11
1152:Drivers/STM32G4xx_HAL_Driver/Inc/stm32g4xx_ll_exti.h ****   *         @arg @ref LL_EXTI_LINE_12
1153:Drivers/STM32G4xx_HAL_Driver/Inc/stm32g4xx_ll_exti.h ****   *         @arg @ref LL_EXTI_LINE_13
1154:Drivers/STM32G4xx_HAL_Driver/Inc/stm32g4xx_ll_exti.h ****   *         @arg @ref LL_EXTI_LINE_14
1155:Drivers/STM32G4xx_HAL_Driver/Inc/stm32g4xx_ll_exti.h ****   *         @arg @ref LL_EXTI_LINE_15
1156:Drivers/STM32G4xx_HAL_Driver/Inc/stm32g4xx_ll_exti.h ****   *         @arg @ref LL_EXTI_LINE_16
1157:Drivers/STM32G4xx_HAL_Driver/Inc/stm32g4xx_ll_exti.h ****   *         @arg @ref LL_EXTI_LINE_18
1158:Drivers/STM32G4xx_HAL_Driver/Inc/stm32g4xx_ll_exti.h ****   *         @arg @ref LL_EXTI_LINE_19
1159:Drivers/STM32G4xx_HAL_Driver/Inc/stm32g4xx_ll_exti.h ****   *         @arg @ref LL_EXTI_LINE_20
1160:Drivers/STM32G4xx_HAL_Driver/Inc/stm32g4xx_ll_exti.h ****   *         @arg @ref LL_EXTI_LINE_21
1161:Drivers/STM32G4xx_HAL_Driver/Inc/stm32g4xx_ll_exti.h ****   *         @arg @ref LL_EXTI_LINE_22
1162:Drivers/STM32G4xx_HAL_Driver/Inc/stm32g4xx_ll_exti.h ****   *         @arg @ref LL_EXTI_LINE_29
1163:Drivers/STM32G4xx_HAL_Driver/Inc/stm32g4xx_ll_exti.h ****   *         @arg @ref LL_EXTI_LINE_30
1164:Drivers/STM32G4xx_HAL_Driver/Inc/stm32g4xx_ll_exti.h ****   *         @arg @ref LL_EXTI_LINE_31 (*)
1165:Drivers/STM32G4xx_HAL_Driver/Inc/stm32g4xx_ll_exti.h ****   * @note   (*): Available in some devices
1166:Drivers/STM32G4xx_HAL_Driver/Inc/stm32g4xx_ll_exti.h ****   * @note   Please check each device line mapping for EXTI Line availability
ARM GAS  /tmp/ccDOtdDj.s 			page 37


1167:Drivers/STM32G4xx_HAL_Driver/Inc/stm32g4xx_ll_exti.h ****   * @retval None
1168:Drivers/STM32G4xx_HAL_Driver/Inc/stm32g4xx_ll_exti.h ****   */
1169:Drivers/STM32G4xx_HAL_Driver/Inc/stm32g4xx_ll_exti.h **** __STATIC_INLINE void LL_EXTI_GenerateSWI_0_31(uint32_t ExtiLine)
1170:Drivers/STM32G4xx_HAL_Driver/Inc/stm32g4xx_ll_exti.h **** {
1171:Drivers/STM32G4xx_HAL_Driver/Inc/stm32g4xx_ll_exti.h ****   SET_BIT(EXTI->SWIER1, ExtiLine);
1172:Drivers/STM32G4xx_HAL_Driver/Inc/stm32g4xx_ll_exti.h **** }
1173:Drivers/STM32G4xx_HAL_Driver/Inc/stm32g4xx_ll_exti.h **** 
1174:Drivers/STM32G4xx_HAL_Driver/Inc/stm32g4xx_ll_exti.h **** /**
1175:Drivers/STM32G4xx_HAL_Driver/Inc/stm32g4xx_ll_exti.h ****   * @brief  Generate a software Interrupt Event for Lines in range 32 to 63
1176:Drivers/STM32G4xx_HAL_Driver/Inc/stm32g4xx_ll_exti.h ****   * @note If the interrupt is enabled on this line inthe EXTI_IMR2, writing a 1 to
1177:Drivers/STM32G4xx_HAL_Driver/Inc/stm32g4xx_ll_exti.h ****   *       this bit when it is at '0' sets the corresponding pending bit in EXTI_PR2
1178:Drivers/STM32G4xx_HAL_Driver/Inc/stm32g4xx_ll_exti.h ****   *       resulting in an interrupt request generation.
1179:Drivers/STM32G4xx_HAL_Driver/Inc/stm32g4xx_ll_exti.h ****   *       This bit is cleared by clearing the corresponding bit in the EXTI_PR2
1180:Drivers/STM32G4xx_HAL_Driver/Inc/stm32g4xx_ll_exti.h ****   *       register (by writing a 1 into the bit)
1181:Drivers/STM32G4xx_HAL_Driver/Inc/stm32g4xx_ll_exti.h ****   * @rmtoll SWIER2       SWIx          LL_EXTI_GenerateSWI_32_63
1182:Drivers/STM32G4xx_HAL_Driver/Inc/stm32g4xx_ll_exti.h ****   * @param  ExtiLine This parameter can be a combination of the following values:
1183:Drivers/STM32G4xx_HAL_Driver/Inc/stm32g4xx_ll_exti.h ****   *         @arg @ref LL_EXTI_LINE_32 (*)
1184:Drivers/STM32G4xx_HAL_Driver/Inc/stm32g4xx_ll_exti.h ****   *         @arg @ref LL_EXTI_LINE_33 (*)
1185:Drivers/STM32G4xx_HAL_Driver/Inc/stm32g4xx_ll_exti.h ****   *         @arg @ref LL_EXTI_LINE_38
1186:Drivers/STM32G4xx_HAL_Driver/Inc/stm32g4xx_ll_exti.h ****   *         @arg @ref LL_EXTI_LINE_39
1187:Drivers/STM32G4xx_HAL_Driver/Inc/stm32g4xx_ll_exti.h ****   *         @arg @ref LL_EXTI_LINE_40
1188:Drivers/STM32G4xx_HAL_Driver/Inc/stm32g4xx_ll_exti.h ****   *         @arg @ref LL_EXTI_LINE_41
1189:Drivers/STM32G4xx_HAL_Driver/Inc/stm32g4xx_ll_exti.h ****   * @note   (*): Available in some devices
1190:Drivers/STM32G4xx_HAL_Driver/Inc/stm32g4xx_ll_exti.h ****   * @retval None
1191:Drivers/STM32G4xx_HAL_Driver/Inc/stm32g4xx_ll_exti.h ****   */
1192:Drivers/STM32G4xx_HAL_Driver/Inc/stm32g4xx_ll_exti.h **** __STATIC_INLINE void LL_EXTI_GenerateSWI_32_63(uint32_t ExtiLine)
1193:Drivers/STM32G4xx_HAL_Driver/Inc/stm32g4xx_ll_exti.h **** {
1194:Drivers/STM32G4xx_HAL_Driver/Inc/stm32g4xx_ll_exti.h ****   SET_BIT(EXTI->SWIER2, ExtiLine);
1195:Drivers/STM32G4xx_HAL_Driver/Inc/stm32g4xx_ll_exti.h **** }
1196:Drivers/STM32G4xx_HAL_Driver/Inc/stm32g4xx_ll_exti.h **** 
1197:Drivers/STM32G4xx_HAL_Driver/Inc/stm32g4xx_ll_exti.h **** /**
1198:Drivers/STM32G4xx_HAL_Driver/Inc/stm32g4xx_ll_exti.h ****   * @}
1199:Drivers/STM32G4xx_HAL_Driver/Inc/stm32g4xx_ll_exti.h ****   */
1200:Drivers/STM32G4xx_HAL_Driver/Inc/stm32g4xx_ll_exti.h **** 
1201:Drivers/STM32G4xx_HAL_Driver/Inc/stm32g4xx_ll_exti.h **** /** @defgroup EXTI_LL_EF_Flag_Management Flag_Management
1202:Drivers/STM32G4xx_HAL_Driver/Inc/stm32g4xx_ll_exti.h ****   * @{
1203:Drivers/STM32G4xx_HAL_Driver/Inc/stm32g4xx_ll_exti.h ****   */
1204:Drivers/STM32G4xx_HAL_Driver/Inc/stm32g4xx_ll_exti.h **** 
1205:Drivers/STM32G4xx_HAL_Driver/Inc/stm32g4xx_ll_exti.h **** /**
1206:Drivers/STM32G4xx_HAL_Driver/Inc/stm32g4xx_ll_exti.h ****   * @brief  Check if the ExtLine Flag is set or not for Lines in range 0 to 31
1207:Drivers/STM32G4xx_HAL_Driver/Inc/stm32g4xx_ll_exti.h ****   * @note This bit is set when the selected edge event arrives on the interrupt
1208:Drivers/STM32G4xx_HAL_Driver/Inc/stm32g4xx_ll_exti.h ****   *       line. This bit is cleared by writing a 1 to the bit.
1209:Drivers/STM32G4xx_HAL_Driver/Inc/stm32g4xx_ll_exti.h ****   * @rmtoll PR1          PIFx           LL_EXTI_IsActiveFlag_0_31
1210:Drivers/STM32G4xx_HAL_Driver/Inc/stm32g4xx_ll_exti.h ****   * @param  ExtiLine This parameter can be a combination of the following values:
1211:Drivers/STM32G4xx_HAL_Driver/Inc/stm32g4xx_ll_exti.h ****   *         @arg @ref LL_EXTI_LINE_0
1212:Drivers/STM32G4xx_HAL_Driver/Inc/stm32g4xx_ll_exti.h ****   *         @arg @ref LL_EXTI_LINE_1
1213:Drivers/STM32G4xx_HAL_Driver/Inc/stm32g4xx_ll_exti.h ****   *         @arg @ref LL_EXTI_LINE_2
1214:Drivers/STM32G4xx_HAL_Driver/Inc/stm32g4xx_ll_exti.h ****   *         @arg @ref LL_EXTI_LINE_3
1215:Drivers/STM32G4xx_HAL_Driver/Inc/stm32g4xx_ll_exti.h ****   *         @arg @ref LL_EXTI_LINE_4
1216:Drivers/STM32G4xx_HAL_Driver/Inc/stm32g4xx_ll_exti.h ****   *         @arg @ref LL_EXTI_LINE_5
1217:Drivers/STM32G4xx_HAL_Driver/Inc/stm32g4xx_ll_exti.h ****   *         @arg @ref LL_EXTI_LINE_6
1218:Drivers/STM32G4xx_HAL_Driver/Inc/stm32g4xx_ll_exti.h ****   *         @arg @ref LL_EXTI_LINE_7
1219:Drivers/STM32G4xx_HAL_Driver/Inc/stm32g4xx_ll_exti.h ****   *         @arg @ref LL_EXTI_LINE_8
1220:Drivers/STM32G4xx_HAL_Driver/Inc/stm32g4xx_ll_exti.h ****   *         @arg @ref LL_EXTI_LINE_9
1221:Drivers/STM32G4xx_HAL_Driver/Inc/stm32g4xx_ll_exti.h ****   *         @arg @ref LL_EXTI_LINE_10
1222:Drivers/STM32G4xx_HAL_Driver/Inc/stm32g4xx_ll_exti.h ****   *         @arg @ref LL_EXTI_LINE_11
1223:Drivers/STM32G4xx_HAL_Driver/Inc/stm32g4xx_ll_exti.h ****   *         @arg @ref LL_EXTI_LINE_12
ARM GAS  /tmp/ccDOtdDj.s 			page 38


1224:Drivers/STM32G4xx_HAL_Driver/Inc/stm32g4xx_ll_exti.h ****   *         @arg @ref LL_EXTI_LINE_13
1225:Drivers/STM32G4xx_HAL_Driver/Inc/stm32g4xx_ll_exti.h ****   *         @arg @ref LL_EXTI_LINE_14
1226:Drivers/STM32G4xx_HAL_Driver/Inc/stm32g4xx_ll_exti.h ****   *         @arg @ref LL_EXTI_LINE_15
1227:Drivers/STM32G4xx_HAL_Driver/Inc/stm32g4xx_ll_exti.h ****   *         @arg @ref LL_EXTI_LINE_16
1228:Drivers/STM32G4xx_HAL_Driver/Inc/stm32g4xx_ll_exti.h ****   *         @arg @ref LL_EXTI_LINE_18
1229:Drivers/STM32G4xx_HAL_Driver/Inc/stm32g4xx_ll_exti.h ****   *         @arg @ref LL_EXTI_LINE_19
1230:Drivers/STM32G4xx_HAL_Driver/Inc/stm32g4xx_ll_exti.h ****   *         @arg @ref LL_EXTI_LINE_20
1231:Drivers/STM32G4xx_HAL_Driver/Inc/stm32g4xx_ll_exti.h ****   *         @arg @ref LL_EXTI_LINE_21
1232:Drivers/STM32G4xx_HAL_Driver/Inc/stm32g4xx_ll_exti.h ****   *         @arg @ref LL_EXTI_LINE_22
1233:Drivers/STM32G4xx_HAL_Driver/Inc/stm32g4xx_ll_exti.h ****   *         @arg @ref LL_EXTI_LINE_29
1234:Drivers/STM32G4xx_HAL_Driver/Inc/stm32g4xx_ll_exti.h ****   *         @arg @ref LL_EXTI_LINE_30
1235:Drivers/STM32G4xx_HAL_Driver/Inc/stm32g4xx_ll_exti.h ****   *         @arg @ref LL_EXTI_LINE_31 (*)
1236:Drivers/STM32G4xx_HAL_Driver/Inc/stm32g4xx_ll_exti.h ****   * @note   (*): Available in some devices
1237:Drivers/STM32G4xx_HAL_Driver/Inc/stm32g4xx_ll_exti.h ****   * @note   Please check each device line mapping for EXTI Line availability
1238:Drivers/STM32G4xx_HAL_Driver/Inc/stm32g4xx_ll_exti.h ****   * @retval State of bit (1 or 0).
1239:Drivers/STM32G4xx_HAL_Driver/Inc/stm32g4xx_ll_exti.h ****   */
1240:Drivers/STM32G4xx_HAL_Driver/Inc/stm32g4xx_ll_exti.h **** __STATIC_INLINE uint32_t LL_EXTI_IsActiveFlag_0_31(uint32_t ExtiLine)
1241:Drivers/STM32G4xx_HAL_Driver/Inc/stm32g4xx_ll_exti.h **** {
1242:Drivers/STM32G4xx_HAL_Driver/Inc/stm32g4xx_ll_exti.h ****   return ((READ_BIT(EXTI->PR1, ExtiLine) == (ExtiLine)) ? 1UL : 0UL);
1243:Drivers/STM32G4xx_HAL_Driver/Inc/stm32g4xx_ll_exti.h **** }
1244:Drivers/STM32G4xx_HAL_Driver/Inc/stm32g4xx_ll_exti.h **** 
1245:Drivers/STM32G4xx_HAL_Driver/Inc/stm32g4xx_ll_exti.h **** /**
1246:Drivers/STM32G4xx_HAL_Driver/Inc/stm32g4xx_ll_exti.h ****   * @brief  Check if the ExtLine Flag is set or not for  Lines in range 32 to 63
1247:Drivers/STM32G4xx_HAL_Driver/Inc/stm32g4xx_ll_exti.h ****   * @note This bit is set when the selected edge event arrives on the interrupt
1248:Drivers/STM32G4xx_HAL_Driver/Inc/stm32g4xx_ll_exti.h ****   *       line. This bit is cleared by writing a 1 to the bit.
1249:Drivers/STM32G4xx_HAL_Driver/Inc/stm32g4xx_ll_exti.h ****   * @rmtoll PR2          PIFx           LL_EXTI_IsActiveFlag_32_63
1250:Drivers/STM32G4xx_HAL_Driver/Inc/stm32g4xx_ll_exti.h ****   * @param  ExtiLine This parameter can be a combination of the following values:
1251:Drivers/STM32G4xx_HAL_Driver/Inc/stm32g4xx_ll_exti.h ****   *         @arg @ref LL_EXTI_LINE_32 (*)
1252:Drivers/STM32G4xx_HAL_Driver/Inc/stm32g4xx_ll_exti.h ****   *         @arg @ref LL_EXTI_LINE_33 (*)
1253:Drivers/STM32G4xx_HAL_Driver/Inc/stm32g4xx_ll_exti.h ****   *         @arg @ref LL_EXTI_LINE_38
1254:Drivers/STM32G4xx_HAL_Driver/Inc/stm32g4xx_ll_exti.h ****   *         @arg @ref LL_EXTI_LINE_39
1255:Drivers/STM32G4xx_HAL_Driver/Inc/stm32g4xx_ll_exti.h ****   *         @arg @ref LL_EXTI_LINE_40
1256:Drivers/STM32G4xx_HAL_Driver/Inc/stm32g4xx_ll_exti.h ****   *         @arg @ref LL_EXTI_LINE_41
1257:Drivers/STM32G4xx_HAL_Driver/Inc/stm32g4xx_ll_exti.h ****   * @note   (*): Available in some devices
1258:Drivers/STM32G4xx_HAL_Driver/Inc/stm32g4xx_ll_exti.h ****   * @retval State of bit (1 or 0).
1259:Drivers/STM32G4xx_HAL_Driver/Inc/stm32g4xx_ll_exti.h ****   */
1260:Drivers/STM32G4xx_HAL_Driver/Inc/stm32g4xx_ll_exti.h **** __STATIC_INLINE uint32_t LL_EXTI_IsActiveFlag_32_63(uint32_t ExtiLine)
1261:Drivers/STM32G4xx_HAL_Driver/Inc/stm32g4xx_ll_exti.h **** {
1262:Drivers/STM32G4xx_HAL_Driver/Inc/stm32g4xx_ll_exti.h ****   return ((READ_BIT(EXTI->PR2, ExtiLine) == (ExtiLine)) ? 1UL : 0UL);
1263:Drivers/STM32G4xx_HAL_Driver/Inc/stm32g4xx_ll_exti.h **** }
1264:Drivers/STM32G4xx_HAL_Driver/Inc/stm32g4xx_ll_exti.h **** 
1265:Drivers/STM32G4xx_HAL_Driver/Inc/stm32g4xx_ll_exti.h **** /**
1266:Drivers/STM32G4xx_HAL_Driver/Inc/stm32g4xx_ll_exti.h ****   * @brief  Read ExtLine Combination Flag for Lines in range 0 to 31
1267:Drivers/STM32G4xx_HAL_Driver/Inc/stm32g4xx_ll_exti.h ****   * @note This bit is set when the selected edge event arrives on the interrupt
1268:Drivers/STM32G4xx_HAL_Driver/Inc/stm32g4xx_ll_exti.h ****   *       line. This bit is cleared by writing a 1 to the bit.
1269:Drivers/STM32G4xx_HAL_Driver/Inc/stm32g4xx_ll_exti.h ****   * @rmtoll PR1          PIFx           LL_EXTI_ReadFlag_0_31
1270:Drivers/STM32G4xx_HAL_Driver/Inc/stm32g4xx_ll_exti.h ****   * @param  ExtiLine This parameter can be a combination of the following values:
1271:Drivers/STM32G4xx_HAL_Driver/Inc/stm32g4xx_ll_exti.h ****   *         @arg @ref LL_EXTI_LINE_0
1272:Drivers/STM32G4xx_HAL_Driver/Inc/stm32g4xx_ll_exti.h ****   *         @arg @ref LL_EXTI_LINE_1
1273:Drivers/STM32G4xx_HAL_Driver/Inc/stm32g4xx_ll_exti.h ****   *         @arg @ref LL_EXTI_LINE_2
1274:Drivers/STM32G4xx_HAL_Driver/Inc/stm32g4xx_ll_exti.h ****   *         @arg @ref LL_EXTI_LINE_3
1275:Drivers/STM32G4xx_HAL_Driver/Inc/stm32g4xx_ll_exti.h ****   *         @arg @ref LL_EXTI_LINE_4
1276:Drivers/STM32G4xx_HAL_Driver/Inc/stm32g4xx_ll_exti.h ****   *         @arg @ref LL_EXTI_LINE_5
1277:Drivers/STM32G4xx_HAL_Driver/Inc/stm32g4xx_ll_exti.h ****   *         @arg @ref LL_EXTI_LINE_6
1278:Drivers/STM32G4xx_HAL_Driver/Inc/stm32g4xx_ll_exti.h ****   *         @arg @ref LL_EXTI_LINE_7
1279:Drivers/STM32G4xx_HAL_Driver/Inc/stm32g4xx_ll_exti.h ****   *         @arg @ref LL_EXTI_LINE_8
1280:Drivers/STM32G4xx_HAL_Driver/Inc/stm32g4xx_ll_exti.h ****   *         @arg @ref LL_EXTI_LINE_9
ARM GAS  /tmp/ccDOtdDj.s 			page 39


1281:Drivers/STM32G4xx_HAL_Driver/Inc/stm32g4xx_ll_exti.h ****   *         @arg @ref LL_EXTI_LINE_10
1282:Drivers/STM32G4xx_HAL_Driver/Inc/stm32g4xx_ll_exti.h ****   *         @arg @ref LL_EXTI_LINE_11
1283:Drivers/STM32G4xx_HAL_Driver/Inc/stm32g4xx_ll_exti.h ****   *         @arg @ref LL_EXTI_LINE_12
1284:Drivers/STM32G4xx_HAL_Driver/Inc/stm32g4xx_ll_exti.h ****   *         @arg @ref LL_EXTI_LINE_13
1285:Drivers/STM32G4xx_HAL_Driver/Inc/stm32g4xx_ll_exti.h ****   *         @arg @ref LL_EXTI_LINE_14
1286:Drivers/STM32G4xx_HAL_Driver/Inc/stm32g4xx_ll_exti.h ****   *         @arg @ref LL_EXTI_LINE_15
1287:Drivers/STM32G4xx_HAL_Driver/Inc/stm32g4xx_ll_exti.h ****   *         @arg @ref LL_EXTI_LINE_16
1288:Drivers/STM32G4xx_HAL_Driver/Inc/stm32g4xx_ll_exti.h ****   *         @arg @ref LL_EXTI_LINE_18
1289:Drivers/STM32G4xx_HAL_Driver/Inc/stm32g4xx_ll_exti.h ****   *         @arg @ref LL_EXTI_LINE_19
1290:Drivers/STM32G4xx_HAL_Driver/Inc/stm32g4xx_ll_exti.h ****   *         @arg @ref LL_EXTI_LINE_20
1291:Drivers/STM32G4xx_HAL_Driver/Inc/stm32g4xx_ll_exti.h ****   *         @arg @ref LL_EXTI_LINE_21
1292:Drivers/STM32G4xx_HAL_Driver/Inc/stm32g4xx_ll_exti.h ****   *         @arg @ref LL_EXTI_LINE_22
1293:Drivers/STM32G4xx_HAL_Driver/Inc/stm32g4xx_ll_exti.h ****   *         @arg @ref LL_EXTI_LINE_29
1294:Drivers/STM32G4xx_HAL_Driver/Inc/stm32g4xx_ll_exti.h ****   *         @arg @ref LL_EXTI_LINE_30
1295:Drivers/STM32G4xx_HAL_Driver/Inc/stm32g4xx_ll_exti.h ****   *         @arg @ref LL_EXTI_LINE_31 (*)
1296:Drivers/STM32G4xx_HAL_Driver/Inc/stm32g4xx_ll_exti.h ****   * @note   (*): Available in some devices
1297:Drivers/STM32G4xx_HAL_Driver/Inc/stm32g4xx_ll_exti.h ****   * @note   Please check each device line mapping for EXTI Line availability
1298:Drivers/STM32G4xx_HAL_Driver/Inc/stm32g4xx_ll_exti.h ****   * @retval @note This bit is set when the selected edge event arrives on the interrupt
1299:Drivers/STM32G4xx_HAL_Driver/Inc/stm32g4xx_ll_exti.h ****   */
1300:Drivers/STM32G4xx_HAL_Driver/Inc/stm32g4xx_ll_exti.h **** __STATIC_INLINE uint32_t LL_EXTI_ReadFlag_0_31(uint32_t ExtiLine)
1301:Drivers/STM32G4xx_HAL_Driver/Inc/stm32g4xx_ll_exti.h **** {
1302:Drivers/STM32G4xx_HAL_Driver/Inc/stm32g4xx_ll_exti.h ****   return (uint32_t)(READ_BIT(EXTI->PR1, ExtiLine));
1303:Drivers/STM32G4xx_HAL_Driver/Inc/stm32g4xx_ll_exti.h **** }
1304:Drivers/STM32G4xx_HAL_Driver/Inc/stm32g4xx_ll_exti.h **** 
1305:Drivers/STM32G4xx_HAL_Driver/Inc/stm32g4xx_ll_exti.h **** /**
1306:Drivers/STM32G4xx_HAL_Driver/Inc/stm32g4xx_ll_exti.h ****   * @brief  Read ExtLine Combination Flag for  Lines in range 32 to 63
1307:Drivers/STM32G4xx_HAL_Driver/Inc/stm32g4xx_ll_exti.h ****   * @note This bit is set when the selected edge event arrives on the interrupt
1308:Drivers/STM32G4xx_HAL_Driver/Inc/stm32g4xx_ll_exti.h ****   *       line. This bit is cleared by writing a 1 to the bit.
1309:Drivers/STM32G4xx_HAL_Driver/Inc/stm32g4xx_ll_exti.h ****   * @rmtoll PR2          PIFx           LL_EXTI_ReadFlag_32_63
1310:Drivers/STM32G4xx_HAL_Driver/Inc/stm32g4xx_ll_exti.h ****   * @param  ExtiLine This parameter can be a combination of the following values:
1311:Drivers/STM32G4xx_HAL_Driver/Inc/stm32g4xx_ll_exti.h ****   *         @arg @ref LL_EXTI_LINE_32 (*)
1312:Drivers/STM32G4xx_HAL_Driver/Inc/stm32g4xx_ll_exti.h ****   *         @arg @ref LL_EXTI_LINE_33 (*)
1313:Drivers/STM32G4xx_HAL_Driver/Inc/stm32g4xx_ll_exti.h ****   *         @arg @ref LL_EXTI_LINE_38
1314:Drivers/STM32G4xx_HAL_Driver/Inc/stm32g4xx_ll_exti.h ****   *         @arg @ref LL_EXTI_LINE_39
1315:Drivers/STM32G4xx_HAL_Driver/Inc/stm32g4xx_ll_exti.h ****   *         @arg @ref LL_EXTI_LINE_40
1316:Drivers/STM32G4xx_HAL_Driver/Inc/stm32g4xx_ll_exti.h ****   *         @arg @ref LL_EXTI_LINE_41
1317:Drivers/STM32G4xx_HAL_Driver/Inc/stm32g4xx_ll_exti.h ****   * @note   (*): Available in some devices
1318:Drivers/STM32G4xx_HAL_Driver/Inc/stm32g4xx_ll_exti.h ****   * @retval @note This bit is set when the selected edge event arrives on the interrupt
1319:Drivers/STM32G4xx_HAL_Driver/Inc/stm32g4xx_ll_exti.h ****   */
1320:Drivers/STM32G4xx_HAL_Driver/Inc/stm32g4xx_ll_exti.h **** __STATIC_INLINE uint32_t LL_EXTI_ReadFlag_32_63(uint32_t ExtiLine)
1321:Drivers/STM32G4xx_HAL_Driver/Inc/stm32g4xx_ll_exti.h **** {
1322:Drivers/STM32G4xx_HAL_Driver/Inc/stm32g4xx_ll_exti.h ****   return (uint32_t)(READ_BIT(EXTI->PR2, ExtiLine));
1323:Drivers/STM32G4xx_HAL_Driver/Inc/stm32g4xx_ll_exti.h **** }
1324:Drivers/STM32G4xx_HAL_Driver/Inc/stm32g4xx_ll_exti.h **** 
1325:Drivers/STM32G4xx_HAL_Driver/Inc/stm32g4xx_ll_exti.h **** /**
1326:Drivers/STM32G4xx_HAL_Driver/Inc/stm32g4xx_ll_exti.h ****   * @brief  Clear ExtLine Flags  for Lines in range 0 to 31
1327:Drivers/STM32G4xx_HAL_Driver/Inc/stm32g4xx_ll_exti.h ****   * @note This bit is set when the selected edge event arrives on the interrupt
1328:Drivers/STM32G4xx_HAL_Driver/Inc/stm32g4xx_ll_exti.h ****   *       line. This bit is cleared by writing a 1 to the bit.
1329:Drivers/STM32G4xx_HAL_Driver/Inc/stm32g4xx_ll_exti.h ****   * @rmtoll PR1          PIFx           LL_EXTI_ClearFlag_0_31
1330:Drivers/STM32G4xx_HAL_Driver/Inc/stm32g4xx_ll_exti.h ****   * @param  ExtiLine This parameter can be a combination of the following values:
1331:Drivers/STM32G4xx_HAL_Driver/Inc/stm32g4xx_ll_exti.h ****   *         @arg @ref LL_EXTI_LINE_0
1332:Drivers/STM32G4xx_HAL_Driver/Inc/stm32g4xx_ll_exti.h ****   *         @arg @ref LL_EXTI_LINE_1
1333:Drivers/STM32G4xx_HAL_Driver/Inc/stm32g4xx_ll_exti.h ****   *         @arg @ref LL_EXTI_LINE_2
1334:Drivers/STM32G4xx_HAL_Driver/Inc/stm32g4xx_ll_exti.h ****   *         @arg @ref LL_EXTI_LINE_3
1335:Drivers/STM32G4xx_HAL_Driver/Inc/stm32g4xx_ll_exti.h ****   *         @arg @ref LL_EXTI_LINE_4
1336:Drivers/STM32G4xx_HAL_Driver/Inc/stm32g4xx_ll_exti.h ****   *         @arg @ref LL_EXTI_LINE_5
1337:Drivers/STM32G4xx_HAL_Driver/Inc/stm32g4xx_ll_exti.h ****   *         @arg @ref LL_EXTI_LINE_6
ARM GAS  /tmp/ccDOtdDj.s 			page 40


1338:Drivers/STM32G4xx_HAL_Driver/Inc/stm32g4xx_ll_exti.h ****   *         @arg @ref LL_EXTI_LINE_7
1339:Drivers/STM32G4xx_HAL_Driver/Inc/stm32g4xx_ll_exti.h ****   *         @arg @ref LL_EXTI_LINE_8
1340:Drivers/STM32G4xx_HAL_Driver/Inc/stm32g4xx_ll_exti.h ****   *         @arg @ref LL_EXTI_LINE_9
1341:Drivers/STM32G4xx_HAL_Driver/Inc/stm32g4xx_ll_exti.h ****   *         @arg @ref LL_EXTI_LINE_10
1342:Drivers/STM32G4xx_HAL_Driver/Inc/stm32g4xx_ll_exti.h ****   *         @arg @ref LL_EXTI_LINE_11
1343:Drivers/STM32G4xx_HAL_Driver/Inc/stm32g4xx_ll_exti.h ****   *         @arg @ref LL_EXTI_LINE_12
1344:Drivers/STM32G4xx_HAL_Driver/Inc/stm32g4xx_ll_exti.h ****   *         @arg @ref LL_EXTI_LINE_13
1345:Drivers/STM32G4xx_HAL_Driver/Inc/stm32g4xx_ll_exti.h ****   *         @arg @ref LL_EXTI_LINE_14
1346:Drivers/STM32G4xx_HAL_Driver/Inc/stm32g4xx_ll_exti.h ****   *         @arg @ref LL_EXTI_LINE_15
1347:Drivers/STM32G4xx_HAL_Driver/Inc/stm32g4xx_ll_exti.h ****   *         @arg @ref LL_EXTI_LINE_16
1348:Drivers/STM32G4xx_HAL_Driver/Inc/stm32g4xx_ll_exti.h ****   *         @arg @ref LL_EXTI_LINE_18
1349:Drivers/STM32G4xx_HAL_Driver/Inc/stm32g4xx_ll_exti.h ****   *         @arg @ref LL_EXTI_LINE_19
1350:Drivers/STM32G4xx_HAL_Driver/Inc/stm32g4xx_ll_exti.h ****   *         @arg @ref LL_EXTI_LINE_20
1351:Drivers/STM32G4xx_HAL_Driver/Inc/stm32g4xx_ll_exti.h ****   *         @arg @ref LL_EXTI_LINE_21
1352:Drivers/STM32G4xx_HAL_Driver/Inc/stm32g4xx_ll_exti.h ****   *         @arg @ref LL_EXTI_LINE_22
1353:Drivers/STM32G4xx_HAL_Driver/Inc/stm32g4xx_ll_exti.h ****   *         @arg @ref LL_EXTI_LINE_29
1354:Drivers/STM32G4xx_HAL_Driver/Inc/stm32g4xx_ll_exti.h ****   *         @arg @ref LL_EXTI_LINE_30
1355:Drivers/STM32G4xx_HAL_Driver/Inc/stm32g4xx_ll_exti.h ****   *         @arg @ref LL_EXTI_LINE_31 (*)
1356:Drivers/STM32G4xx_HAL_Driver/Inc/stm32g4xx_ll_exti.h ****   * @note   (*): Available in some devices
1357:Drivers/STM32G4xx_HAL_Driver/Inc/stm32g4xx_ll_exti.h ****   * @note   Please check each device line mapping for EXTI Line availability
1358:Drivers/STM32G4xx_HAL_Driver/Inc/stm32g4xx_ll_exti.h ****   * @retval None
1359:Drivers/STM32G4xx_HAL_Driver/Inc/stm32g4xx_ll_exti.h ****   */
1360:Drivers/STM32G4xx_HAL_Driver/Inc/stm32g4xx_ll_exti.h **** __STATIC_INLINE void LL_EXTI_ClearFlag_0_31(uint32_t ExtiLine)
1361:Drivers/STM32G4xx_HAL_Driver/Inc/stm32g4xx_ll_exti.h **** {
1362:Drivers/STM32G4xx_HAL_Driver/Inc/stm32g4xx_ll_exti.h ****   WRITE_REG(EXTI->PR1, ExtiLine);
1363:Drivers/STM32G4xx_HAL_Driver/Inc/stm32g4xx_ll_exti.h **** }
1364:Drivers/STM32G4xx_HAL_Driver/Inc/stm32g4xx_ll_exti.h **** 
1365:Drivers/STM32G4xx_HAL_Driver/Inc/stm32g4xx_ll_exti.h **** /**
1366:Drivers/STM32G4xx_HAL_Driver/Inc/stm32g4xx_ll_exti.h ****   * @brief  Clear ExtLine Flags for  Lines in range 32 to 63
1367:Drivers/STM32G4xx_HAL_Driver/Inc/stm32g4xx_ll_exti.h ****   * @note This bit is set when the selected edge event arrives on the interrupt
1368:Drivers/STM32G4xx_HAL_Driver/Inc/stm32g4xx_ll_exti.h ****   *       line. This bit is cleared by writing a 1 to the bit.
1369:Drivers/STM32G4xx_HAL_Driver/Inc/stm32g4xx_ll_exti.h ****   * @rmtoll PR2          PIFx           LL_EXTI_ClearFlag_32_63
1370:Drivers/STM32G4xx_HAL_Driver/Inc/stm32g4xx_ll_exti.h ****   * @param  ExtiLine This parameter can be a combination of the following values:
1371:Drivers/STM32G4xx_HAL_Driver/Inc/stm32g4xx_ll_exti.h ****   *         @arg @ref LL_EXTI_LINE_32 (*)
1372:Drivers/STM32G4xx_HAL_Driver/Inc/stm32g4xx_ll_exti.h ****   *         @arg @ref LL_EXTI_LINE_33 (*)
1373:Drivers/STM32G4xx_HAL_Driver/Inc/stm32g4xx_ll_exti.h ****   *         @arg @ref LL_EXTI_LINE_38
1374:Drivers/STM32G4xx_HAL_Driver/Inc/stm32g4xx_ll_exti.h ****   *         @arg @ref LL_EXTI_LINE_39
1375:Drivers/STM32G4xx_HAL_Driver/Inc/stm32g4xx_ll_exti.h ****   *         @arg @ref LL_EXTI_LINE_40
1376:Drivers/STM32G4xx_HAL_Driver/Inc/stm32g4xx_ll_exti.h ****   *         @arg @ref LL_EXTI_LINE_41
1377:Drivers/STM32G4xx_HAL_Driver/Inc/stm32g4xx_ll_exti.h ****   * @note   (*): Available in some devices
1378:Drivers/STM32G4xx_HAL_Driver/Inc/stm32g4xx_ll_exti.h ****   * @retval None
1379:Drivers/STM32G4xx_HAL_Driver/Inc/stm32g4xx_ll_exti.h ****   */
1380:Drivers/STM32G4xx_HAL_Driver/Inc/stm32g4xx_ll_exti.h **** __STATIC_INLINE void LL_EXTI_ClearFlag_32_63(uint32_t ExtiLine)
 245              		.loc 2 1380 22 view .LVU78
 246              	.LBB65:
1381:Drivers/STM32G4xx_HAL_Driver/Inc/stm32g4xx_ll_exti.h **** {
1382:Drivers/STM32G4xx_HAL_Driver/Inc/stm32g4xx_ll_exti.h ****   WRITE_REG(EXTI->PR2, ExtiLine);
 247              		.loc 2 1382 3 view .LVU79
 248 0098 5A63     		str	r2, [r3, #52]
 249              	.L43:
 250              		.loc 2 1382 3 is_stmt 0 view .LVU80
 251              	.LBE65:
 252              	.LBE64:
 409:Drivers/STM32G4xx_HAL_Driver/Src/stm32g4xx_hal_comp.c ****       {
 253              		.loc 1 409 7 is_stmt 1 view .LVU81
 409:Drivers/STM32G4xx_HAL_Driver/Src/stm32g4xx_hal_comp.c ****       {
 254              		.loc 1 409 9 is_stmt 0 view .LVU82
ARM GAS  /tmp/ccDOtdDj.s 			page 41


 255 009a B707     		lsls	r7, r6, #30
 256 009c 66D5     		bpl	.L26
 412:Drivers/STM32G4xx_HAL_Driver/Src/stm32g4xx_hal_comp.c ****         {
 257              		.loc 1 412 9 is_stmt 1 view .LVU83
 412:Drivers/STM32G4xx_HAL_Driver/Src/stm32g4xx_hal_comp.c ****         {
 258              		.loc 1 412 11 is_stmt 0 view .LVU84
 259 009e 8142     		cmp	r1, r0
 260 00a0 02D0     		beq	.L27
 412:Drivers/STM32G4xx_HAL_Driver/Src/stm32g4xx_hal_comp.c ****         {
 261              		.loc 1 412 39 discriminator 1 view .LVU85
 262 00a2 584D     		ldr	r5, .L63+16
 263 00a4 A942     		cmp	r1, r5
 264 00a6 5DD1     		bne	.L28
 265              	.L27:
 414:Drivers/STM32G4xx_HAL_Driver/Src/stm32g4xx_hal_comp.c ****         }
 266              		.loc 1 414 11 is_stmt 1 view .LVU86
 267              	.LVL12:
 268              	.LBB66:
 269              	.LBI66:
 570:Drivers/STM32G4xx_HAL_Driver/Inc/stm32g4xx_ll_exti.h **** {
 270              		.loc 2 570 22 view .LVU87
 271              	.LBB67:
 572:Drivers/STM32G4xx_HAL_Driver/Inc/stm32g4xx_ll_exti.h **** }
 272              		.loc 2 572 3 view .LVU88
 273 00a8 5D6A     		ldr	r5, [r3, #36]
 274 00aa 1543     		orrs	r5, r5, r2
 275              	.L58:
 572:Drivers/STM32G4xx_HAL_Driver/Inc/stm32g4xx_ll_exti.h **** }
 276              		.loc 2 572 3 is_stmt 0 view .LVU89
 277              	.LBE67:
 278              	.LBE66:
 279              	.LBB68:
 280              	.LBB69:
 642:Drivers/STM32G4xx_HAL_Driver/Inc/stm32g4xx_ll_exti.h **** }
 281              		.loc 2 642 3 view .LVU90
 282 00ac 5D62     		str	r5, [r3, #36]
 283              	.L29:
 284              	.LBE69:
 285              	.LBE68:
 441:Drivers/STM32G4xx_HAL_Driver/Src/stm32g4xx_hal_comp.c ****       {
 286              		.loc 1 441 7 is_stmt 1 view .LVU91
 441:Drivers/STM32G4xx_HAL_Driver/Src/stm32g4xx_hal_comp.c ****       {
 287              		.loc 1 441 9 is_stmt 0 view .LVU92
 288 00ae F507     		lsls	r5, r6, #31
 289 00b0 6DD5     		bpl	.L32
 444:Drivers/STM32G4xx_HAL_Driver/Src/stm32g4xx_hal_comp.c ****         {
 290              		.loc 1 444 9 is_stmt 1 view .LVU93
 444:Drivers/STM32G4xx_HAL_Driver/Src/stm32g4xx_hal_comp.c ****         {
 291              		.loc 1 444 11 is_stmt 0 view .LVU94
 292 00b2 8142     		cmp	r1, r0
 293 00b4 02D0     		beq	.L33
 444:Drivers/STM32G4xx_HAL_Driver/Src/stm32g4xx_hal_comp.c ****         {
 294              		.loc 1 444 39 discriminator 1 view .LVU95
 295 00b6 5348     		ldr	r0, .L63+16
 296 00b8 8142     		cmp	r1, r0
 297 00ba 64D1     		bne	.L34
 298              	.L33:
ARM GAS  /tmp/ccDOtdDj.s 			page 42


 446:Drivers/STM32G4xx_HAL_Driver/Src/stm32g4xx_hal_comp.c ****         }
 299              		.loc 1 446 11 is_stmt 1 view .LVU96
 300              	.LVL13:
 301              	.LBB71:
 302              	.LBI71:
 339:Drivers/STM32G4xx_HAL_Driver/Inc/stm32g4xx_ll_exti.h **** {
 303              		.loc 2 339 22 view .LVU97
 304              	.LBB72:
 341:Drivers/STM32G4xx_HAL_Driver/Inc/stm32g4xx_ll_exti.h **** }
 305              		.loc 2 341 3 view .LVU98
 306 00bc 196A     		ldr	r1, [r3, #32]
 307 00be 0A43     		orrs	r2, r2, r1
 308              	.L61:
 341:Drivers/STM32G4xx_HAL_Driver/Inc/stm32g4xx_ll_exti.h **** }
 309              		.loc 2 341 3 is_stmt 0 view .LVU99
 310              	.LBE72:
 311              	.LBE71:
 312              	.LBB73:
 313              	.LBB74:
 417:Drivers/STM32G4xx_HAL_Driver/Inc/stm32g4xx_ll_exti.h **** }
 314              		.loc 2 417 3 view .LVU100
 315 00c0 1A62     		str	r2, [r3, #32]
 418:Drivers/STM32G4xx_HAL_Driver/Inc/stm32g4xx_ll_exti.h **** 
 316              		.loc 2 418 1 view .LVU101
 317 00c2 6EE0     		b	.L35
 318              	.LVL14:
 319              	.L5:
 418:Drivers/STM32G4xx_HAL_Driver/Inc/stm32g4xx_ll_exti.h **** 
 320              		.loc 2 418 1 view .LVU102
 321              	.LBE74:
 322              	.LBE73:
 310:Drivers/STM32G4xx_HAL_Driver/Src/stm32g4xx_hal_comp.c ****         (comp_voltage_scaler_initialized == 0UL)               )
 323              		.loc 1 310 66 discriminator 1 view .LVU103
 324 00c4 0302     		lsls	r3, r0, #8
 325 00c6 C2D4     		bmi	.L8
 317:Drivers/STM32G4xx_HAL_Driver/Src/stm32g4xx_hal_comp.c ****       while(wait_loop_index != 0UL)
 326              		.loc 1 317 7 is_stmt 1 view .LVU104
 317:Drivers/STM32G4xx_HAL_Driver/Src/stm32g4xx_hal_comp.c ****       while(wait_loop_index != 0UL)
 327              		.loc 1 317 88 is_stmt 0 view .LVU105
 328 00c8 4F4B     		ldr	r3, .L63+20
 329 00ca 504A     		ldr	r2, .L63+24
 330 00cc 1B68     		ldr	r3, [r3]
 331 00ce B3FBF2F2 		udiv	r2, r3, r2
 317:Drivers/STM32G4xx_HAL_Driver/Src/stm32g4xx_hal_comp.c ****       while(wait_loop_index != 0UL)
 332              		.loc 1 317 69 view .LVU106
 333 00d2 1423     		movs	r3, #20
 334 00d4 5343     		muls	r3, r2, r3
 335              	.L54:
 320:Drivers/STM32G4xx_HAL_Driver/Src/stm32g4xx_hal_comp.c ****       }
 336              		.loc 1 320 24 view .LVU107
 337 00d6 0193     		str	r3, [sp, #4]
 318:Drivers/STM32G4xx_HAL_Driver/Src/stm32g4xx_hal_comp.c ****       {
 338              		.loc 1 318 12 is_stmt 1 view .LVU108
 318:Drivers/STM32G4xx_HAL_Driver/Src/stm32g4xx_hal_comp.c ****       {
 339              		.loc 1 318 29 is_stmt 0 view .LVU109
 340 00d8 019B     		ldr	r3, [sp, #4]
 318:Drivers/STM32G4xx_HAL_Driver/Src/stm32g4xx_hal_comp.c ****       {
ARM GAS  /tmp/ccDOtdDj.s 			page 43


 341              		.loc 1 318 12 view .LVU110
 342 00da 002B     		cmp	r3, #0
 343 00dc B7D0     		beq	.L8
 320:Drivers/STM32G4xx_HAL_Driver/Src/stm32g4xx_hal_comp.c ****       }
 344              		.loc 1 320 9 is_stmt 1 view .LVU111
 320:Drivers/STM32G4xx_HAL_Driver/Src/stm32g4xx_hal_comp.c ****       }
 345              		.loc 1 320 24 is_stmt 0 view .LVU112
 346 00de 019B     		ldr	r3, [sp, #4]
 347 00e0 013B     		subs	r3, r3, #1
 348 00e2 F8E7     		b	.L54
 349              	.LVL15:
 350              	.L6:
 325:Drivers/STM32G4xx_HAL_Driver/Src/stm32g4xx_hal_comp.c **** 
 351              		.loc 1 325 17 discriminator 1 view .LVU113
 352 00e4 4A4B     		ldr	r3, .L63+28
 353 00e6 9942     		cmp	r1, r3
 354 00e8 0DD0     		beq	.L46
 325:Drivers/STM32G4xx_HAL_Driver/Src/stm32g4xx_hal_comp.c **** 
 355              		.loc 1 325 17 discriminator 3 view .LVU114
 356 00ea 0433     		adds	r3, r3, #4
 357 00ec 9942     		cmp	r1, r3
 358 00ee 0DD0     		beq	.L47
 325:Drivers/STM32G4xx_HAL_Driver/Src/stm32g4xx_hal_comp.c **** 
 359              		.loc 1 325 17 discriminator 5 view .LVU115
 360 00f0 0433     		adds	r3, r3, #4
 361 00f2 9942     		cmp	r1, r3
 362 00f4 0DD0     		beq	.L48
 325:Drivers/STM32G4xx_HAL_Driver/Src/stm32g4xx_hal_comp.c **** 
 363              		.loc 1 325 17 discriminator 7 view .LVU116
 364 00f6 0433     		adds	r3, r3, #4
 365 00f8 9942     		cmp	r1, r3
 366 00fa 0DD0     		beq	.L49
 325:Drivers/STM32G4xx_HAL_Driver/Src/stm32g4xx_hal_comp.c **** 
 367              		.loc 1 325 17 discriminator 9 view .LVU117
 368 00fc 8142     		cmp	r1, r0
 369 00fe 0CBF     		ite	eq
 370 0100 0122     		moveq	r2, #1
 371 0102 0222     		movne	r2, #2
 372 0104 A9E7     		b	.L7
 373              	.L46:
 325:Drivers/STM32G4xx_HAL_Driver/Src/stm32g4xx_hal_comp.c **** 
 374              		.loc 1 325 17 view .LVU118
 375 0106 4FF48002 		mov	r2, #4194304
 376 010a A6E7     		b	.L7
 377              	.L47:
 378 010c 4FF00052 		mov	r2, #536870912
 379 0110 A3E7     		b	.L7
 380              	.L48:
 381 0112 4FF08042 		mov	r2, #1073741824
 382 0116 A0E7     		b	.L7
 383              	.L49:
 384 0118 4FF00042 		mov	r2, #-2147483648
 385 011c 9DE7     		b	.L7
 386              	.L14:
 340:Drivers/STM32G4xx_HAL_Driver/Src/stm32g4xx_hal_comp.c ****         }
 387              		.loc 1 340 11 is_stmt 1 view .LVU119
 388              	.LVL16:
ARM GAS  /tmp/ccDOtdDj.s 			page 44


 389              	.LBB76:
 390              	.LBI76:
 764:Drivers/STM32G4xx_HAL_Driver/Inc/stm32g4xx_ll_exti.h **** {
 391              		.loc 2 764 22 view .LVU120
 392              	.LBB77:
 766:Drivers/STM32G4xx_HAL_Driver/Inc/stm32g4xx_ll_exti.h **** 
 393              		.loc 2 766 3 view .LVU121
 394 011e 9D68     		ldr	r5, [r3, #8]
 395 0120 1543     		orrs	r5, r5, r2
 396              	.L56:
 766:Drivers/STM32G4xx_HAL_Driver/Inc/stm32g4xx_ll_exti.h **** 
 397              		.loc 2 766 3 is_stmt 0 view .LVU122
 398              	.LBE77:
 399              	.LBE76:
 400              	.LBB78:
 401              	.LBB79:
 836:Drivers/STM32G4xx_HAL_Driver/Inc/stm32g4xx_ll_exti.h **** 
 402              		.loc 2 836 3 view .LVU123
 403 0122 9D60     		str	r5, [r3, #8]
 404              	.LVL17:
 838:Drivers/STM32G4xx_HAL_Driver/Inc/stm32g4xx_ll_exti.h **** 
 405              		.loc 2 838 1 view .LVU124
 406 0124 A9E7     		b	.L15
 407              	.LVL18:
 408              	.L12:
 838:Drivers/STM32G4xx_HAL_Driver/Inc/stm32g4xx_ll_exti.h **** 
 409              		.loc 2 838 1 view .LVU125
 410              	.LBE79:
 411              	.LBE78:
 349:Drivers/STM32G4xx_HAL_Driver/Src/stm32g4xx_hal_comp.c ****         {
 412              		.loc 1 349 9 is_stmt 1 view .LVU126
 349:Drivers/STM32G4xx_HAL_Driver/Src/stm32g4xx_hal_comp.c ****         {
 413              		.loc 1 349 11 is_stmt 0 view .LVU127
 414 0126 8142     		cmp	r1, r0
 415 0128 6FEA0205 		mvn	r5, r2
 416 012c 02D0     		beq	.L16
 349:Drivers/STM32G4xx_HAL_Driver/Src/stm32g4xx_hal_comp.c ****         {
 417              		.loc 1 349 39 discriminator 1 view .LVU128
 418 012e 354F     		ldr	r7, .L63+16
 419 0130 B942     		cmp	r1, r7
 420 0132 02D1     		bne	.L17
 421              	.L16:
 351:Drivers/STM32G4xx_HAL_Driver/Src/stm32g4xx_hal_comp.c ****         }
 422              		.loc 1 351 11 is_stmt 1 view .LVU129
 423              	.LVL19:
 424              	.LBB81:
 425              	.LBI56:
 860:Drivers/STM32G4xx_HAL_Driver/Inc/stm32g4xx_ll_exti.h **** {
 426              		.loc 2 860 22 view .LVU130
 427              	.LBB58:
 862:Drivers/STM32G4xx_HAL_Driver/Inc/stm32g4xx_ll_exti.h **** }
 428              		.loc 2 862 3 view .LVU131
 429 0134 9F6A     		ldr	r7, [r3, #40]
 430 0136 3D40     		ands	r5, r5, r7
 431 0138 9EE7     		b	.L55
 432              	.L17:
 862:Drivers/STM32G4xx_HAL_Driver/Inc/stm32g4xx_ll_exti.h **** }
ARM GAS  /tmp/ccDOtdDj.s 			page 45


 433              		.loc 2 862 3 is_stmt 0 view .LVU132
 434              	.LBE58:
 435              	.LBE81:
 355:Drivers/STM32G4xx_HAL_Driver/Src/stm32g4xx_hal_comp.c ****         }
 436              		.loc 1 355 11 is_stmt 1 view .LVU133
 437              	.LVL20:
 438              	.LBB82:
 439              	.LBI78:
 834:Drivers/STM32G4xx_HAL_Driver/Inc/stm32g4xx_ll_exti.h **** {
 440              		.loc 2 834 22 view .LVU134
 441              	.LBB80:
 836:Drivers/STM32G4xx_HAL_Driver/Inc/stm32g4xx_ll_exti.h **** 
 442              		.loc 2 836 3 view .LVU135
 443 013a 9F68     		ldr	r7, [r3, #8]
 444 013c 3D40     		ands	r5, r5, r7
 445 013e F0E7     		b	.L56
 446              	.LVL21:
 447              	.L20:
 836:Drivers/STM32G4xx_HAL_Driver/Inc/stm32g4xx_ll_exti.h **** 
 448              		.loc 2 836 3 is_stmt 0 view .LVU136
 449              	.LBE80:
 450              	.LBE82:
 372:Drivers/STM32G4xx_HAL_Driver/Src/stm32g4xx_hal_comp.c ****         }
 451              		.loc 1 372 11 is_stmt 1 view .LVU137
 452              	.LBB83:
 453              	.LBI83:
 969:Drivers/STM32G4xx_HAL_Driver/Inc/stm32g4xx_ll_exti.h **** {
 454              		.loc 2 969 22 view .LVU138
 455              	.LBB84:
 971:Drivers/STM32G4xx_HAL_Driver/Inc/stm32g4xx_ll_exti.h **** }
 456              		.loc 2 971 3 view .LVU139
 457 0140 DD68     		ldr	r5, [r3, #12]
 458 0142 1543     		orrs	r5, r5, r2
 459              	.L62:
 971:Drivers/STM32G4xx_HAL_Driver/Inc/stm32g4xx_ll_exti.h **** }
 460              		.loc 2 971 3 is_stmt 0 view .LVU140
 461              	.LBE84:
 462              	.LBE83:
 463              	.LBB85:
 464              	.LBB86:
1040:Drivers/STM32G4xx_HAL_Driver/Inc/stm32g4xx_ll_exti.h **** }
 465              		.loc 2 1040 3 view .LVU141
 466 0144 DD60     		str	r5, [r3, #12]
 467              	.L22:
 468              	.LBE86:
 469              	.LBE85:
 402:Drivers/STM32G4xx_HAL_Driver/Src/stm32g4xx_hal_comp.c ****       }
 470              		.loc 1 402 9 is_stmt 1 view .LVU142
 471              	.LVL22:
 472              	.LBB88:
 473              	.LBI88:
1360:Drivers/STM32G4xx_HAL_Driver/Inc/stm32g4xx_ll_exti.h **** {
 474              		.loc 2 1360 22 view .LVU143
 475              	.LBB89:
1362:Drivers/STM32G4xx_HAL_Driver/Inc/stm32g4xx_ll_exti.h **** }
 476              		.loc 2 1362 3 view .LVU144
 477 0146 5A61     		str	r2, [r3, #20]
ARM GAS  /tmp/ccDOtdDj.s 			page 46


1363:Drivers/STM32G4xx_HAL_Driver/Inc/stm32g4xx_ll_exti.h **** 
 478              		.loc 2 1363 1 is_stmt 0 view .LVU145
 479 0148 A7E7     		b	.L43
 480              	.L18:
1363:Drivers/STM32G4xx_HAL_Driver/Inc/stm32g4xx_ll_exti.h **** 
 481              		.loc 2 1363 1 view .LVU146
 482              	.LBE89:
 483              	.LBE88:
 381:Drivers/STM32G4xx_HAL_Driver/Src/stm32g4xx_hal_comp.c ****         {
 484              		.loc 1 381 9 is_stmt 1 view .LVU147
 381:Drivers/STM32G4xx_HAL_Driver/Src/stm32g4xx_hal_comp.c ****         {
 485              		.loc 1 381 11 is_stmt 0 view .LVU148
 486 014a 8142     		cmp	r1, r0
 487 014c 6FEA0205 		mvn	r5, r2
 488 0150 02D0     		beq	.L23
 381:Drivers/STM32G4xx_HAL_Driver/Src/stm32g4xx_hal_comp.c ****         {
 489              		.loc 1 381 39 discriminator 1 view .LVU149
 490 0152 2C4F     		ldr	r7, .L63+16
 491 0154 B942     		cmp	r1, r7
 492 0156 02D1     		bne	.L24
 493              	.L23:
 383:Drivers/STM32G4xx_HAL_Driver/Src/stm32g4xx_hal_comp.c ****         }
 494              		.loc 1 383 11 is_stmt 1 view .LVU150
 495              	.LVL23:
 496              	.LBB90:
 497              	.LBI61:
1062:Drivers/STM32G4xx_HAL_Driver/Inc/stm32g4xx_ll_exti.h **** {
 498              		.loc 2 1062 22 view .LVU151
 499              	.LBB63:
1064:Drivers/STM32G4xx_HAL_Driver/Inc/stm32g4xx_ll_exti.h **** }
 500              		.loc 2 1064 3 view .LVU152
 501 0158 DF6A     		ldr	r7, [r3, #44]
 502 015a 3D40     		ands	r5, r5, r7
 503 015c 96E7     		b	.L57
 504              	.L24:
1064:Drivers/STM32G4xx_HAL_Driver/Inc/stm32g4xx_ll_exti.h **** }
 505              		.loc 2 1064 3 is_stmt 0 view .LVU153
 506              	.LBE63:
 507              	.LBE90:
 387:Drivers/STM32G4xx_HAL_Driver/Src/stm32g4xx_hal_comp.c ****         }
 508              		.loc 1 387 11 is_stmt 1 view .LVU154
 509              	.LVL24:
 510              	.LBB91:
 511              	.LBI85:
1038:Drivers/STM32G4xx_HAL_Driver/Inc/stm32g4xx_ll_exti.h **** {
 512              		.loc 2 1038 22 view .LVU155
 513              	.LBB87:
1040:Drivers/STM32G4xx_HAL_Driver/Inc/stm32g4xx_ll_exti.h **** }
 514              		.loc 2 1040 3 view .LVU156
 515 015e DF68     		ldr	r7, [r3, #12]
 516 0160 3D40     		ands	r5, r5, r7
 517 0162 EFE7     		b	.L62
 518              	.L28:
1040:Drivers/STM32G4xx_HAL_Driver/Inc/stm32g4xx_ll_exti.h **** }
 519              		.loc 2 1040 3 is_stmt 0 view .LVU157
 520              	.LBE87:
 521              	.LBE91:
ARM GAS  /tmp/ccDOtdDj.s 			page 47


 418:Drivers/STM32G4xx_HAL_Driver/Src/stm32g4xx_hal_comp.c ****         }
 522              		.loc 1 418 11 is_stmt 1 view .LVU158
 523              	.LVL25:
 524              	.LBB92:
 525              	.LBI92:
 545:Drivers/STM32G4xx_HAL_Driver/Inc/stm32g4xx_ll_exti.h **** {
 526              		.loc 2 545 22 view .LVU159
 527              	.LBB93:
 547:Drivers/STM32G4xx_HAL_Driver/Inc/stm32g4xx_ll_exti.h **** 
 528              		.loc 2 547 3 view .LVU160
 529 0164 5D68     		ldr	r5, [r3, #4]
 530 0166 1543     		orrs	r5, r5, r2
 531              	.L59:
 547:Drivers/STM32G4xx_HAL_Driver/Inc/stm32g4xx_ll_exti.h **** 
 532              		.loc 2 547 3 is_stmt 0 view .LVU161
 533              	.LBE93:
 534              	.LBE92:
 535              	.LBB94:
 536              	.LBB95:
 618:Drivers/STM32G4xx_HAL_Driver/Inc/stm32g4xx_ll_exti.h **** }
 537              		.loc 2 618 3 view .LVU162
 538 0168 5D60     		str	r5, [r3, #4]
 619:Drivers/STM32G4xx_HAL_Driver/Inc/stm32g4xx_ll_exti.h **** 
 539              		.loc 2 619 1 view .LVU163
 540 016a A0E7     		b	.L29
 541              	.L26:
 542              	.LBE95:
 543              	.LBE94:
 427:Drivers/STM32G4xx_HAL_Driver/Src/stm32g4xx_hal_comp.c ****         {
 544              		.loc 1 427 9 is_stmt 1 view .LVU164
 427:Drivers/STM32G4xx_HAL_Driver/Src/stm32g4xx_hal_comp.c ****         {
 545              		.loc 1 427 11 is_stmt 0 view .LVU165
 546 016c 8142     		cmp	r1, r0
 547 016e 6FEA0205 		mvn	r5, r2
 548 0172 02D0     		beq	.L30
 427:Drivers/STM32G4xx_HAL_Driver/Src/stm32g4xx_hal_comp.c ****         {
 549              		.loc 1 427 39 discriminator 1 view .LVU166
 550 0174 234F     		ldr	r7, .L63+16
 551 0176 B942     		cmp	r1, r7
 552 0178 02D1     		bne	.L31
 553              	.L30:
 429:Drivers/STM32G4xx_HAL_Driver/Src/stm32g4xx_hal_comp.c ****         }
 554              		.loc 1 429 11 is_stmt 1 view .LVU167
 555              	.LVL26:
 556              	.LBB97:
 557              	.LBI68:
 640:Drivers/STM32G4xx_HAL_Driver/Inc/stm32g4xx_ll_exti.h **** {
 558              		.loc 2 640 22 view .LVU168
 559              	.LBB70:
 642:Drivers/STM32G4xx_HAL_Driver/Inc/stm32g4xx_ll_exti.h **** }
 560              		.loc 2 642 3 view .LVU169
 561 017a 5F6A     		ldr	r7, [r3, #36]
 562 017c 3D40     		ands	r5, r5, r7
 563 017e 95E7     		b	.L58
 564              	.L31:
 642:Drivers/STM32G4xx_HAL_Driver/Inc/stm32g4xx_ll_exti.h **** }
 565              		.loc 2 642 3 is_stmt 0 view .LVU170
ARM GAS  /tmp/ccDOtdDj.s 			page 48


 566              	.LBE70:
 567              	.LBE97:
 433:Drivers/STM32G4xx_HAL_Driver/Src/stm32g4xx_hal_comp.c ****         }
 568              		.loc 1 433 11 is_stmt 1 view .LVU171
 569              	.LVL27:
 570              	.LBB98:
 571              	.LBI94:
 616:Drivers/STM32G4xx_HAL_Driver/Inc/stm32g4xx_ll_exti.h **** {
 572              		.loc 2 616 22 view .LVU172
 573              	.LBB96:
 618:Drivers/STM32G4xx_HAL_Driver/Inc/stm32g4xx_ll_exti.h **** }
 574              		.loc 2 618 3 view .LVU173
 575 0180 5F68     		ldr	r7, [r3, #4]
 576 0182 3D40     		ands	r5, r5, r7
 577 0184 F0E7     		b	.L59
 578              	.L34:
 618:Drivers/STM32G4xx_HAL_Driver/Inc/stm32g4xx_ll_exti.h **** }
 579              		.loc 2 618 3 is_stmt 0 view .LVU174
 580              	.LBE96:
 581              	.LBE98:
 450:Drivers/STM32G4xx_HAL_Driver/Src/stm32g4xx_hal_comp.c ****         }
 582              		.loc 1 450 11 is_stmt 1 view .LVU175
 583              	.LVL28:
 584              	.LBB99:
 585              	.LBI99:
 313:Drivers/STM32G4xx_HAL_Driver/Inc/stm32g4xx_ll_exti.h **** {
 586              		.loc 2 313 22 view .LVU176
 587              	.LBB100:
 315:Drivers/STM32G4xx_HAL_Driver/Inc/stm32g4xx_ll_exti.h **** }
 588              		.loc 2 315 3 view .LVU177
 589 0186 1968     		ldr	r1, [r3]
 590 0188 0A43     		orrs	r2, r2, r1
 591              	.L60:
 315:Drivers/STM32G4xx_HAL_Driver/Inc/stm32g4xx_ll_exti.h **** }
 592              		.loc 2 315 3 is_stmt 0 view .LVU178
 593              	.LBE100:
 594              	.LBE99:
 595              	.LBB101:
 596              	.LBB102:
 390:Drivers/STM32G4xx_HAL_Driver/Inc/stm32g4xx_ll_exti.h **** }
 597              		.loc 2 390 3 view .LVU179
 598 018a 1A60     		str	r2, [r3]
 391:Drivers/STM32G4xx_HAL_Driver/Inc/stm32g4xx_ll_exti.h **** 
 599              		.loc 2 391 1 view .LVU180
 600 018c 09E0     		b	.L35
 601              	.L32:
 602              	.LBE102:
 603              	.LBE101:
 459:Drivers/STM32G4xx_HAL_Driver/Src/stm32g4xx_hal_comp.c ****         {
 604              		.loc 1 459 9 is_stmt 1 view .LVU181
 459:Drivers/STM32G4xx_HAL_Driver/Src/stm32g4xx_hal_comp.c ****         {
 605              		.loc 1 459 11 is_stmt 0 view .LVU182
 606 018e 8142     		cmp	r1, r0
 607 0190 6FEA0205 		mvn	r5, r2
 608 0194 02D0     		beq	.L36
 459:Drivers/STM32G4xx_HAL_Driver/Src/stm32g4xx_hal_comp.c ****         {
 609              		.loc 1 459 39 discriminator 1 view .LVU183
ARM GAS  /tmp/ccDOtdDj.s 			page 49


 610 0196 1B4A     		ldr	r2, .L63+16
 611 0198 9142     		cmp	r1, r2
 612 019a 0AD1     		bne	.L37
 613              	.L36:
 461:Drivers/STM32G4xx_HAL_Driver/Src/stm32g4xx_hal_comp.c ****         }
 614              		.loc 1 461 11 is_stmt 1 view .LVU184
 615              	.LVL29:
 616              	.LBB104:
 617              	.LBI104:
 415:Drivers/STM32G4xx_HAL_Driver/Inc/stm32g4xx_ll_exti.h **** {
 618              		.loc 2 415 22 view .LVU185
 619              	.LBB105:
 417:Drivers/STM32G4xx_HAL_Driver/Inc/stm32g4xx_ll_exti.h **** }
 620              		.loc 2 417 3 view .LVU186
 621 019c 196A     		ldr	r1, [r3, #32]
 622 019e 2940     		ands	r1, r1, r5
 623 01a0 1962     		str	r1, [r3, #32]
 624              	.L35:
 417:Drivers/STM32G4xx_HAL_Driver/Inc/stm32g4xx_ll_exti.h **** }
 625              		.loc 2 417 3 is_stmt 0 view .LVU187
 626              	.LBE105:
 627              	.LBE104:
 506:Drivers/STM32G4xx_HAL_Driver/Src/stm32g4xx_hal_comp.c ****     {
 628              		.loc 1 506 5 is_stmt 1 view .LVU188
 506:Drivers/STM32G4xx_HAL_Driver/Src/stm32g4xx_hal_comp.c ****     {
 629              		.loc 1 506 14 is_stmt 0 view .LVU189
 630 01a2 637F     		ldrb	r3, [r4, #29]	@ zero_extendqisi2
 506:Drivers/STM32G4xx_HAL_Driver/Src/stm32g4xx_hal_comp.c ****     {
 631              		.loc 1 506 8 view .LVU190
 632 01a4 03F0FF00 		and	r0, r3, #255
 633 01a8 13BB     		cbnz	r3, .L51
 508:Drivers/STM32G4xx_HAL_Driver/Src/stm32g4xx_hal_comp.c ****     }
 634              		.loc 1 508 7 is_stmt 1 view .LVU191
 508:Drivers/STM32G4xx_HAL_Driver/Src/stm32g4xx_hal_comp.c ****     }
 635              		.loc 1 508 20 is_stmt 0 view .LVU192
 636 01aa 0123     		movs	r3, #1
 637 01ac 6377     		strb	r3, [r4, #29]
 638              	.L53:
 513:Drivers/STM32G4xx_HAL_Driver/Src/stm32g4xx_hal_comp.c **** 
 639              		.loc 1 513 1 view .LVU193
 640 01ae 03B0     		add	sp, sp, #12
 641              	.LCFI1:
 642              		.cfi_remember_state
 643              		.cfi_def_cfa_offset 20
 644              		@ sp needed
 645 01b0 F0BD     		pop	{r4, r5, r6, r7, pc}
 646              	.LVL30:
 647              	.L37:
 648              	.LCFI2:
 649              		.cfi_restore_state
 465:Drivers/STM32G4xx_HAL_Driver/Src/stm32g4xx_hal_comp.c ****         }
 650              		.loc 1 465 11 is_stmt 1 view .LVU194
 651              	.LBB106:
 652              	.LBI106:
 388:Drivers/STM32G4xx_HAL_Driver/Inc/stm32g4xx_ll_exti.h **** {
 653              		.loc 2 388 22 view .LVU195
 654              	.LBB107:
ARM GAS  /tmp/ccDOtdDj.s 			page 50


 390:Drivers/STM32G4xx_HAL_Driver/Inc/stm32g4xx_ll_exti.h **** }
 655              		.loc 2 390 3 view .LVU196
 656 01b2 1A68     		ldr	r2, [r3]
 657 01b4 2A40     		ands	r2, r2, r5
 658 01b6 E8E7     		b	.L60
 659              	.LVL31:
 660              	.L11:
 390:Drivers/STM32G4xx_HAL_Driver/Inc/stm32g4xx_ll_exti.h **** }
 661              		.loc 2 390 3 is_stmt 0 view .LVU197
 662              	.LBE107:
 663              	.LBE106:
 476:Drivers/STM32G4xx_HAL_Driver/Src/stm32g4xx_hal_comp.c ****       {
 664              		.loc 1 476 7 is_stmt 1 view .LVU198
 476:Drivers/STM32G4xx_HAL_Driver/Src/stm32g4xx_hal_comp.c ****       {
 665              		.loc 1 476 9 is_stmt 0 view .LVU199
 666 01b8 8142     		cmp	r1, r0
 667 01ba 6FEA0202 		mvn	r2, r2
 668 01be 02D0     		beq	.L38
 476:Drivers/STM32G4xx_HAL_Driver/Src/stm32g4xx_hal_comp.c ****       {
 669              		.loc 1 476 37 discriminator 1 view .LVU200
 670 01c0 104D     		ldr	r5, .L63+16
 671 01c2 A942     		cmp	r1, r5
 672 01c4 08D1     		bne	.L39
 673              	.L38:
 478:Drivers/STM32G4xx_HAL_Driver/Src/stm32g4xx_hal_comp.c ****       }
 674              		.loc 1 478 9 is_stmt 1 view .LVU201
 675              	.LVL32:
 676              	.LBB108:
 677              	.LBI108:
 640:Drivers/STM32G4xx_HAL_Driver/Inc/stm32g4xx_ll_exti.h **** {
 678              		.loc 2 640 22 view .LVU202
 679              	.LBB109:
 642:Drivers/STM32G4xx_HAL_Driver/Inc/stm32g4xx_ll_exti.h **** }
 680              		.loc 2 642 3 view .LVU203
 681 01c6 5D6A     		ldr	r5, [r3, #36]
 682              	.LBE109:
 683              	.LBE108:
 490:Drivers/STM32G4xx_HAL_Driver/Src/stm32g4xx_hal_comp.c ****       {
 684              		.loc 1 490 9 is_stmt 0 view .LVU204
 685 01c8 8142     		cmp	r1, r0
 686              	.LBB111:
 687              	.LBB110:
 642:Drivers/STM32G4xx_HAL_Driver/Inc/stm32g4xx_ll_exti.h **** }
 688              		.loc 2 642 3 view .LVU205
 689 01ca 05EA0205 		and	r5, r5, r2
 690 01ce 5D62     		str	r5, [r3, #36]
 691              	.LVL33:
 642:Drivers/STM32G4xx_HAL_Driver/Inc/stm32g4xx_ll_exti.h **** }
 692              		.loc 2 642 3 view .LVU206
 693              	.LBE110:
 694              	.LBE111:
 490:Drivers/STM32G4xx_HAL_Driver/Src/stm32g4xx_hal_comp.c ****       {
 695              		.loc 1 490 7 is_stmt 1 view .LVU207
 490:Drivers/STM32G4xx_HAL_Driver/Src/stm32g4xx_hal_comp.c ****       {
 696              		.loc 1 490 9 is_stmt 0 view .LVU208
 697 01d0 08D1     		bne	.L52
 698              	.L40:
ARM GAS  /tmp/ccDOtdDj.s 			page 51


 492:Drivers/STM32G4xx_HAL_Driver/Src/stm32g4xx_hal_comp.c ****       }
 699              		.loc 1 492 9 is_stmt 1 view .LVU209
 700              	.LVL34:
 701              	.LBB112:
 702              	.LBI73:
 415:Drivers/STM32G4xx_HAL_Driver/Inc/stm32g4xx_ll_exti.h **** {
 703              		.loc 2 415 22 view .LVU210
 704              	.LBB75:
 417:Drivers/STM32G4xx_HAL_Driver/Inc/stm32g4xx_ll_exti.h **** }
 705              		.loc 2 417 3 view .LVU211
 706 01d2 196A     		ldr	r1, [r3, #32]
 707 01d4 0A40     		ands	r2, r2, r1
 708 01d6 73E7     		b	.L61
 709              	.LVL35:
 710              	.L39:
 417:Drivers/STM32G4xx_HAL_Driver/Inc/stm32g4xx_ll_exti.h **** }
 711              		.loc 2 417 3 is_stmt 0 view .LVU212
 712              	.LBE75:
 713              	.LBE112:
 482:Drivers/STM32G4xx_HAL_Driver/Src/stm32g4xx_hal_comp.c ****       }
 714              		.loc 1 482 9 is_stmt 1 view .LVU213
 715              	.LBB113:
 716              	.LBI113:
 616:Drivers/STM32G4xx_HAL_Driver/Inc/stm32g4xx_ll_exti.h **** {
 717              		.loc 2 616 22 view .LVU214
 718              	.LBB114:
 618:Drivers/STM32G4xx_HAL_Driver/Inc/stm32g4xx_ll_exti.h **** }
 719              		.loc 2 618 3 view .LVU215
 720 01d8 5968     		ldr	r1, [r3, #4]
 721 01da 1140     		ands	r1, r1, r2
 722 01dc 5960     		str	r1, [r3, #4]
 723              	.LVL36:
 618:Drivers/STM32G4xx_HAL_Driver/Inc/stm32g4xx_ll_exti.h **** }
 724              		.loc 2 618 3 is_stmt 0 view .LVU216
 725              	.LBE114:
 726              	.LBE113:
 490:Drivers/STM32G4xx_HAL_Driver/Src/stm32g4xx_hal_comp.c ****       {
 727              		.loc 1 490 7 is_stmt 1 view .LVU217
 728              	.L42:
 496:Drivers/STM32G4xx_HAL_Driver/Src/stm32g4xx_hal_comp.c ****       }
 729              		.loc 1 496 9 view .LVU218
 730              	.LBB115:
 731              	.LBI101:
 388:Drivers/STM32G4xx_HAL_Driver/Inc/stm32g4xx_ll_exti.h **** {
 732              		.loc 2 388 22 view .LVU219
 733              	.LBB103:
 390:Drivers/STM32G4xx_HAL_Driver/Inc/stm32g4xx_ll_exti.h **** }
 734              		.loc 2 390 3 view .LVU220
 735 01de 1968     		ldr	r1, [r3]
 736 01e0 0A40     		ands	r2, r2, r1
 737 01e2 D2E7     		b	.L60
 738              	.L52:
 390:Drivers/STM32G4xx_HAL_Driver/Inc/stm32g4xx_ll_exti.h **** }
 739              		.loc 2 390 3 is_stmt 0 view .LVU221
 740              	.LBE103:
 741              	.LBE115:
 490:Drivers/STM32G4xx_HAL_Driver/Src/stm32g4xx_hal_comp.c ****       {
ARM GAS  /tmp/ccDOtdDj.s 			page 52


 742              		.loc 1 490 37 discriminator 1 view .LVU222
 743 01e4 0748     		ldr	r0, .L63+16
 744 01e6 8142     		cmp	r1, r0
 745 01e8 F3D0     		beq	.L40
 746 01ea F8E7     		b	.L42
 747              	.LVL37:
 748              	.L45:
 239:Drivers/STM32G4xx_HAL_Driver/Src/stm32g4xx_hal_comp.c ****   }
 749              		.loc 1 239 12 view .LVU223
 750 01ec 0120     		movs	r0, #1
 751              	.LVL38:
 239:Drivers/STM32G4xx_HAL_Driver/Src/stm32g4xx_hal_comp.c ****   }
 752              		.loc 1 239 12 view .LVU224
 753 01ee DEE7     		b	.L53
 754              	.L51:
 234:Drivers/STM32G4xx_HAL_Driver/Src/stm32g4xx_hal_comp.c **** 
 755              		.loc 1 234 21 view .LVU225
 756 01f0 0020     		movs	r0, #0
 512:Drivers/STM32G4xx_HAL_Driver/Src/stm32g4xx_hal_comp.c **** }
 757              		.loc 1 512 3 is_stmt 1 view .LVU226
 512:Drivers/STM32G4xx_HAL_Driver/Src/stm32g4xx_hal_comp.c **** }
 758              		.loc 1 512 10 is_stmt 0 view .LVU227
 759 01f2 DCE7     		b	.L53
 760              	.L64:
 761              		.align	2
 762              	.L63:
 763 01f4 0F7E00FF 		.word	-16744945
 764 01f8 00020140 		.word	1073807872
 765 01fc 14020140 		.word	1073807892
 766 0200 00040140 		.word	1073808384
 767 0204 18020140 		.word	1073807896
 768 0208 00000000 		.word	SystemCoreClock
 769 020c 400D0300 		.word	200000
 770 0210 04020140 		.word	1073807876
 771              		.cfi_endproc
 772              	.LFE357:
 774              		.section	.text.HAL_COMP_MspDeInit,"ax",%progbits
 775              		.align	1
 776              		.weak	HAL_COMP_MspDeInit
 777              		.syntax unified
 778              		.thumb
 779              		.thumb_func
 780              		.fpu fpv4-sp-d16
 782              	HAL_COMP_MspDeInit:
 783              	.LFB370:
 784              		.cfi_startproc
 785              		@ args = 0, pretend = 0, frame = 0
 786              		@ frame_needed = 0, uses_anonymous_args = 0
 787              		@ link register save eliminated.
 788 0000 7047     		bx	lr
 789              		.cfi_endproc
 790              	.LFE370:
 792              		.section	.text.HAL_COMP_DeInit,"ax",%progbits
 793              		.align	1
 794              		.global	HAL_COMP_DeInit
 795              		.syntax unified
 796              		.thumb
ARM GAS  /tmp/ccDOtdDj.s 			page 53


 797              		.thumb_func
 798              		.fpu fpv4-sp-d16
 800              	HAL_COMP_DeInit:
 801              	.LVL39:
 802              	.LFB358:
 523:Drivers/STM32G4xx_HAL_Driver/Src/stm32g4xx_hal_comp.c ****   HAL_StatusTypeDef status = HAL_OK;
 803              		.loc 1 523 1 is_stmt 1 view -0
 804              		.cfi_startproc
 805              		@ args = 0, pretend = 0, frame = 0
 806              		@ frame_needed = 0, uses_anonymous_args = 0
 524:Drivers/STM32G4xx_HAL_Driver/Src/stm32g4xx_hal_comp.c **** 
 807              		.loc 1 524 3 view .LVU229
 527:Drivers/STM32G4xx_HAL_Driver/Src/stm32g4xx_hal_comp.c ****   {
 808              		.loc 1 527 3 view .LVU230
 523:Drivers/STM32G4xx_HAL_Driver/Src/stm32g4xx_hal_comp.c ****   HAL_StatusTypeDef status = HAL_OK;
 809              		.loc 1 523 1 is_stmt 0 view .LVU231
 810 0000 38B5     		push	{r3, r4, r5, lr}
 811              	.LCFI3:
 812              		.cfi_def_cfa_offset 16
 813              		.cfi_offset 3, -16
 814              		.cfi_offset 4, -12
 815              		.cfi_offset 5, -8
 816              		.cfi_offset 14, -4
 527:Drivers/STM32G4xx_HAL_Driver/Src/stm32g4xx_hal_comp.c ****   {
 817              		.loc 1 527 5 view .LVU232
 818 0002 0546     		mov	r5, r0
 819 0004 58B1     		cbz	r0, .L69
 531:Drivers/STM32G4xx_HAL_Driver/Src/stm32g4xx_hal_comp.c ****   {
 820              		.loc 1 531 8 is_stmt 1 view .LVU233
 531:Drivers/STM32G4xx_HAL_Driver/Src/stm32g4xx_hal_comp.c ****   {
 821              		.loc 1 531 11 is_stmt 0 view .LVU234
 822 0006 0368     		ldr	r3, [r0]
 823 0008 1A68     		ldr	r2, [r3]
 531:Drivers/STM32G4xx_HAL_Driver/Src/stm32g4xx_hal_comp.c ****   {
 824              		.loc 1 531 10 view .LVU235
 825 000a 002A     		cmp	r2, #0
 826 000c 07DB     		blt	.L69
 538:Drivers/STM32G4xx_HAL_Driver/Src/stm32g4xx_hal_comp.c **** 
 827              		.loc 1 538 5 is_stmt 1 view .LVU236
 541:Drivers/STM32G4xx_HAL_Driver/Src/stm32g4xx_hal_comp.c **** 
 828              		.loc 1 541 5 view .LVU237
 829 000e 0024     		movs	r4, #0
 830 0010 1C60     		str	r4, [r3]
 553:Drivers/STM32G4xx_HAL_Driver/Src/stm32g4xx_hal_comp.c **** #endif /* USE_HAL_COMP_REGISTER_CALLBACKS */
 831              		.loc 1 553 5 view .LVU238
 832 0012 FFF7FEFF 		bl	HAL_COMP_MspDeInit
 833              	.LVL40:
 557:Drivers/STM32G4xx_HAL_Driver/Src/stm32g4xx_hal_comp.c **** 
 834              		.loc 1 557 5 view .LVU239
 557:Drivers/STM32G4xx_HAL_Driver/Src/stm32g4xx_hal_comp.c **** 
 835              		.loc 1 557 18 is_stmt 0 view .LVU240
 836 0016 6C77     		strb	r4, [r5, #29]
 560:Drivers/STM32G4xx_HAL_Driver/Src/stm32g4xx_hal_comp.c ****   }
 837              		.loc 1 560 5 is_stmt 1 view .LVU241
 560:Drivers/STM32G4xx_HAL_Driver/Src/stm32g4xx_hal_comp.c ****   }
 838              		.loc 1 560 5 view .LVU242
 839 0018 2C77     		strb	r4, [r5, #28]
ARM GAS  /tmp/ccDOtdDj.s 			page 54


 524:Drivers/STM32G4xx_HAL_Driver/Src/stm32g4xx_hal_comp.c **** 
 840              		.loc 1 524 21 is_stmt 0 view .LVU243
 841 001a 2046     		mov	r0, r4
 842              	.L67:
 843              	.LVL41:
